
========================================================================

** ELF Header Information

    File Name: image_lpis.axf

    Machine class: ELFCLASS64 (64-bit)
    Data encoding: ELFDATA2LSB (Little endian)
    Header version: EV_CURRENT (Current version)
    Operating System ABI: none
    ABI Version: 0
    File Type: ET_EXEC (Executable) (2)
    Machine: EM_AARCH64 (ARM)

    Image Entry point: 0x00000000
    Flags: EF_ARM_HASENTRY (0x00000002)

    ARM ELF revision: 0 (SDT / legacy GNU / unspecified)

    Built with
    Component: ARM Compiler 6.10.1 Tool: armlink [5d142800]

    Header size: 64 bytes (0x40)
    Program header entry size: 56 bytes (0x38)
    Section header entry size: 64 bytes (0x40)

    Program header entries: 1
    Section header entries: 18

    Program header offset: 99896 (0x00018638)
    Section header offset: 99952 (0x00018670)

    Section header string table index: 16

========================================================================

** Program header #0 (PT_LOAD) [PF_X + PF_W + PF_R + PF_ARM_ENTRY]
    Size : 65368 bytes (32600 bytes in file)
    Virtual address: 0x00000000 (Alignment 4096)


========================================================================

** Section #1 'ROM' (SHT_PROGBITS) [SHF_ALLOC + SHF_EXECINSTR]
    Size   : 32564 bytes (alignment 4096)
    Address: 0x00000000

    $x.0
    start64
        0x00000000:    d2800000    ....    MOV      x0,#0
        0x00000004:    d2800001    ....    MOV      x1,#0
        0x00000008:    d2800002    ....    MOV      x2,#0
        0x0000000c:    d2800003    ....    MOV      x3,#0
        0x00000010:    d2800004    ....    MOV      x4,#0
        0x00000014:    d2800005    ....    MOV      x5,#0
        0x00000018:    d2800006    ....    MOV      x6,#0
        0x0000001c:    d2800007    ....    MOV      x7,#0
        0x00000020:    d2800008    ....    MOV      x8,#0
        0x00000024:    d2800009    ....    MOV      x9,#0
        0x00000028:    d280000a    ....    MOV      x10,#0
        0x0000002c:    d280000b    ....    MOV      x11,#0
        0x00000030:    d280000c    ....    MOV      x12,#0
        0x00000034:    d280000d    ....    MOV      x13,#0
        0x00000038:    d280000e    ....    MOV      x14,#0
        0x0000003c:    d280000f    ....    MOV      x15,#0
        0x00000040:    d2800010    ....    MOV      x16,#0
        0x00000044:    d2800011    ....    MOV      x17,#0
        0x00000048:    d2800012    ....    MOV      x18,#0
        0x0000004c:    d2800013    ....    MOV      x19,#0
        0x00000050:    d2800014    ....    MOV      x20,#0
        0x00000054:    d2800015    ....    MOV      x21,#0
        0x00000058:    d2800016    ....    MOV      x22,#0
        0x0000005c:    d2800017    ....    MOV      x23,#0
        0x00000060:    d2800018    ....    MOV      x24,#0
        0x00000064:    d2800019    ....    MOV      x25,#0
        0x00000068:    d280001a    ....    MOV      x26,#0
        0x0000006c:    d280001b    ....    MOV      x27,#0
        0x00000070:    d280001c    ....    MOV      x28,#0
        0x00000074:    d280001d    ....    MOV      x29,#0
        0x00000078:    d280001e    ....    MOV      x30,#0
        0x0000007c:    d53800a0    ..8.    MRS      x0,MPIDR_EL1
        0x00000080:    92401c00    ..@.    AND      x0,x0,#0xff
        0x00000084:    b4000060    `...    CBZ      x0,0x90 ; 0x90
    sleep
        0x00000088:    d503207f    . ..    WFI      
        0x0000008c:    17ffffff    ....    B        0x88 ; 0x88
    boot
        0x00000090:    d2800000    ....    MOV      x0,#0
        0x00000094:    d51e1140    @...    MSR      CPTR_EL3,x0
        0x00000098:    58000380    ...X    LDR      x0,{pc}+0x70 ; 0x108 ; [0x108] = 
        0x0000009c:    d51ec000    ....    MSR      VBAR_EL3,x0
        0x000000a0:    d51e111f    ....    MSR      SCR_EL3,xzr
        0x000000a4:    d5033fdf    .?..    ISB      
        0x000000a8:    d2800020     ...    MOV      x0,#1
        0x000000ac:    d51ecca0    ....    MSR      S3_6_C12_C12_5,x0
        0x000000b0:    d5033fdf    .?..    ISB      
        0x000000b4:    d518cca0    ....    MSR      S3_0_C12_C12_5,x0
        0x000000b8:    d2800021    !...    MOV      x1,#1
        0x000000bc:    d51e1101    ....    MSR      SCR_EL3,x1
        0x000000c0:    d5033fdf    .?..    ISB      
        0x000000c4:    d51cc9a0    ....    MSR      S3_4_C12_C9_5,x0
        0x000000c8:    d5033fdf    .?..    ISB      
        0x000000cc:    d518cca0    ....    MSR      S3_0_C12_C12_5,x0
        0x000000d0:    52800001    ...R    MOV      w1,#0
        0x000000d4:    32150021    !..2    ORR      w1,w1,#0x800
        0x000000d8:    32160021    !..2    ORR      w1,w1,#0x400
        0x000000dc:    321d0021    !..2    ORR      w1,w1,#8
        0x000000e0:    321e0021    !..2    ORR      w1,w1,#4
        0x000000e4:    321f0021    !..2    ORR      w1,w1,#2
        0x000000e8:    d51e1101    ....    MSR      SCR_EL3,x1
        0x000000ec:    d5033fdf    .?..    ISB      
        0x000000f0:    d50343ff    .C..    MSR      DAIFClr,#3
        0x000000f4:    14000007    ....    B        __main ; 0x110
    getAffinity
        0x000000f8:    d53800a0    ..8.    MRS      x0,MPIDR_EL1
        0x000000fc:    d3609c01    ..`.    UBFX     x1,x0,#32,#8
        0x00000100:    33081c20     ..3    BFI      w0,w1,#24,#8
        0x00000104:    d65f03c0    .._.    RET      
    $d.1
        0x00000108:    00007000    .p..    DCD    28672
        0x0000010c:    00000000    ....    DCD    0
    $x
    !!!main
    __main
        0x00000110:    9400124a    J...    BL       __scatterload ; 0x4a38
        0x00000114:    94000055    U...    BL       __rt_entry ; 0x268
    .ARM.Collect$$_printf_percent$$00000001
    .ARM.Collect$$_printf_percent$$00000000
    _printf_n
    _printf_percent
        0x00000118:    7101b83f    ?..q    CMP      w1,#0x6e
        0x0000011c:    54002d40    @-.T    B.EQ     _printf_charcount ; 0x6c4
    .ARM.Collect$$_printf_percent$$00000002
    _printf_p
        0x00000120:    7101c03f    ?..q    CMP      w1,#0x70
        0x00000124:    54005aa0    .Z.T    B.EQ     _printf_hex_ptr ; 0xc78
    .ARM.Collect$$_printf_percent$$00000003
    _printf_f
        0x00000128:    7101983f    ?..q    CMP      w1,#0x66
        0x0000012c:    5403ca40    @..T    B.EQ     _printf_fp_dec ; 0x7a74
    .ARM.Collect$$_printf_percent$$00000004
    _printf_e
        0x00000130:    7101943f    ?..q    CMP      w1,#0x65
        0x00000134:    5403ca00    ...T    B.EQ     _printf_fp_dec ; 0x7a74
    .ARM.Collect$$_printf_percent$$00000005
    _printf_g
        0x00000138:    71019c3f    ?..q    CMP      w1,#0x67
        0x0000013c:    5403c9c0    ...T    B.EQ     _printf_fp_dec ; 0x7a74
    .ARM.Collect$$_printf_percent$$00000006
    _printf_a
        0x00000140:    7101843f    ?..q    CMP      w1,#0x61
        0x00000144:    5403c9a0    ...T    B.EQ     _printf_fp_hex ; 0x7a78
    .ARM.Collect$$_printf_percent$$00000007
    _printf_ll
        0x00000148:    b9400003    ..@.    LDR      w3,[x0,#0]
        0x0000014c:    121a0463    c...    AND      w3,w3,#0xc0
        0x00000150:    34000043    C..4    CBZ      w3,_printf_i ; 0x158
        0x00000154:    32190021    !..2    ORR      w1,w1,#0x80
    .ARM.Collect$$_printf_percent$$00000008
    _printf_i
        0x00000158:    7101a43f    ?..q    CMP      w1,#0x69
        0x0000015c:    540021e0    .!.T    B.EQ     _printf_int_dec ; 0x598
    .ARM.Collect$$_printf_percent$$00000009
    _printf_d
        0x00000160:    7101903f    ?..q    CMP      w1,#0x64
        0x00000164:    540021a0    .!.T    B.EQ     _printf_int_dec ; 0x598
    .ARM.Collect$$_printf_percent$$0000000A
    _printf_u
        0x00000168:    7101d43f    ?..q    CMP      w1,#0x75
        0x0000016c:    54002160    `!.T    B.EQ     _printf_int_dec ; 0x598
    .ARM.Collect$$_printf_percent$$0000000B
    _printf_o
        0x00000170:    7101bc3f    ?..q    CMP      w1,#0x6f
        0x00000174:    54004900    .I.T    B.EQ     _printf_int_oct ; 0xa94
    .ARM.Collect$$_printf_percent$$0000000C
    _printf_x
        0x00000178:    7101e03f    ?..q    CMP      w1,#0x78
        0x0000017c:    54005280    .R.T    B.EQ     _printf_int_hex ; 0xbcc
    .ARM.Collect$$_printf_percent$$0000000D
    _printf_lli
        0x00000180:    7103a43f    ?..q    CMP      w1,#0xe9
        0x00000184:    54003da0    .=.T    B.EQ     _printf_longlong_dec ; 0x938
    .ARM.Collect$$_printf_percent$$0000000E
    _printf_lld
        0x00000188:    7103903f    ?..q    CMP      w1,#0xe4
        0x0000018c:    54003d60    `=.T    B.EQ     _printf_longlong_dec ; 0x938
    .ARM.Collect$$_printf_percent$$0000000F
    _printf_llu
        0x00000190:    7103d43f    ?..q    CMP      w1,#0xf5
        0x00000194:    54003d20     =.T    B.EQ     _printf_longlong_dec ; 0x938
    .ARM.Collect$$_printf_percent$$00000010
    _printf_llo
        0x00000198:    7103bc3f    ?..q    CMP      w1,#0xef
        0x0000019c:    54004b20     K.T    B.EQ     _printf_ll_oct ; 0xb00
    .ARM.Collect$$_printf_percent$$00000011
    _printf_llx
        0x000001a0:    7103e03f    ?..q    CMP      w1,#0xf8
        0x000001a4:    540054e0    .T.T    B.EQ     _printf_ll_hex ; 0xc40
    .ARM.Collect$$_printf_percent$$00000012
    _printf_l
        0x000001a8:    b9400003    ..@.    LDR      w3,[x0,#0]
        0x000001ac:    53067c63    c|.S    LSR      w3,w3,#6
        0x000001b0:    33190061    a..3    BFI      w1,w3,#7,#1
    .ARM.Collect$$_printf_percent$$00000013
    _printf_c
        0x000001b4:    71018c3f    ?..q    CMP      w1,#0x63
        0x000001b8:    5400fce0    ...T    B.EQ     _printf_char ; 0x2154
    .ARM.Collect$$_printf_percent$$00000014
    _printf_s
        0x000001bc:    7101cc3f    ?..q    CMP      w1,#0x73
        0x000001c0:    5400fee0    ...T    B.EQ     _printf_string ; 0x219c
    .ARM.Collect$$_printf_percent$$00000015
    _printf_lc
        0x000001c4:    71038c3f    ?..q    CMP      w1,#0xe3
        0x000001c8:    54010340    @..T    B.EQ     _printf_wchar ; 0x2230
    .ARM.Collect$$_printf_percent$$00000016
    _printf_ls
        0x000001cc:    7103cc3f    ?..q    CMP      w1,#0xf3
        0x000001d0:    54010520     ..T    B.EQ     _printf_wstring ; 0x2274
    .ARM.Collect$$_printf_percent$$00000017
    _printf_percent_end
        0x000001d4:    52800000    ...R    MOV      w0,#0
        0x000001d8:    d65f03c0    .._.    RET      
    .ARM.Collect$$libinit$$00000000
    __rt_lib_init
        0x000001dc:    a9bf7bf5    .{..    STP      x21,x30,[sp,#-0x10]!
        0x000001e0:    a9bf0fe2    ....    STP      x2,x3,[sp,#-0x10]!
        0x000001e4:    a9bf07e0    ....    STP      x0,x1,[sp,#-0x10]!
    .ARM.Collect$$libinit$$00000001
    __rt_lib_init_fp_1
        0x000001e8:    9400002c    ,...    BL       _fp_init ; 0x298
    .ARM.Collect$$libinit$$00000004
    .ARM.Collect$$libinit$$00000007
    __rt_lib_init_heap_2
    __rt_lib_init_preinit_1
        0x000001ec:    580002e0    ...X    LDR      x0,__lit__00000000 ; [0x248] = 
        0x000001f0:    58000301    ...X    LDR      x1,__lit__00000001 ; [0x250] = 
        0x000001f4:    94000ed4    ....    BL       _init_alloc ; 0x3d44
    .ARM.Collect$$libinit$$0000000A
    .ARM.Collect$$libinit$$0000000C
    .ARM.Collect$$libinit$$0000000E
    .ARM.Collect$$libinit$$0000000F
    __rt_lib_init_heap_1
    __rt_lib_init_lc_common
    __rt_lib_init_rand_1
    __rt_lib_init_user_alloc_1
        0x000001f8:    940008ee    ....    BL       __rt_locale ; 0x25b0
        0x000001fc:    aa0003f5    ....    MOV      x21,x0
    .ARM.Collect$$libinit$$00000011
    .ARM.Collect$$libinit$$00000012
    __rt_lib_init_lc_collate_1
    __rt_lib_init_lc_ctype_2
        0x00000200:    d2800000    ....    MOV      x0,#0
        0x00000204:    d2800001    ....    MOV      x1,#0
        0x00000208:    94001dae    ....    BL       _get_lc_ctype ; 0x78c0
        0x0000020c:    91000400    ....    ADD      x0,x0,#1
        0x00000210:    f90006a0    ....    STR      x0,[x21,#8]
    .ARM.Collect$$libinit$$00000013
    .ARM.Collect$$libinit$$00000015
    .ARM.Collect$$libinit$$00000016
    __rt_lib_init_lc_ctype_1
    __rt_lib_init_lc_monetary_1
    __rt_lib_init_lc_numeric_2
        0x00000214:    d2800000    ....    MOV      x0,#0
        0x00000218:    d2800001    ....    MOV      x1,#0
        0x0000021c:    94001d9a    ....    BL       _get_lc_numeric ; 0x7884
        0x00000220:    f9000ea0    ....    STR      x0,[x21,#0x18]
    .ARM.Collect$$libinit$$00000017
    .ARM.Collect$$libinit$$00000019
    .ARM.Collect$$libinit$$0000001B
    .ARM.Collect$$libinit$$0000001D
    .ARM.Collect$$libinit$$0000001F
    .ARM.Collect$$libinit$$00000021
    .ARM.Collect$$libinit$$00000023
    .ARM.Collect$$libinit$$00000024
    __rt_lib_init_atexit_1
    __rt_lib_init_clock_1
    __rt_lib_init_fp_trap_1
    __rt_lib_init_getenv_1
    __rt_lib_init_lc_numeric_1
    __rt_lib_init_lc_time_1
    __rt_lib_init_signal_1
    __rt_lib_init_stdio_2
        0x00000224:    94000825    %...    BL       _initio ; 0x22b8
    .ARM.Collect$$libinit$$00000025
    .ARM.Collect$$libinit$$00000026
    __rt_lib_init_argv_1
    __rt_lib_init_stdio_1
        0x00000228:    94001083    ....    BL       __ARM_argv_veneer ; 0x4434
        0x0000022c:    a9010fe2    ....    STP      x2,x3,[sp,#0x10]
        0x00000230:    a90007e0    ....    STP      x0,x1,[sp,#0]
    .ARM.Collect$$libinit$$0000002E
    .ARM.Collect$$libinit$$00000030
    .ARM.Collect$$libinit$$00000032
    .ARM.Collect$$libinit$$00000033
    __rt_lib_init_alloca_1
    __rt_lib_init_cpp_1
    __rt_lib_init_exceptions_1
    __rt_lib_init_return
        0x00000234:    a8c107e0    ....    LDP      x0,x1,[sp],#0x10
        0x00000238:    a8c10fe2    ....    LDP      x2,x3,[sp],#0x10
        0x0000023c:    a8c17bf5    .{..    LDP      x21,x30,[sp],#0x10
        0x00000240:    d65f03c0    .._.    RET      
        0x00000244:    00000000    ....    DCI      0x00000000 ; ? Undefined
    $d
    .ARM.Collect$$libinit$$00002718
    __lit__00000000
        0x00000248:    04008000    ....    DCD    67141632
        0x0000024c:    00000000    ....    DCD    0
    __lit__00000001
        0x00000250:    04010000    ....    DCD    67174400
        0x00000254:    00000000    ....    DCD    0
    $x
    .ARM.Collect$$libshutdown$$00000000
    __rt_lib_shutdown
        0x00000258:    a9bf7bf5    .{..    STP      x21,x30,[sp,#-0x10]!
    .ARM.Collect$$libshutdown$$00000002
    .ARM.Collect$$libshutdown$$00000003
    __rt_lib_shutdown_cpp_1
    __rt_lib_shutdown_stdio_2
        0x0000025c:    94000870    p...    BL       _terminateio ; 0x241c
    .ARM.Collect$$libshutdown$$00000004
    .ARM.Collect$$libshutdown$$00000007
    .ARM.Collect$$libshutdown$$0000000A
    .ARM.Collect$$libshutdown$$0000000C
    .ARM.Collect$$libshutdown$$0000000F
    .ARM.Collect$$libshutdown$$00000010
    __rt_lib_shutdown_fp_trap_1
    __rt_lib_shutdown_heap_1
    __rt_lib_shutdown_return
    __rt_lib_shutdown_signal_1
    __rt_lib_shutdown_stdio_1
    __rt_lib_shutdown_user_alloc_1
        0x00000260:    a8c17bf5    .{..    LDP      x21,x30,[sp],#0x10
        0x00000264:    d65f03c0    .._.    RET      
    .ARM.Collect$$rtentry$$00000000
    .ARM.Collect$$rtentry$$00000002
    .ARM.Collect$$rtentry$$00000006
    __rt_entry
    __rt_entry_presh_1
    __rt_entry_sh
        0x00000268:    580000c0    ...X    LDR      x0,__lit__00000000 ; [0x280] = 
        0x0000026c:    9100001f    ....    MOV      sp,x0
    .ARM.Collect$$rtentry$$00000009
    .ARM.Collect$$rtentry$$0000000A
    __rt_entry_li
    __rt_entry_postsh_1
        0x00000270:    97ffffdb    ....    BL       __rt_lib_init ; 0x1dc
    .ARM.Collect$$rtentry$$0000000C
    .ARM.Collect$$rtentry$$0000000D
    __rt_entry_main
    __rt_entry_postli_1
        0x00000274:    940015bd    ....    BL       main ; 0x5968
        0x00000278:    94000e21    !...    BL       exit ; 0x3afc
        0x0000027c:    00000000    ....    DCI      0x00000000 ; ? Undefined
    $d
    .ARM.Collect$$rtentry$$00002717
    __lit__00000000
        0x00000280:    04010000    ....    DCD    67174400
        0x00000284:    00000000    ....    DCD    0
    $x
    .ARM.Collect$$rtexit$$00000000
    __rt_exit
        0x00000288:    a9bf07e0    ....    STP      x0,x1,[sp,#-0x10]!
    .ARM.Collect$$rtexit$$00000002
    .ARM.Collect$$rtexit$$00000003
    __rt_exit_ls
    __rt_exit_prels_1
        0x0000028c:    97fffff3    ....    BL       __rt_lib_shutdown ; 0x258
    .ARM.Collect$$rtexit$$00000004
    __rt_exit_exit
        0x00000290:    a8c107e0    ....    LDP      x0,x1,[sp],#0x10
        0x00000294:    94001069    i...    BL       _sys_exit ; 0x4438
    .emb_text
    _fp_init
        0x00000298:    d2a06000    .`..    MOV      x0,#0x3000000
        0x0000029c:    d51b4400    .D..    MSR      FPCR,x0
        0x000002a0:    d5033fdf    .?..    ISB      
        0x000002a4:    d65f03c0    .._.    RET      
    .text
    printf
        0x000002a8:    d10383ff    ....    SUB      sp,sp,#0xe0
        0x000002ac:    f9006be7    .k..    STR      x7,[sp,#0xd0]
        0x000002b0:    a90c1be5    ....    STP      x5,x6,[sp,#0xc0]
        0x000002b4:    a90b13e3    ....    STP      x3,x4,[sp,#0xb0]
        0x000002b8:    a90a0be1    ....    STP      x1,x2,[sp,#0xa0]
        0x000002bc:    ad041fe6    ....    STP      q6,q7,[sp,#0x80]
        0x000002c0:    ad0317e4    ....    STP      q4,q5,[sp,#0x60]
        0x000002c4:    ad020fe2    ....    STP      q2,q3,[sp,#0x40]
        0x000002c8:    ad0107e0    ....    STP      q0,q1,[sp,#0x20]
        0x000002cc:    f9000bfe    ....    STR      x30,[sp,#0x10]
        0x000002d0:    a90077f3    .w..    STP      x19,x29,[sp,#0]
        0x000002d4:    910023fd    .#..    ADD      x29,sp,#8
        0x000002d8:    d10103ff    ....    SUB      sp,sp,#0x40
        0x000002dc:    aa0003f3    ....    MOV      x19,x0
        0x000002e0:    910483e1    ....    ADD      x1,sp,#0x120
        0x000002e4:    f90003e1    ....    STR      x1,[sp,#0]
        0x000002e8:    aa0103e2    ....    MOV      x2,x1
        0x000002ec:    d1002042    B ..    SUB      x2,x2,#8
        0x000002f0:    f90007e2    ....    STR      x2,[sp,#8]
        0x000002f4:    d1010021    !...    SUB      x1,x1,#0x40
        0x000002f8:    f9000be1    ....    STR      x1,[sp,#0x10]
        0x000002fc:    128006e0    ....    MOV      w0,#0xffffffc8
        0x00000300:    b9001be0    ....    STR      w0,[sp,#0x18]
        0x00000304:    12800fe0    ....    MOV      w0,#0xffffff80
        0x00000308:    b9001fe0    ....    STR      w0,[sp,#0x1c]
        0x0000030c:    d2800402    ....    MOV      x2,#0x20
        0x00000310:    910003e1    ....    MOV      x1,sp
        0x00000314:    910083e0    ....    ADD      x0,sp,#0x20
        0x00000318:    94000348    H...    BL       __aeabi_memcpy4 ; 0x1038
        0x0000031c:    910083e2    ....    ADD      x2,sp,#0x20
        0x00000320:    58000101    ...X    LDR      x1,{pc}+0x20 ; 0x340 ; [0x340] = 
        0x00000324:    aa1303e0    ....    MOV      x0,x19
        0x00000328:    9400010e    ....    BL       _printf_char_file ; 0x760
        0x0000032c:    a94477f3    .wD.    LDP      x19,x29,[sp,#0x40]
        0x00000330:    f9402bfe    .+@.    LDR      x30,[sp,#0x50]
        0x00000334:    910483ff    ....    ADD      sp,sp,#0x120
        0x00000338:    d65f03c0    .._.    RET      
    $d
        0x0000033c:    00000000    ....    DCD    0
        0x00000340:    040000a8    ....    DCD    67109032
        0x00000344:    00000000    ....    DCD    0
    $x
    .text
    memset
        0x00000348:    d10083ff    ....    SUB      sp,sp,#0x20
        0x0000034c:    f9000bfe    ....    STR      x30,[sp,#0x10]
        0x00000350:    a90077f3    .w..    STP      x19,x29,[sp,#0]
        0x00000354:    910023fd    .#..    ADD      x29,sp,#8
        0x00000358:    aa0003f3    ....    MOV      x19,x0
        0x0000035c:    2a0103e0    ...*    MOV      w0,w1
        0x00000360:    aa0203e1    ....    MOV      x1,x2
        0x00000364:    12001c03    ....    AND      w3,w0,#0xff
        0x00000368:    0b032063    c ..    ADD      w3,w3,w3,LSL #8
        0x0000036c:    0b034062    b@..    ADD      w2,w3,w3,LSL #16
        0x00000370:    aa1303e0    ....    MOV      x0,x19
        0x00000374:    94000391    ....    BL       _memset ; 0x11b8
        0x00000378:    aa1303e0    ....    MOV      x0,x19
        0x0000037c:    a94077f3    .w@.    LDP      x19,x29,[sp,#0]
        0x00000380:    f9400bfe    ..@.    LDR      x30,[sp,#0x10]
        0x00000384:    910083ff    ....    ADD      sp,sp,#0x20
        0x00000388:    d65f03c0    .._.    RET      
    .text
    _printf_pre_padding
        0x0000038c:    d100c3ff    ....    SUB      sp,sp,#0x30
        0x00000390:    f90013fe    ....    STR      x30,[sp,#0x20]
        0x00000394:    a90177f5    .w..    STP      x21,x29,[sp,#0x10]
        0x00000398:    910063fd    .c..    ADD      x29,sp,#0x18
        0x0000039c:    a90053f3    .S..    STP      x19,x20,[sp,#0]
        0x000003a0:    aa0003f3    ....    MOV      x19,x0
        0x000003a4:    b9402e74    t.@.    LDR      w20,[x19,#0x2c]
        0x000003a8:    b9400260    `.@.    LDR      w0,[x19,#0]
        0x000003ac:    121c0001    ....    AND      w1,w0,#0x10
        0x000003b0:    7100003f    ?..q    CMP      w1,#0
        0x000003b4:    52800601    ...R    MOV      w1,#0x30
        0x000003b8:    52800402    ...R    MOV      w2,#0x20
        0x000003bc:    1a821035    5...    CSEL     w21,w1,w2,NE
        0x000003c0:    12000000    ....    AND      w0,w0,#1
        0x000003c4:    7100001f    ...q    CMP      w0,#0
        0x000003c8:    540001a0    ...T    B.EQ     0x3fc ; _printf_pre_padding + 112
        0x000003cc:    a94053f3    .S@.    LDP      x19,x20,[sp,#0]
        0x000003d0:    a94177f5    .wA.    LDP      x21,x29,[sp,#0x10]
        0x000003d4:    f94013fe    ..@.    LDR      x30,[sp,#0x20]
        0x000003d8:    9100c3ff    ....    ADD      sp,sp,#0x30
        0x000003dc:    d65f03c0    .._.    RET      
        0x000003e0:    f9400a61    a.@.    LDR      x1,[x19,#0x10]
        0x000003e4:    f9400662    b.@.    LDR      x2,[x19,#8]
        0x000003e8:    2a1503e0    ...*    MOV      w0,w21
        0x000003ec:    d63f0040    @.?.    BLR      x2
        0x000003f0:    b9403660    `6@.    LDR      w0,[x19,#0x34]
        0x000003f4:    11000400    ....    ADD      w0,w0,#1
        0x000003f8:    b9003660    `6..    STR      w0,[x19,#0x34]
        0x000003fc:    71000694    ...q    SUBS     w20,w20,#1
        0x00000400:    54ffff05    ...T    B.PL     0x3e0 ; _printf_pre_padding + 84
        0x00000404:    a94053f3    .S@.    LDP      x19,x20,[sp,#0]
        0x00000408:    a94177f5    .wA.    LDP      x21,x29,[sp,#0x10]
        0x0000040c:    f94013fe    ..@.    LDR      x30,[sp,#0x20]
        0x00000410:    9100c3ff    ....    ADD      sp,sp,#0x30
        0x00000414:    d65f03c0    .._.    RET      
    _printf_post_padding
        0x00000418:    d10083ff    ....    SUB      sp,sp,#0x20
        0x0000041c:    a9017bfd    .{..    STP      x29,x30,[sp,#0x10]
        0x00000420:    910043fd    .C..    ADD      x29,sp,#0x10
        0x00000424:    a90053f3    .S..    STP      x19,x20,[sp,#0]
        0x00000428:    aa0003f3    ....    MOV      x19,x0
        0x0000042c:    b9402e74    t.@.    LDR      w20,[x19,#0x2c]
        0x00000430:    b9400260    `.@.    LDR      w0,[x19,#0]
        0x00000434:    12000000    ....    AND      w0,w0,#1
        0x00000438:    7100001f    ...q    CMP      w0,#0
        0x0000043c:    54000181    ...T    B.NE     0x46c ; _printf_post_padding + 84
        0x00000440:    a94053f3    .S@.    LDP      x19,x20,[sp,#0]
        0x00000444:    a9417bfd    .{A.    LDP      x29,x30,[sp,#0x10]
        0x00000448:    910083ff    ....    ADD      sp,sp,#0x20
        0x0000044c:    d65f03c0    .._.    RET      
        0x00000450:    f9400a61    a.@.    LDR      x1,[x19,#0x10]
        0x00000454:    f9400662    b.@.    LDR      x2,[x19,#8]
        0x00000458:    52800400    ...R    MOV      w0,#0x20
        0x0000045c:    d63f0040    @.?.    BLR      x2
        0x00000460:    b9403660    `6@.    LDR      w0,[x19,#0x34]
        0x00000464:    11000400    ....    ADD      w0,w0,#1
        0x00000468:    b9003660    `6..    STR      w0,[x19,#0x34]
        0x0000046c:    71000694    ...q    SUBS     w20,w20,#1
        0x00000470:    54ffff05    ...T    B.PL     0x450 ; _printf_post_padding + 56
        0x00000474:    a94053f3    .S@.    LDP      x19,x20,[sp,#0]
        0x00000478:    a9417bfd    .{A.    LDP      x29,x30,[sp,#0x10]
        0x0000047c:    910083ff    ....    ADD      sp,sp,#0x20
        0x00000480:    d65f03c0    .._.    RET      
    .text
    _printf_truncate_signed
        0x00000484:    b9400021    !.@.    LDR      w1,[x1,#0]
        0x00000488:    12160022    "...    AND      w2,w1,#0x400
        0x0000048c:    7100005f    _..q    CMP      w2,#0
        0x00000490:    54000060    `..T    B.EQ     0x49c ; _printf_truncate_signed + 24
        0x00000494:    13001c00    ....    SXTB     w0,w0
        0x00000498:    d65f03c0    .._.    RET      
        0x0000049c:    12180021    !...    AND      w1,w1,#0x100
        0x000004a0:    7100003f    ?..q    CMP      w1,#0
        0x000004a4:    54ffffa0    ...T    B.EQ     0x498 ; _printf_truncate_signed + 20
        0x000004a8:    13003c00    .<..    SXTH     w0,w0
        0x000004ac:    d65f03c0    .._.    RET      
    _printf_truncate_unsigned
        0x000004b0:    b9400021    !.@.    LDR      w1,[x1,#0]
        0x000004b4:    12160022    "...    AND      w2,w1,#0x400
        0x000004b8:    7100005f    _..q    CMP      w2,#0
        0x000004bc:    54000060    `..T    B.EQ     0x4c8 ; _printf_truncate_unsigned + 24
        0x000004c0:    12001c00    ....    AND      w0,w0,#0xff
        0x000004c4:    d65f03c0    .._.    RET      
        0x000004c8:    12180021    !...    AND      w1,w1,#0x100
        0x000004cc:    7100003f    ?..q    CMP      w1,#0
        0x000004d0:    54ffffa0    ...T    B.EQ     0x4c4 ; _printf_truncate_unsigned + 20
        0x000004d4:    12003c00    .<..    AND      w0,w0,#0xffff
        0x000004d8:    d65f03c0    .._.    RET      
    .text
    _printf_str
        0x000004dc:    d100c3ff    ....    SUB      sp,sp,#0x30
        0x000004e0:    f90013fe    ....    STR      x30,[sp,#0x20]
        0x000004e4:    a90177f5    .w..    STP      x21,x29,[sp,#0x10]
        0x000004e8:    910063fd    .c..    ADD      x29,sp,#0x18
        0x000004ec:    a90053f3    .S..    STP      x19,x20,[sp,#0]
        0x000004f0:    aa0003f4    ....    MOV      x20,x0
        0x000004f4:    aa0103f3    ....    MOV      x19,x1
        0x000004f8:    7100045f    _..q    CMP      w2,#1
        0x000004fc:    54000100    ...T    B.EQ     0x51c ; _printf_str + 64
        0x00000500:    b9400280    ..@.    LDR      w0,[x20,#0]
        0x00000504:    121b0000    ....    AND      w0,w0,#0x20
        0x00000508:    7100001f    ...q    CMP      w0,#0
        0x0000050c:    54000040    @..T    B.EQ     0x514 ; _printf_str + 56
        0x00000510:    b9403282    .2@.    LDR      w2,[x20,#0x30]
        0x00000514:    52800000    ...R    MOV      w0,#0
        0x00000518:    14000004    ....    B        0x528 ; _printf_str + 76
        0x0000051c:    52800020     ..R    MOV      w0,#1
        0x00000520:    14000007    ....    B        0x53c ; _printf_str + 96
        0x00000524:    11000400    ....    ADD      w0,w0,#1
        0x00000528:    6b02001f    ...k    CMP      w0,w2
        0x0000052c:    54000082    ...T    B.CS     0x53c ; _printf_str + 96
        0x00000530:    38605a61    aZ`8    LDRB     w1,[x19,w0,UXTW #0]
        0x00000534:    7100003f    ?..q    CMP      w1,#0
        0x00000538:    54ffff61    a..T    B.NE     0x524 ; _printf_str + 72
        0x0000053c:    b9402e81    ..@.    LDR      w1,[x20,#0x2c]
        0x00000540:    4b000021    !..K    SUB      w1,w1,w0
        0x00000544:    b9002e81    ....    STR      w1,[x20,#0x2c]
        0x00000548:    b9403681    .6@.    LDR      w1,[x20,#0x34]
        0x0000054c:    0b000021    !...    ADD      w1,w1,w0
        0x00000550:    b9003681    .6..    STR      w1,[x20,#0x34]
        0x00000554:    8b204275    uB .    ADD      x21,x19,w0,UXTW
        0x00000558:    aa1403e0    ....    MOV      x0,x20
        0x0000055c:    97ffff8c    ....    BL       _printf_pre_padding ; 0x38c
        0x00000560:    14000005    ....    B        0x574 ; _printf_str + 152
        0x00000564:    38401660    `.@8    LDRB     w0,[x19],#1
        0x00000568:    f9400a81    ..@.    LDR      x1,[x20,#0x10]
        0x0000056c:    f9400682    ..@.    LDR      x2,[x20,#8]
        0x00000570:    d63f0040    @.?.    BLR      x2
        0x00000574:    eb15027f    ....    CMP      x19,x21
        0x00000578:    54ffff63    c..T    B.CC     0x564 ; _printf_str + 136
        0x0000057c:    aa1403e0    ....    MOV      x0,x20
        0x00000580:    97ffffa6    ....    BL       _printf_post_padding ; 0x418
        0x00000584:    a94053f3    .S@.    LDP      x19,x20,[sp,#0]
        0x00000588:    a94177f5    .wA.    LDP      x21,x29,[sp,#0x10]
        0x0000058c:    f94013fe    ..@.    LDR      x30,[sp,#0x20]
        0x00000590:    9100c3ff    ....    ADD      sp,sp,#0x30
        0x00000594:    d65f03c0    .._.    RET      
    .text
    _printf_int_dec
        0x00000598:    d10103ff    ....    SUB      sp,sp,#0x40
        0x0000059c:    f9001bfe    ....    STR      x30,[sp,#0x30]
        0x000005a0:    a90277f5    .w..    STP      x21,x29,[sp,#0x20]
        0x000005a4:    9100a3fd    ....    ADD      x29,sp,#0x28
        0x000005a8:    a90153f3    .S..    STP      x19,x20,[sp,#0x10]
        0x000005ac:    aa0003f5    ....    MOV      x21,x0
        0x000005b0:    2a0103e3    ...*    MOV      w3,w1
        0x000005b4:    b9401841    A.@.    LDR      w1,[x2,#0x18]
        0x000005b8:    11002024    $ ..    ADD      w4,w1,#8
        0x000005bc:    7100009f    ...q    CMP      w4,#0
        0x000005c0:    540000cc    ...T    B.GT     0x5d8 ; _printf_int_dec + 64
        0x000005c4:    f9400440    @.@.    LDR      x0,[x2,#8]
        0x000005c8:    8b21c000    ..!.    ADD      x0,x0,w1,SXTW
        0x000005cc:    f9400000    ..@.    LDR      x0,[x0,#0]
        0x000005d0:    b9001844    D...    STR      w4,[x2,#0x18]
        0x000005d4:    14000004    ....    B        0x5e4 ; _printf_int_dec + 76
        0x000005d8:    f9400041    A.@.    LDR      x1,[x2,#0]
        0x000005dc:    f8408420     .@.    LDR      x0,[x1],#8
        0x000005e0:    f9000041    A...    STR      x1,[x2,#0]
        0x000005e4:    10000694    ....    ADR      x20,{pc}+0xd0 ; 0x6b4
        0x000005e8:    52800013    ...R    MOV      w19,#0
        0x000005ec:    7101d47f    ...q    CMP      w3,#0x75
        0x000005f0:    aa1503e1    ....    MOV      x1,x21
        0x000005f4:    54000280    ...T    B.EQ     0x644 ; _printf_int_dec + 172
        0x000005f8:    97ffffa3    ....    BL       _printf_truncate_signed ; 0x484
        0x000005fc:    93407c01    .|@.    SXTW     x1,w0
        0x00000600:    f100003f    ?...    CMP      x1,#0
        0x00000604:    5400008a    ...T    B.GE     0x614 ; _printf_int_dec + 124
        0x00000608:    cb0103e1    ....    NEG      x1,x1
        0x0000060c:    10000574    t...    ADR      x20,{pc}+0xac ; 0x6b8
        0x00000610:    1400000b    ....    B        0x63c ; _printf_int_dec + 164
        0x00000614:    b94002a0    ..@.    LDR      w0,[x21,#0]
        0x00000618:    121f0002    ....    AND      w2,w0,#2
        0x0000061c:    7100005f    _..q    CMP      w2,#0
        0x00000620:    54000060    `..T    B.EQ     0x62c ; _printf_int_dec + 148
        0x00000624:    100004d4    ....    ADR      x20,{pc}+0x98 ; 0x6bc
        0x00000628:    14000005    ....    B        0x63c ; _printf_int_dec + 164
        0x0000062c:    121e0000    ....    AND      w0,w0,#4
        0x00000630:    7100001f    ...q    CMP      w0,#0
        0x00000634:    540000c0    ...T    B.EQ     0x64c ; _printf_int_dec + 180
        0x00000638:    10000454    T...    ADR      x20,{pc}+0x88 ; 0x6c0
        0x0000063c:    52800033    3..R    MOV      w19,#1
        0x00000640:    14000003    ....    B        0x64c ; _printf_int_dec + 180
        0x00000644:    97ffff9b    ....    BL       _printf_truncate_unsigned ; 0x4b0
        0x00000648:    d3407c01    .|@.    UBFX     x1,x0,#0,#32
        0x0000064c:    52800006    ...R    MOV      w6,#0
        0x00000650:    9100e2a0    ....    ADD      x0,x21,#0x38
        0x00000654:    d2800143    C...    MOV      x3,#0xa
        0x00000658:    1400000c    ....    B        0x688 ; _printf_int_dec + 240
        0x0000065c:    aa0303e5    ....    MOV      x5,x3
        0x00000660:    9ac30824    $...    UDIV     x4,x1,x3
        0x00000664:    f90003e4    ....    STR      x4,[sp,#0]
        0x00000668:    9ac50822    "...    UDIV     x2,x1,x5
        0x0000066c:    9b0284a1    ....    MSUB     x1,x5,x2,x1
        0x00000670:    f90007e1    ....    STR      x1,[sp,#8]
        0x00000674:    1100c021    !...    ADD      w1,w1,#0x30
        0x00000678:    2a0603e2    ...*    MOV      w2,w6
        0x0000067c:    110004c6    ....    ADD      w6,w6,#1
        0x00000680:    3822d801    .."8    STRB     w1,[x0,w2,SXTW #0]
        0x00000684:    aa0403e1    ....    MOV      x1,x4
        0x00000688:    f100003f    ?...    CMP      x1,#0
        0x0000068c:    54fffe81    ...T    B.NE     0x65c ; _printf_int_dec + 196
        0x00000690:    2a1303e3    ...*    MOV      w3,w19
        0x00000694:    aa1403e2    ....    MOV      x2,x20
        0x00000698:    2a0603e1    ...*    MOV      w1,w6
        0x0000069c:    aa1503e0    ....    MOV      x0,x21
        0x000006a0:    a94153f3    .SA.    LDP      x19,x20,[sp,#0x10]
        0x000006a4:    a94277f5    .wB.    LDP      x21,x29,[sp,#0x20]
        0x000006a8:    f9401bfe    ..@.    LDR      x30,[sp,#0x30]
        0x000006ac:    910103ff    ....    ADD      sp,sp,#0x40
        0x000006b0:    140002d5    ....    B        _printf_int_common ; 0x1204
    $d
        0x000006b4:    00000000    ....    DCD    0
        0x000006b8:    0000002d    -...    DCD    45
        0x000006bc:    0000002b    +...    DCD    43
        0x000006c0:    00000020     ...    DCD    32
    $x
    .text
    _printf_charcount
        0x000006c4:    b9401844    D.@.    LDR      w4,[x2,#0x18]
        0x000006c8:    11002083    . ..    ADD      w3,w4,#8
        0x000006cc:    7100007f    ...q    CMP      w3,#0
        0x000006d0:    540000cc    ...T    B.GT     0x6e8 ; _printf_charcount + 36
        0x000006d4:    f9400441    A.@.    LDR      x1,[x2,#8]
        0x000006d8:    8b24c021    !.$.    ADD      x1,x1,w4,SXTW
        0x000006dc:    f9400021    !.@.    LDR      x1,[x1,#0]
        0x000006e0:    b9001843    C...    STR      w3,[x2,#0x18]
        0x000006e4:    14000004    ....    B        0x6f4 ; _printf_charcount + 48
        0x000006e8:    f9400043    C.@.    LDR      x3,[x2,#0]
        0x000006ec:    f8408461    a.@.    LDR      x1,[x3],#8
        0x000006f0:    f9000043    C...    STR      x3,[x2,#0]
        0x000006f4:    b9400002    ..@.    LDR      w2,[x0,#0]
        0x000006f8:    12160043    C...    AND      w3,w2,#0x400
        0x000006fc:    7100007f    ...q    CMP      w3,#0
        0x00000700:    54000080    ...T    B.EQ     0x710 ; _printf_charcount + 76
        0x00000704:    b9403400    .4@.    LDR      w0,[x0,#0x34]
        0x00000708:    39000020     ..9    STRB     w0,[x1,#0]
        0x0000070c:    14000013    ....    B        0x758 ; _printf_charcount + 148
        0x00000710:    12180043    C...    AND      w3,w2,#0x100
        0x00000714:    7100007f    ...q    CMP      w3,#0
        0x00000718:    54000080    ...T    B.EQ     0x728 ; _printf_charcount + 100
        0x0000071c:    b9403400    .4@.    LDR      w0,[x0,#0x34]
        0x00000720:    79000020     ..y    STRH     w0,[x1,#0]
        0x00000724:    1400000d    ....    B        0x758 ; _printf_charcount + 148
        0x00000728:    12190043    C...    AND      w3,w2,#0x80
        0x0000072c:    7100007f    ...q    CMP      w3,#0
        0x00000730:    54000081    ...T    B.NE     0x740 ; _printf_charcount + 124
        0x00000734:    121a0042    B...    AND      w2,w2,#0x40
        0x00000738:    7100005f    _..q    CMP      w2,#0
        0x0000073c:    540000a0    ...T    B.EQ     0x750 ; _printf_charcount + 140
        0x00000740:    b9403400    .4@.    LDR      w0,[x0,#0x34]
        0x00000744:    93407c00    .|@.    SXTW     x0,w0
        0x00000748:    f9000020     ...    STR      x0,[x1,#0]
        0x0000074c:    14000003    ....    B        0x758 ; _printf_charcount + 148
        0x00000750:    b9403400    .4@.    LDR      w0,[x0,#0x34]
        0x00000754:    b9000020     ...    STR      w0,[x1,#0]
        0x00000758:    52800020     ..R    MOV      w0,#1
        0x0000075c:    d65f03c0    .._.    RET      
    .text
    _printf_char_file
        0x00000760:    d10103ff    ....    SUB      sp,sp,#0x40
        0x00000764:    a9037bfd    .{..    STP      x29,x30,[sp,#0x30]
        0x00000768:    9100c3fd    ....    ADD      x29,sp,#0x30
        0x0000076c:    a90253f3    .S..    STP      x19,x20,[sp,#0x20]
        0x00000770:    aa0003f4    ....    MOV      x20,x0
        0x00000774:    aa0103f3    ....    MOV      x19,x1
        0x00000778:    aa0203e1    ....    MOV      x1,x2
        0x0000077c:    d2800402    ....    MOV      x2,#0x20
        0x00000780:    910003e0    ....    MOV      x0,sp
        0x00000784:    9400022d    -...    BL       __aeabi_memcpy4 ; 0x1038
        0x00000788:    58000203    ...X    LDR      x3,{pc}+0x40 ; 0x7c8 ; [0x7c8] = 
        0x0000078c:    910003e2    ....    MOV      x2,sp
        0x00000790:    aa1303e1    ....    MOV      x1,x19
        0x00000794:    aa1403e0    ....    MOV      x0,x20
        0x00000798:    94000640    @...    BL       _printf_char_common ; 0x2098
        0x0000079c:    2a0003f4    ...*    MOV      w20,w0
        0x000007a0:    aa1303e0    ....    MOV      x0,x19
        0x000007a4:    940006c2    ....    BL       ferror ; 0x22ac
        0x000007a8:    7100001f    ...q    CMP      w0,#0
        0x000007ac:    12800000    ....    MOV      w0,#0xffffffff
        0x000007b0:    1a941000    ....    CSEL     w0,w0,w20,NE
        0x000007b4:    a94253f3    .SB.    LDP      x19,x20,[sp,#0x20]
        0x000007b8:    a9437bfd    .{C.    LDP      x29,x30,[sp,#0x30]
        0x000007bc:    910103ff    ....    ADD      sp,sp,#0x40
        0x000007c0:    d65f03c0    .._.    RET      
    $d
        0x000007c4:    00000000    ....    DCD    0
        0x000007c8:    00007850    Px..    DCD    30800
        0x000007cc:    00000000    ....    DCD    0
    $x
    .text
    _printf_wctomb
        0x000007d0:    d10183ff    ....    SUB      sp,sp,#0x60
        0x000007d4:    a9057bfd    .{..    STP      x29,x30,[sp,#0x50]
        0x000007d8:    910143fd    .C..    ADD      x29,sp,#0x50
        0x000007dc:    a9046bf9    .k..    STP      x25,x26,[sp,#0x40]
        0x000007e0:    a90363f7    .c..    STP      x23,x24,[sp,#0x30]
        0x000007e4:    a9025bf5    .[..    STP      x21,x22,[sp,#0x20]
        0x000007e8:    a90153f3    .S..    STP      x19,x20,[sp,#0x10]
        0x000007ec:    aa0003f3    ....    MOV      x19,x0
        0x000007f0:    aa0103f8    ....    MOV      x24,x1
        0x000007f4:    2a0203f4    ...*    MOV      w20,w2
        0x000007f8:    580009d5    ...X    LDR      x21,{pc}+0x138 ; 0x930 ; [0x930] = 
        0x000007fc:    aa1503e0    ....    MOV      x0,x21
        0x00000800:    b9400001    ..@.    LDR      w1,[x0,#0]
        0x00000804:    b94006a0    ..@.    LDR      w0,[x21,#4]
        0x00000808:    52800017    ...R    MOV      w23,#0
        0x0000080c:    2a1703f6    ...*    MOV      w22,w23
        0x00000810:    290003e1    ...)    STP      w1,w0,[sp,#0]
        0x00000814:    14000011    ....    B        0x858 ; _printf_wctomb + 136
        0x00000818:    b876db01    ..v.    LDR      w1,[x24,w22,SXTW #2]
        0x0000081c:    910003e2    ....    MOV      x2,sp
        0x00000820:    910023e0    .#..    ADD      x0,sp,#8
        0x00000824:    94000731    1...    BL       _c32rtomb ; 0x24e8
        0x00000828:    b100041f    ....    CMN      x0,#1
        0x0000082c:    54000140    @..T    B.EQ     0x854 ; _printf_wctomb + 132
        0x00000830:    b9400261    a.@.    LDR      w1,[x19,#0]
        0x00000834:    121b0021    !...    AND      w1,w1,#0x20
        0x00000838:    7100003f    ?..q    CMP      w1,#0
        0x0000083c:    540000a0    ...T    B.EQ     0x850 ; _printf_wctomb + 128
        0x00000840:    8b37c001    ..7.    ADD      x1,x0,w23,SXTW
        0x00000844:    b9403262    b2@.    LDR      w2,[x19,#0x30]
        0x00000848:    eb22c03f    ?.".    CMP      x1,w2,SXTW
        0x0000084c:    540001e8    ...T    B.HI     0x888 ; _printf_wctomb + 184
        0x00000850:    0b0002f7    ....    ADD      w23,w23,w0
        0x00000854:    110006d6    ....    ADD      w22,w22,#1
        0x00000858:    b9400260    `.@.    LDR      w0,[x19,#0]
        0x0000085c:    121b0000    ....    AND      w0,w0,#0x20
        0x00000860:    7100001f    ...q    CMP      w0,#0
        0x00000864:    54000080    ...T    B.EQ     0x874 ; _printf_wctomb + 164
        0x00000868:    b9403260    `2@.    LDR      w0,[x19,#0x30]
        0x0000086c:    6b17001f    ...k    CMP      w0,w23
        0x00000870:    540000cd    ...T    B.LE     0x888 ; _printf_wctomb + 184
        0x00000874:    6b1402df    ...k    CMP      w22,w20
        0x00000878:    54fffd0b    ...T    B.LT     0x818 ; _printf_wctomb + 72
        0x0000087c:    b876db00    ..v.    LDR      w0,[x24,w22,SXTW #2]
        0x00000880:    7100001f    ...q    CMP      w0,#0
        0x00000884:    54fffca1    ...T    B.NE     0x818 ; _printf_wctomb + 72
        0x00000888:    b9402e60    `.@.    LDR      w0,[x19,#0x2c]
        0x0000088c:    4b170000    ...K    SUB      w0,w0,w23
        0x00000890:    b9002e60    `...    STR      w0,[x19,#0x2c]
        0x00000894:    aa1303e0    ....    MOV      x0,x19
        0x00000898:    97fffebd    ....    BL       _printf_pre_padding ; 0x38c
        0x0000089c:    294006a0    ..@)    LDP      w0,w1,[x21,#0]
        0x000008a0:    52800019    ...R    MOV      w25,#0
        0x000008a4:    290007e0    ...)    STP      w0,w1,[sp,#0]
        0x000008a8:    14000013    ....    B        0x8f4 ; _printf_wctomb + 292
        0x000008ac:    b879db01    ..y.    LDR      w1,[x24,w25,SXTW #2]
        0x000008b0:    910003e2    ....    MOV      x2,sp
        0x000008b4:    910023e0    .#..    ADD      x0,sp,#8
        0x000008b8:    9400070c    ....    BL       _c32rtomb ; 0x24e8
        0x000008bc:    aa0003f5    ....    MOV      x21,x0
        0x000008c0:    b10006bf    ....    CMN      x21,#1
        0x000008c4:    54000160    `..T    B.EQ     0x8f0 ; _printf_wctomb + 288
        0x000008c8:    52800014    ...R    MOV      w20,#0
        0x000008cc:    910023fa    .#..    ADD      x26,sp,#8
        0x000008d0:    14000006    ....    B        0x8e8 ; _printf_wctomb + 280
        0x000008d4:    f9400a61    a.@.    LDR      x1,[x19,#0x10]
        0x000008d8:    3874db40    @.t8    LDRB     w0,[x26,w20,SXTW #0]
        0x000008dc:    f9400662    b.@.    LDR      x2,[x19,#8]
        0x000008e0:    d63f0040    @.?.    BLR      x2
        0x000008e4:    11000694    ....    ADD      w20,w20,#1
        0x000008e8:    eb34c2bf    ..4.    CMP      x21,w20,SXTW
        0x000008ec:    54ffff48    H..T    B.HI     0x8d4 ; _printf_wctomb + 260
        0x000008f0:    11000739    9...    ADD      w25,w25,#1
        0x000008f4:    6b16033f    ?..k    CMP      w25,w22
        0x000008f8:    54fffdab    ...T    B.LT     0x8ac ; _printf_wctomb + 220
        0x000008fc:    b9403660    `6@.    LDR      w0,[x19,#0x34]
        0x00000900:    0b170000    ....    ADD      w0,w0,w23
        0x00000904:    b9003660    `6..    STR      w0,[x19,#0x34]
        0x00000908:    aa1303e0    ....    MOV      x0,x19
        0x0000090c:    97fffec3    ....    BL       _printf_post_padding ; 0x418
        0x00000910:    a94153f3    .SA.    LDP      x19,x20,[sp,#0x10]
        0x00000914:    a9425bf5    .[B.    LDP      x21,x22,[sp,#0x20]
        0x00000918:    a94363f7    .cC.    LDP      x23,x24,[sp,#0x30]
        0x0000091c:    a9446bf9    .kD.    LDP      x25,x26,[sp,#0x40]
        0x00000920:    a9457bfd    .{E.    LDP      x29,x30,[sp,#0x50]
        0x00000924:    910183ff    ....    ADD      sp,sp,#0x60
        0x00000928:    d65f03c0    .._.    RET      
    $d
        0x0000092c:    00000000    ....    DCD    0
        0x00000930:    00007a7c    |z..    DCD    31356
        0x00000934:    00000000    ....    DCD    0
    $x
    .text
    _printf_longlong_dec
        0x00000938:    d10083ff    ....    SUB      sp,sp,#0x20
        0x0000093c:    a9017bfd    .{..    STP      x29,x30,[sp,#0x10]
        0x00000940:    910043fd    .C..    ADD      x29,sp,#0x10
        0x00000944:    b9401844    D.@.    LDR      w4,[x2,#0x18]
        0x00000948:    11002085    . ..    ADD      w5,w4,#8
        0x0000094c:    710000bf    ...q    CMP      w5,#0
        0x00000950:    540000cc    ...T    B.GT     0x968 ; _printf_longlong_dec + 48
        0x00000954:    f9400443    C.@.    LDR      x3,[x2,#8]
        0x00000958:    8b24c063    c.$.    ADD      x3,x3,w4,SXTW
        0x0000095c:    f9400064    d.@.    LDR      x4,[x3,#0]
        0x00000960:    b9001845    E...    STR      w5,[x2,#0x18]
        0x00000964:    14000004    ....    B        0x974 ; _printf_longlong_dec + 60
        0x00000968:    f9400043    C.@.    LDR      x3,[x2,#0]
        0x0000096c:    f8408464    d.@.    LDR      x4,[x3],#8
        0x00000970:    f9000043    C...    STR      x3,[x2,#0]
        0x00000974:    10000502    ....    ADR      x2,{pc}+0xa0 ; 0xa14
        0x00000978:    52800003    ...R    MOV      w3,#0
        0x0000097c:    7103d43f    ?..q    CMP      w1,#0xf5
        0x00000980:    54000220     ..T    B.EQ     0x9c4 ; _printf_longlong_dec + 140
        0x00000984:    f100009f    ....    CMP      x4,#0
        0x00000988:    5400008a    ...T    B.GE     0x998 ; _printf_longlong_dec + 96
        0x0000098c:    cb0403e4    ....    NEG      x4,x4
        0x00000990:    10000442    B...    ADR      x2,{pc}+0x88 ; 0xa18
        0x00000994:    1400000b    ....    B        0x9c0 ; _printf_longlong_dec + 136
        0x00000998:    b9400001    ..@.    LDR      w1,[x0,#0]
        0x0000099c:    121f0025    %...    AND      w5,w1,#2
        0x000009a0:    710000bf    ...q    CMP      w5,#0
        0x000009a4:    54000060    `..T    B.EQ     0x9b0 ; _printf_longlong_dec + 120
        0x000009a8:    100003a2    ....    ADR      x2,{pc}+0x74 ; 0xa1c
        0x000009ac:    14000005    ....    B        0x9c0 ; _printf_longlong_dec + 136
        0x000009b0:    121e0021    !...    AND      w1,w1,#4
        0x000009b4:    7100003f    ?..q    CMP      w1,#0
        0x000009b8:    54000060    `..T    B.EQ     0x9c4 ; _printf_longlong_dec + 140
        0x000009bc:    10000322    "...    ADR      x2,{pc}+0x64 ; 0xa20
        0x000009c0:    52800023    #..R    MOV      w3,#1
        0x000009c4:    52800001    ...R    MOV      w1,#0
        0x000009c8:    9100e007    ....    ADD      x7,x0,#0x38
        0x000009cc:    d2800149    I...    MOV      x9,#0xa
        0x000009d0:    1400000c    ....    B        0xa00 ; _printf_longlong_dec + 200
        0x000009d4:    aa0903e6    ....    MOV      x6,x9
        0x000009d8:    9ac90885    ....    UDIV     x5,x4,x9
        0x000009dc:    f90003e5    ....    STR      x5,[sp,#0]
        0x000009e0:    9ac60888    ....    UDIV     x8,x4,x6
        0x000009e4:    9b0890c4    ....    MSUB     x4,x6,x8,x4
        0x000009e8:    f90007e4    ....    STR      x4,[sp,#8]
        0x000009ec:    1100c084    ....    ADD      w4,w4,#0x30
        0x000009f0:    2a0103e6    ...*    MOV      w6,w1
        0x000009f4:    11000421    !...    ADD      w1,w1,#1
        0x000009f8:    3826d8e4    ..&8    STRB     w4,[x7,w6,SXTW #0]
        0x000009fc:    aa0503e4    ....    MOV      x4,x5
        0x00000a00:    f100009f    ....    CMP      x4,#0
        0x00000a04:    54fffe81    ...T    B.NE     0x9d4 ; _printf_longlong_dec + 156
        0x00000a08:    a9417bfd    .{A.    LDP      x29,x30,[sp,#0x10]
        0x00000a0c:    910083ff    ....    ADD      sp,sp,#0x20
        0x00000a10:    140001fd    ....    B        _printf_int_common ; 0x1204
    $d
        0x00000a14:    00000000    ....    DCD    0
        0x00000a18:    0000002d    -...    DCD    45
        0x00000a1c:    0000002b    +...    DCD    43
        0x00000a20:    00000020     ...    DCD    32
    $x
    .text
    _printf_longlong_oct_internal
    _printf_longlong_oct
        0x00000a24:    52800004    ...R    MOV      w4,#0
        0x00000a28:    9100e002    ....    ADD      x2,x0,#0x38
        0x00000a2c:    14000007    ....    B        0xa48 ; _printf_longlong_oct_internal + 36
        0x00000a30:    12000823    #...    AND      w3,w1,#7
        0x00000a34:    1100c065    e...    ADD      w5,w3,#0x30
        0x00000a38:    2a0403e3    ...*    MOV      w3,w4
        0x00000a3c:    11000484    ....    ADD      w4,w4,#1
        0x00000a40:    3823d845    E.#8    STRB     w5,[x2,w3,SXTW #0]
        0x00000a44:    d343fc21    !.C.    LSR      x1,x1,#3
        0x00000a48:    f100003f    ?...    CMP      x1,#0
        0x00000a4c:    54ffff21    !..T    B.NE     0xa30 ; _printf_longlong_oct_internal + 12
        0x00000a50:    10000722    "...    ADR      x2,{pc}+0xe4 ; 0xb34
        0x00000a54:    52800003    ...R    MOV      w3,#0
        0x00000a58:    b9400001    ..@.    LDR      w1,[x0,#0]
        0x00000a5c:    121d0025    %...    AND      w5,w1,#8
        0x00000a60:    710000bf    ...q    CMP      w5,#0
        0x00000a64:    54000140    @..T    B.EQ     0xa8c ; _printf_longlong_oct_internal + 104
        0x00000a68:    121b0021    !...    AND      w1,w1,#0x20
        0x00000a6c:    2a040021    !..*    ORR      w1,w1,w4
        0x00000a70:    7100003f    ?..q    CMP      w1,#0
        0x00000a74:    540000c0    ...T    B.EQ     0xa8c ; _printf_longlong_oct_internal + 104
        0x00000a78:    10000602    ....    ADR      x2,{pc}+0xc0 ; 0xb38
        0x00000a7c:    52800023    #..R    MOV      w3,#1
        0x00000a80:    b9403001    .0@.    LDR      w1,[x0,#0x30]
        0x00000a84:    51000421    !..Q    SUB      w1,w1,#1
        0x00000a88:    b9003001    .0..    STR      w1,[x0,#0x30]
        0x00000a8c:    2a0403e1    ...*    MOV      w1,w4
        0x00000a90:    140001dd    ....    B        _printf_int_common ; 0x1204
    _printf_int_oct
        0x00000a94:    d10083ff    ....    SUB      sp,sp,#0x20
        0x00000a98:    f9000bfe    ....    STR      x30,[sp,#0x10]
        0x00000a9c:    a90077f3    .w..    STP      x19,x29,[sp,#0]
        0x00000aa0:    910023fd    .#..    ADD      x29,sp,#8
        0x00000aa4:    aa0003f3    ....    MOV      x19,x0
        0x00000aa8:    b9401843    C.@.    LDR      w3,[x2,#0x18]
        0x00000aac:    11002061    a ..    ADD      w1,w3,#8
        0x00000ab0:    7100003f    ?..q    CMP      w1,#0
        0x00000ab4:    540000cc    ...T    B.GT     0xacc ; _printf_int_oct + 56
        0x00000ab8:    f9400440    @.@.    LDR      x0,[x2,#8]
        0x00000abc:    8b23c000    ..#.    ADD      x0,x0,w3,SXTW
        0x00000ac0:    b9400004    ..@.    LDR      w4,[x0,#0]
        0x00000ac4:    b9001841    A...    STR      w1,[x2,#0x18]
        0x00000ac8:    14000005    ....    B        0xadc ; _printf_int_oct + 72
        0x00000acc:    f9400043    C.@.    LDR      x3,[x2,#0]
        0x00000ad0:    b9400064    d.@.    LDR      w4,[x3,#0]
        0x00000ad4:    91002060    ` ..    ADD      x0,x3,#8
        0x00000ad8:    f9000040    @...    STR      x0,[x2,#0]
        0x00000adc:    2a0403e0    ...*    MOV      w0,w4
        0x00000ae0:    aa1303e1    ....    MOV      x1,x19
        0x00000ae4:    97fffe73    s...    BL       _printf_truncate_unsigned ; 0x4b0
        0x00000ae8:    d3407c01    .|@.    UBFX     x1,x0,#0,#32
        0x00000aec:    aa1303e0    ....    MOV      x0,x19
        0x00000af0:    a94077f3    .w@.    LDP      x19,x29,[sp,#0]
        0x00000af4:    f9400bfe    ..@.    LDR      x30,[sp,#0x10]
        0x00000af8:    910083ff    ....    ADD      sp,sp,#0x20
        0x00000afc:    17ffffca    ....    B        _printf_longlong_oct_internal ; 0xa24
    _printf_ll_oct
        0x00000b00:    b9401844    D.@.    LDR      w4,[x2,#0x18]
        0x00000b04:    11002083    . ..    ADD      w3,w4,#8
        0x00000b08:    7100007f    ...q    CMP      w3,#0
        0x00000b0c:    540000cc    ...T    B.GT     0xb24 ; _printf_ll_oct + 36
        0x00000b10:    f9400441    A.@.    LDR      x1,[x2,#8]
        0x00000b14:    8b24c021    !.$.    ADD      x1,x1,w4,SXTW
        0x00000b18:    f9400021    !.@.    LDR      x1,[x1,#0]
        0x00000b1c:    b9001843    C...    STR      w3,[x2,#0x18]
        0x00000b20:    14000004    ....    B        0xb30 ; _printf_ll_oct + 48
        0x00000b24:    f9400043    C.@.    LDR      x3,[x2,#0]
        0x00000b28:    f8408461    a.@.    LDR      x1,[x3],#8
        0x00000b2c:    f9000043    C...    STR      x3,[x2,#0]
        0x00000b30:    17ffffbd    ....    B        _printf_longlong_oct_internal ; 0xa24
    $d
        0x00000b34:    00000000    ....    DCD    0
        0x00000b38:    00000030    0...    DCD    48
        0x00000b3c:    00000000    ....    DCD    0
    $x
    .text
    _printf_hex_common
    _printf_longlong_hex
        0x00000b40:    2a0103e6    ...*    MOV      w6,w1
        0x00000b44:    b9400001    ..@.    LDR      w1,[x0,#0]
        0x00000b48:    12150021    !...    AND      w1,w1,#0x800
        0x00000b4c:    7100003f    ?..q    CMP      w1,#0
        0x00000b50:    54000060    `..T    B.EQ     0xb5c ; _printf_hex_common + 28
        0x00000b54:    58000ba4    ...X    LDR      x4,{pc}+0x174 ; 0xcc8 ; [0xcc8] = 
        0x00000b58:    14000002    ....    B        0xb60 ; _printf_hex_common + 32
        0x00000b5c:    58000ba4    ...X    LDR      x4,{pc}+0x174 ; 0xcd0 ; [0xcd0] = 
        0x00000b60:    52800001    ...R    MOV      w1,#0
        0x00000b64:    9100e003    ....    ADD      x3,x0,#0x38
        0x00000b68:    14000007    ....    B        0xb84 ; _printf_hex_common + 68
        0x00000b6c:    12000c45    E...    AND      w5,w2,#0xf
        0x00000b70:    3865d887    ..e8    LDRB     w7,[x4,w5,SXTW #0]
        0x00000b74:    2a0103e5    ...*    MOV      w5,w1
        0x00000b78:    11000421    !...    ADD      w1,w1,#1
        0x00000b7c:    3825d867    g.%8    STRB     w7,[x3,w5,SXTW #0]
        0x00000b80:    d344fc42    B.D.    LSR      x2,x2,#4
        0x00000b84:    f100005f    _...    CMP      x2,#0
        0x00000b88:    54ffff21    !..T    B.NE     0xb6c ; _printf_hex_common + 44
        0x00000b8c:    52800003    ...R    MOV      w3,#0
        0x00000b90:    b9400002    ..@.    LDR      w2,[x0,#0]
        0x00000b94:    121d0042    B...    AND      w2,w2,#8
        0x00000b98:    7100005f    _..q    CMP      w2,#0
        0x00000b9c:    540000e0    ...T    B.EQ     0xbb8 ; _printf_hex_common + 120
        0x00000ba0:    7101c0df    ...q    CMP      w6,#0x70
        0x00000ba4:    540000e0    ...T    B.EQ     0xbc0 ; _printf_hex_common + 128
        0x00000ba8:    7100003f    ?..q    CMP      w1,#0
        0x00000bac:    54000060    `..T    B.EQ     0xbb8 ; _printf_hex_common + 120
        0x00000bb0:    91004484    .D..    ADD      x4,x4,#0x11
        0x00000bb4:    52800043    C..R    MOV      w3,#2
        0x00000bb8:    aa0403e2    ....    MOV      x2,x4
        0x00000bbc:    14000192    ....    B        _printf_int_common ; 0x1204
        0x00000bc0:    91004084    .@..    ADD      x4,x4,#0x10
        0x00000bc4:    52800023    #..R    MOV      w3,#1
        0x00000bc8:    17fffffc    ....    B        0xbb8 ; _printf_hex_common + 120
    _printf_int_hex
        0x00000bcc:    d10083ff    ....    SUB      sp,sp,#0x20
        0x00000bd0:    a9017bfd    .{..    STP      x29,x30,[sp,#0x10]
        0x00000bd4:    910043fd    .C..    ADD      x29,sp,#0x10
        0x00000bd8:    a90053f3    .S..    STP      x19,x20,[sp,#0]
        0x00000bdc:    aa0003f4    ....    MOV      x20,x0
        0x00000be0:    2a0103f3    ...*    MOV      w19,w1
        0x00000be4:    b9401843    C.@.    LDR      w3,[x2,#0x18]
        0x00000be8:    11002061    a ..    ADD      w1,w3,#8
        0x00000bec:    7100003f    ?..q    CMP      w1,#0
        0x00000bf0:    540000cc    ...T    B.GT     0xc08 ; _printf_int_hex + 60
        0x00000bf4:    f9400440    @.@.    LDR      x0,[x2,#8]
        0x00000bf8:    8b23c000    ..#.    ADD      x0,x0,w3,SXTW
        0x00000bfc:    b9400003    ..@.    LDR      w3,[x0,#0]
        0x00000c00:    b9001841    A...    STR      w1,[x2,#0x18]
        0x00000c04:    14000005    ....    B        0xc18 ; _printf_int_hex + 76
        0x00000c08:    f9400041    A.@.    LDR      x1,[x2,#0]
        0x00000c0c:    b9400023    #.@.    LDR      w3,[x1,#0]
        0x00000c10:    91002020      ..    ADD      x0,x1,#8
        0x00000c14:    f9000040    @...    STR      x0,[x2,#0]
        0x00000c18:    2a0303e0    ...*    MOV      w0,w3
        0x00000c1c:    aa1403e1    ....    MOV      x1,x20
        0x00000c20:    97fffe24    $...    BL       _printf_truncate_unsigned ; 0x4b0
        0x00000c24:    d3407c02    .|@.    UBFX     x2,x0,#0,#32
        0x00000c28:    2a1303e1    ...*    MOV      w1,w19
        0x00000c2c:    aa1403e0    ....    MOV      x0,x20
        0x00000c30:    a94053f3    .S@.    LDP      x19,x20,[sp,#0]
        0x00000c34:    a9417bfd    .{A.    LDP      x29,x30,[sp,#0x10]
        0x00000c38:    910083ff    ....    ADD      sp,sp,#0x20
        0x00000c3c:    17ffffc1    ....    B        _printf_hex_common ; 0xb40
    _printf_ll_hex
        0x00000c40:    b9401845    E.@.    LDR      w5,[x2,#0x18]
        0x00000c44:    110020a4    . ..    ADD      w4,w5,#8
        0x00000c48:    7100009f    ...q    CMP      w4,#0
        0x00000c4c:    540000cc    ...T    B.GT     0xc64 ; _printf_ll_hex + 36
        0x00000c50:    f9400443    C.@.    LDR      x3,[x2,#8]
        0x00000c54:    8b25c063    c.%.    ADD      x3,x3,w5,SXTW
        0x00000c58:    f9400063    c.@.    LDR      x3,[x3,#0]
        0x00000c5c:    b9001844    D...    STR      w4,[x2,#0x18]
        0x00000c60:    14000004    ....    B        0xc70 ; _printf_ll_hex + 48
        0x00000c64:    f9400044    D.@.    LDR      x4,[x2,#0]
        0x00000c68:    f8408483    ..@.    LDR      x3,[x4],#8
        0x00000c6c:    f9000044    D...    STR      x4,[x2,#0]
        0x00000c70:    aa0303e2    ....    MOV      x2,x3
        0x00000c74:    17ffffb3    ....    B        _printf_hex_common ; 0xb40
    _printf_hex_ptr
        0x00000c78:    b9401844    D.@.    LDR      w4,[x2,#0x18]
        0x00000c7c:    11002085    . ..    ADD      w5,w4,#8
        0x00000c80:    710000bf    ...q    CMP      w5,#0
        0x00000c84:    540000cc    ...T    B.GT     0xc9c ; _printf_hex_ptr + 36
        0x00000c88:    f9400443    C.@.    LDR      x3,[x2,#8]
        0x00000c8c:    8b24c063    c.$.    ADD      x3,x3,w4,SXTW
        0x00000c90:    f9400063    c.@.    LDR      x3,[x3,#0]
        0x00000c94:    b9001845    E...    STR      w5,[x2,#0x18]
        0x00000c98:    14000004    ....    B        0xca8 ; _printf_hex_ptr + 48
        0x00000c9c:    f9400044    D.@.    LDR      x4,[x2,#0]
        0x00000ca0:    f8408483    ..@.    LDR      x3,[x4],#8
        0x00000ca4:    f9000044    D...    STR      x4,[x2,#0]
        0x00000ca8:    aa0303e2    ....    MOV      x2,x3
        0x00000cac:    b9400003    ..@.    LDR      w3,[x0,#0]
        0x00000cb0:    52801404    ...R    MOV      w4,#0xa0
        0x00000cb4:    2a040063    c..*    ORR      w3,w3,w4
        0x00000cb8:    b9000003    ....    STR      w3,[x0,#0]
        0x00000cbc:    52800203    ...R    MOV      w3,#0x10
        0x00000cc0:    b9003003    .0..    STR      w3,[x0,#0x30]
        0x00000cc4:    17ffff9f    ....    B        _printf_hex_common ; 0xb40
    $d
        0x00000cc8:    00007a84    .z..    DCD    31364
        0x00000ccc:    00000000    ....    DCD    0
        0x00000cd0:    00007a98    .z..    DCD    31384
        0x00000cd4:    00000000    ....    DCD    0
    $x
    .text
    __printf
        0x00000cd8:    d10203ff    ....    SUB      sp,sp,#0x80
        0x00000cdc:    f9003bfe    .;..    STR      x30,[sp,#0x70]
        0x00000ce0:    a90677fb    .w..    STP      x27,x29,[sp,#0x60]
        0x00000ce4:    9101a3fd    ....    ADD      x29,sp,#0x68
        0x00000ce8:    a9056bf9    .k..    STP      x25,x26,[sp,#0x50]
        0x00000cec:    a90463f7    .c..    STP      x23,x24,[sp,#0x40]
        0x00000cf0:    a9035bf5    .[..    STP      x21,x22,[sp,#0x30]
        0x00000cf4:    a90253f3    .S..    STP      x19,x20,[sp,#0x20]
        0x00000cf8:    aa0003f3    ....    MOV      x19,x0
        0x00000cfc:    aa0103f4    ....    MOV      x20,x1
        0x00000d00:    52800019    ...R    MOV      w25,#0
        0x00000d04:    b9003679    y6..    STR      w25,[x19,#0x34]
        0x00000d08:    5800195b    [..X    LDR      x27,{pc}+0x328 ; 0x1030 ; [0x1030] = 
        0x00000d0c:    f9400e61    a.@.    LDR      x1,[x19,#0x18]
        0x00000d10:    aa1303e0    ....    MOV      x0,x19
        0x00000d14:    d63f0020     .?.    BLR      x1
        0x00000d18:    7100001f    ...q    CMP      w0,#0
        0x00000d1c:    54001760    `..T    B.EQ     0x1008 ; __printf + 816
        0x00000d20:    7100941f    ...q    CMP      w0,#0x25
        0x00000d24:    54000080    ...T    B.EQ     0xd34 ; __printf + 92
        0x00000d28:    f9400a61    a.@.    LDR      x1,[x19,#0x10]
        0x00000d2c:    f9400662    b.@.    LDR      x2,[x19,#8]
        0x00000d30:    140000b1    ....    B        0xff4 ; __printf + 796
        0x00000d34:    52800016    ...R    MOV      w22,#0
        0x00000d38:    d2800637    7...    MOV      x23,#0x31
        0x00000d3c:    aa1b03f8    ....    MOV      x24,x27
        0x00000d40:    f9400e61    a.@.    LDR      x1,[x19,#0x18]
        0x00000d44:    aa1303e0    ....    MOV      x0,x19
        0x00000d48:    d63f0020     .?.    BLR      x1
        0x00000d4c:    2a0003f5    ...*    MOV      w21,w0
        0x00000d50:    7100801f    ...q    CMP      w0,#0x20
        0x00000d54:    5400012b    +..T    B.LT     0xd78 ; __printf + 160
        0x00000d58:    eb35c2ff    ..5.    CMP      x23,w21,SXTW
        0x00000d5c:    540000e9    ...T    B.LS     0xd78 ; __printf + 160
        0x00000d60:    510082a1    ...Q    SUB      w1,w21,#0x20
        0x00000d64:    3861db00    ..a8    LDRB     w0,[x24,w1,SXTW #0]
        0x00000d68:    7100001f    ...q    CMP      w0,#0
        0x00000d6c:    54000060    `..T    B.EQ     0xd78 ; __printf + 160
        0x00000d70:    2a160016    ...*    ORR      w22,w0,w22
        0x00000d74:    17fffff3    ....    B        0xd40 ; __printf + 104
        0x00000d78:    121f02c0    ....    AND      w0,w22,#2
        0x00000d7c:    7100001f    ...q    CMP      w0,#0
        0x00000d80:    54000040    @..T    B.EQ     0xd88 ; __printf + 176
        0x00000d84:    121d7ad6    .z..    AND      w22,w22,#0xfffffffb
        0x00000d88:    b9003279    y2..    STR      w25,[x19,#0x30]
        0x00000d8c:    b9002e79    y...    STR      w25,[x19,#0x2c]
        0x00000d90:    52800017    ...R    MOV      w23,#0
        0x00000d94:    7100aabf    ...q    CMP      w21,#0x2a
        0x00000d98:    54000140    @..T    B.EQ     0xdc0 ; __printf + 232
        0x00000d9c:    2a1503e0    ...*    MOV      w0,w21
        0x00000da0:    94001aa8    ....    BL       _is_digit ; 0x7840
        0x00000da4:    7100001f    ...q    CMP      w0,#0
        0x00000da8:    54000580    ...T    B.EQ     0xe58 ; __printf + 384
        0x00000dac:    5100c2a0    ...Q    SUB      w0,w21,#0x30
        0x00000db0:    8b37ca7a    z.7.    ADD      x26,x19,w23,SXTW #2
        0x00000db4:    b9002f40    @/..    STR      w0,[x26,#0x2c]
        0x00000db8:    528000b8    ...R    MOV      w24,#5
        0x00000dbc:    14000020     ...    B        0xe3c ; __printf + 356
        0x00000dc0:    b9401a81    ..@.    LDR      w1,[x20,#0x18]
        0x00000dc4:    11002022    " ..    ADD      w2,w1,#8
        0x00000dc8:    7100005f    _..q    CMP      w2,#0
        0x00000dcc:    540000cc    ...T    B.GT     0xde4 ; __printf + 268
        0x00000dd0:    f9400680    ..@.    LDR      x0,[x20,#8]
        0x00000dd4:    8b21c000    ..!.    ADD      x0,x0,w1,SXTW
        0x00000dd8:    b9400001    ..@.    LDR      w1,[x0,#0]
        0x00000ddc:    b9001a82    ....    STR      w2,[x20,#0x18]
        0x00000de0:    14000004    ....    B        0xdf0 ; __printf + 280
        0x00000de4:    f9400280    ..@.    LDR      x0,[x20,#0]
        0x00000de8:    b8408401    ..@.    LDR      w1,[x0],#8
        0x00000dec:    f9000280    ....    STR      x0,[x20,#0]
        0x00000df0:    8b37ca60    `.7.    ADD      x0,x19,w23,SXTW #2
        0x00000df4:    b9002c01    .,..    STR      w1,[x0,#0x2c]
        0x00000df8:    f9400e61    a.@.    LDR      x1,[x19,#0x18]
        0x00000dfc:    aa1303e0    ....    MOV      x0,x19
        0x00000e00:    d63f0020     .?.    BLR      x1
        0x00000e04:    2a0003f5    ...*    MOV      w21,w0
        0x00000e08:    710006ff    ...q    CMP      w23,#1
        0x00000e0c:    540002a1    ...T    B.NE     0xe60 ; __printf + 392
        0x00000e10:    8b37ca60    `.7.    ADD      x0,x19,w23,SXTW #2
        0x00000e14:    b9402c00    .,@.    LDR      w0,[x0,#0x2c]
        0x00000e18:    7100001f    ...q    CMP      w0,#0
        0x00000e1c:    5400036a    j..T    B.GE     0xe88 ; __printf + 432
        0x00000e20:    121a7ad6    .z..    AND      w22,w22,#0xffffffdf
        0x00000e24:    14000019    ....    B        0xe88 ; __printf + 432
        0x00000e28:    b9402f40    @/@.    LDR      w0,[x26,#0x2c]
        0x00000e2c:    1b187c00    .|..    MUL      w0,w0,w24
        0x00000e30:    0b0006a0    ....    ADD      w0,w21,w0,LSL #1
        0x00000e34:    5100c000    ...Q    SUB      w0,w0,#0x30
        0x00000e38:    b9002f40    @/..    STR      w0,[x26,#0x2c]
        0x00000e3c:    f9400e61    a.@.    LDR      x1,[x19,#0x18]
        0x00000e40:    aa1303e0    ....    MOV      x0,x19
        0x00000e44:    d63f0020     .?.    BLR      x1
        0x00000e48:    2a0003f5    ...*    MOV      w21,w0
        0x00000e4c:    94001a7d    }...    BL       _is_digit ; 0x7840
        0x00000e50:    7100001f    ...q    CMP      w0,#0
        0x00000e54:    54fffea1    ...T    B.NE     0xe28 ; __printf + 336
        0x00000e58:    710006ff    ...q    CMP      w23,#1
        0x00000e5c:    54000160    `..T    B.EQ     0xe88 ; __printf + 432
        0x00000e60:    7100babf    ...q    CMP      w21,#0x2e
        0x00000e64:    54000121    !..T    B.NE     0xe88 ; __printf + 432
        0x00000e68:    f9400e61    a.@.    LDR      x1,[x19,#0x18]
        0x00000e6c:    aa1303e0    ....    MOV      x0,x19
        0x00000e70:    d63f0020     .?.    BLR      x1
        0x00000e74:    2a0003f5    ...*    MOV      w21,w0
        0x00000e78:    321b02d6    ...2    ORR      w22,w22,#0x20
        0x00000e7c:    110006f7    ....    ADD      w23,w23,#1
        0x00000e80:    71000aff    ...q    CMP      w23,#2
        0x00000e84:    54fff88b    ...T    B.LT     0xd94 ; __printf + 188
        0x00000e88:    b9402e60    `.@.    LDR      w0,[x19,#0x2c]
        0x00000e8c:    7100001f    ...q    CMP      w0,#0
        0x00000e90:    5400008a    ...T    B.GE     0xea0 ; __printf + 456
        0x00000e94:    4b0003e0    ...K    NEG      w0,w0
        0x00000e98:    b9002e60    `...    STR      w0,[x19,#0x2c]
        0x00000e9c:    320002d6    ...2    ORR      w22,w22,#1
        0x00000ea0:    120002c0    ....    AND      w0,w22,#1
        0x00000ea4:    7100001f    ...q    CMP      w0,#0
        0x00000ea8:    54000040    @..T    B.EQ     0xeb0 ; __printf + 472
        0x00000eac:    121b7ad6    .z..    AND      w22,w22,#0xffffffef
        0x00000eb0:    7101b2bf    ...q    CMP      w21,#0x6c
        0x00000eb4:    54000180    ...T    B.EQ     0xee4 ; __printf + 524
        0x00000eb8:    7101a2bf    ...q    CMP      w21,#0x68
        0x00000ebc:    54000140    @..T    B.EQ     0xee4 ; __printf + 524
        0x00000ec0:    710132bf    .2.q    CMP      w21,#0x4c
        0x00000ec4:    54000340    @..T    B.EQ     0xf2c ; __printf + 596
        0x00000ec8:    7101aabf    ...q    CMP      w21,#0x6a
        0x00000ecc:    54000340    @..T    B.EQ     0xf34 ; __printf + 604
        0x00000ed0:    7101d2bf    ...q    CMP      w21,#0x74
        0x00000ed4:    54000340    @..T    B.EQ     0xf3c ; __printf + 612
        0x00000ed8:    7101eabf    ...q    CMP      w21,#0x7a
        0x00000edc:    54000300    ...T    B.EQ     0xf3c ; __printf + 612
        0x00000ee0:    1400001d    ....    B        0xf54 ; __printf + 636
        0x00000ee4:    2a1503f7    ...*    MOV      w23,w21
        0x00000ee8:    f9400e61    a.@.    LDR      x1,[x19,#0x18]
        0x00000eec:    aa1303e0    ....    MOV      x0,x19
        0x00000ef0:    d63f0020     .?.    BLR      x1
        0x00000ef4:    2a0003f5    ...*    MOV      w21,w0
        0x00000ef8:    6b17001f    ...k    CMP      w0,w23
        0x00000efc:    540000c1    ...T    B.NE     0xf14 ; __printf + 572
        0x00000f00:    7101b2ff    ...q    CMP      w23,#0x6c
        0x00000f04:    52801000    ...R    MOV      w0,#0x80
        0x00000f08:    52808001    ...R    MOV      w1,#0x400
        0x00000f0c:    1a810000    ....    CSEL     w0,w0,w1,EQ
        0x00000f10:    1400000c    ....    B        0xf40 ; __printf + 616
        0x00000f14:    7101b2ff    ...q    CMP      w23,#0x6c
        0x00000f18:    52800800    ...R    MOV      w0,#0x40
        0x00000f1c:    52802001    . .R    MOV      w1,#0x100
        0x00000f20:    1a810000    ....    CSEL     w0,w0,w1,EQ
        0x00000f24:    2a160016    ...*    ORR      w22,w0,w22
        0x00000f28:    1400000b    ....    B        0xf54 ; __printf + 636
        0x00000f2c:    52800000    ...R    MOV      w0,#0
        0x00000f30:    14000004    ....    B        0xf40 ; __printf + 616
        0x00000f34:    52801000    ...R    MOV      w0,#0x80
        0x00000f38:    14000002    ....    B        0xf40 ; __printf + 616
        0x00000f3c:    52800800    ...R    MOV      w0,#0x40
        0x00000f40:    2a160016    ...*    ORR      w22,w0,w22
        0x00000f44:    f9400e61    a.@.    LDR      x1,[x19,#0x18]
        0x00000f48:    aa1303e0    ....    MOV      x0,x19
        0x00000f4c:    d63f0020     .?.    BLR      x1
        0x00000f50:    2a0003f5    ...*    MOV      w21,w0
        0x00000f54:    710002bf    ...q    CMP      w21,#0
        0x00000f58:    54000580    ...T    B.EQ     0x1008 ; __printf + 816
        0x00000f5c:    510106a0    ...Q    SUB      w0,w21,#0x41
        0x00000f60:    7100641f    .d.q    CMP      w0,#0x19
        0x00000f64:    54000068    h..T    B.HI     0xf70 ; __printf + 664
        0x00000f68:    321502d6    ...2    ORR      w22,w22,#0x800
        0x00000f6c:    110082b5    ....    ADD      w21,w21,#0x20
        0x00000f70:    b9000276    v...    STR      w22,[x19,#0]
        0x00000f74:    d2800402    ....    MOV      x2,#0x20
        0x00000f78:    aa1403e1    ....    MOV      x1,x20
        0x00000f7c:    910003e0    ....    MOV      x0,sp
        0x00000f80:    9400002e    ....    BL       __aeabi_memcpy4 ; 0x1038
        0x00000f84:    910003e2    ....    MOV      x2,sp
        0x00000f88:    2a1503e1    ...*    MOV      w1,w21
        0x00000f8c:    aa1303e0    ....    MOV      x0,x19
        0x00000f90:    97fffc62    b...    BL       _printf_n ; 0x118
        0x00000f94:    7100001f    ...q    CMP      w0,#0
        0x00000f98:    54000280    ...T    B.EQ     0xfe8 ; __printf + 784
        0x00000f9c:    71000c1f    ...q    CMP      w0,#3
        0x00000fa0:    540000c0    ...T    B.EQ     0xfb8 ; __printf + 736
        0x00000fa4:    b9401a80    ..@.    LDR      w0,[x20,#0x18]
        0x00000fa8:    11002000    . ..    ADD      w0,w0,#8
        0x00000fac:    7100001f    ...q    CMP      w0,#0
        0x00000fb0:    5400018d    ...T    B.LE     0xfe0 ; __printf + 776
        0x00000fb4:    14000007    ....    B        0xfd0 ; __printf + 760
        0x00000fb8:    b9401e80    ..@.    LDR      w0,[x20,#0x1c]
        0x00000fbc:    11004000    .@..    ADD      w0,w0,#0x10
        0x00000fc0:    7100001f    ...q    CMP      w0,#0
        0x00000fc4:    5400006c    l..T    B.GT     0xfd0 ; __printf + 760
        0x00000fc8:    b9001e80    ....    STR      w0,[x20,#0x1c]
        0x00000fcc:    17ffff50    P...    B        0xd0c ; __printf + 52
        0x00000fd0:    f9400280    ..@.    LDR      x0,[x20,#0]
        0x00000fd4:    91002000    . ..    ADD      x0,x0,#8
        0x00000fd8:    f9000280    ....    STR      x0,[x20,#0]
        0x00000fdc:    17ffff4c    L...    B        0xd0c ; __printf + 52
        0x00000fe0:    b9001a80    ....    STR      w0,[x20,#0x18]
        0x00000fe4:    17ffff4a    J...    B        0xd0c ; __printf + 52
        0x00000fe8:    f9400a61    a.@.    LDR      x1,[x19,#0x10]
        0x00000fec:    f9400662    b.@.    LDR      x2,[x19,#8]
        0x00000ff0:    2a1503e0    ...*    MOV      w0,w21
        0x00000ff4:    d63f0040    @.?.    BLR      x2
        0x00000ff8:    b9403660    `6@.    LDR      w0,[x19,#0x34]
        0x00000ffc:    11000400    ....    ADD      w0,w0,#1
        0x00001000:    b9003660    `6..    STR      w0,[x19,#0x34]
        0x00001004:    17ffff42    B...    B        0xd0c ; __printf + 52
        0x00001008:    b9403660    `6@.    LDR      w0,[x19,#0x34]
        0x0000100c:    a94253f3    .SB.    LDP      x19,x20,[sp,#0x20]
        0x00001010:    a9435bf5    .[C.    LDP      x21,x22,[sp,#0x30]
        0x00001014:    a94463f7    .cD.    LDP      x23,x24,[sp,#0x40]
        0x00001018:    a9456bf9    .kE.    LDP      x25,x26,[sp,#0x50]
        0x0000101c:    a94677fb    .wF.    LDP      x27,x29,[sp,#0x60]
        0x00001020:    f9403bfe    .;@.    LDR      x30,[sp,#0x70]
        0x00001024:    910203ff    ....    ADD      sp,sp,#0x80
        0x00001028:    d65f03c0    .._.    RET      
    $d
        0x0000102c:    00000000    ....    DCD    0
        0x00001030:    00007aac    .z..    DCD    31404
        0x00001034:    00000000    ....    DCD    0
    $x
    .text
    __aeabi_memcpy4
    __aeabi_memcpy8
        0x00001038:    14000008    ....    B        0x1058 ; __aeabi_memcpy4 + 32
        0x0000103c:    29401023    #.@)    LDP      w3,w4,[x1,#0]
        0x00001040:    29411825    %.A)    LDP      w5,w6,[x1,#8]
        0x00001044:    29001003    ...)    STP      w3,w4,[x0,#0]
        0x00001048:    29011805    ...)    STP      w5,w6,[x0,#8]
        0x0000104c:    91004000    .@..    ADD      x0,x0,#0x10
        0x00001050:    91004021    !@..    ADD      x1,x1,#0x10
        0x00001054:    d1004042    B@..    SUB      x2,x2,#0x10
        0x00001058:    f100405f    _@..    CMP      x2,#0x10
        0x0000105c:    54ffff02    ...T    B.CS     0x103c ; __aeabi_memcpy4 + 4
        0x00001060:    f100205f    _ ..    CMP      x2,#8
        0x00001064:    540000c3    ...T    B.CC     0x107c ; __aeabi_memcpy4 + 68
        0x00001068:    29401023    #.@)    LDP      w3,w4,[x1,#0]
        0x0000106c:    29001003    ...)    STP      w3,w4,[x0,#0]
        0x00001070:    91002000    . ..    ADD      x0,x0,#8
        0x00001074:    91002021    ! ..    ADD      x1,x1,#8
        0x00001078:    d1002042    B ..    SUB      x2,x2,#8
        0x0000107c:    f100105f    _...    CMP      x2,#4
        0x00001080:    540000e3    ...T    B.CC     0x109c ; __aeabi_memcpy4 + 100
        0x00001084:    b8404423    #D@.    LDR      w3,[x1],#4
        0x00001088:    b8004403    .D..    STR      w3,[x0],#4
        0x0000108c:    d1001042    B...    SUB      x2,x2,#4
        0x00001090:    14000003    ....    B        0x109c ; __aeabi_memcpy4 + 100
        0x00001094:    38401423    #.@8    LDRB     w3,[x1],#1
        0x00001098:    38001403    ...8    STRB     w3,[x0],#1
        0x0000109c:    d1000442    B...    SUB      x2,x2,#1
        0x000010a0:    b100045f    _...    CMN      x2,#1
        0x000010a4:    54ffff81    ...T    B.NE     0x1094 ; __aeabi_memcpy4 + 92
        0x000010a8:    d65f03c0    .._.    RET      
    __aeabi_memcpy
    __rt_memcpy
        0x000010ac:    f100105f    _...    CMP      x2,#4
        0x000010b0:    540004e3    ...T    B.CC     0x114c ; __aeabi_memcpy + 160
        0x000010b4:    12000403    ....    AND      w3,w0,#3
        0x000010b8:    7100007f    ...q    CMP      w3,#0
        0x000010bc:    54000200    ...T    B.EQ     0x10fc ; __aeabi_memcpy + 80
        0x000010c0:    38401423    #.@8    LDRB     w3,[x1],#1
        0x000010c4:    38001403    ...8    STRB     w3,[x0],#1
        0x000010c8:    d1000442    B...    SUB      x2,x2,#1
        0x000010cc:    12000403    ....    AND      w3,w0,#3
        0x000010d0:    7100007f    ...q    CMP      w3,#0
        0x000010d4:    54000140    @..T    B.EQ     0x10fc ; __aeabi_memcpy + 80
        0x000010d8:    38401423    #.@8    LDRB     w3,[x1],#1
        0x000010dc:    38001403    ...8    STRB     w3,[x0],#1
        0x000010e0:    d1000442    B...    SUB      x2,x2,#1
        0x000010e4:    12000403    ....    AND      w3,w0,#3
        0x000010e8:    7100007f    ...q    CMP      w3,#0
        0x000010ec:    54000080    ...T    B.EQ     0x10fc ; __aeabi_memcpy + 80
        0x000010f0:    38401423    #.@8    LDRB     w3,[x1],#1
        0x000010f4:    38001403    ...8    STRB     w3,[x0],#1
        0x000010f8:    d1000442    B...    SUB      x2,x2,#1
        0x000010fc:    12000423    #...    AND      w3,w1,#3
        0x00001100:    7100007f    ...q    CMP      w3,#0
        0x00001104:    540000e0    ...T    B.EQ     0x1120 ; __aeabi_memcpy + 116
        0x00001108:    cb234021    !@#.    SUB      x1,x1,w3,UXTW
        0x0000110c:    531d7065    ep.S    LSL      w5,w3,#3
        0x00001110:    52800403    ...R    MOV      w3,#0x20
        0x00001114:    4b050064    d..K    SUB      w4,w3,w5
        0x00001118:    b8404423    #D@.    LDR      w3,[x1],#4
        0x0000111c:    14000008    ....    B        0x113c ; __aeabi_memcpy + 144
        0x00001120:    17ffffc6    ....    B        __aeabi_memcpy4 ; 0x1038
        0x00001124:    1ac52466    f$..    LSR      w6,w3,w5
        0x00001128:    b8404423    #D@.    LDR      w3,[x1],#4
        0x0000112c:    1ac42067    g ..    LSL      w7,w3,w4
        0x00001130:    2a0600e6    ...*    ORR      w6,w7,w6
        0x00001134:    b8004406    .D..    STR      w6,[x0],#4
        0x00001138:    d1001042    B...    SUB      x2,x2,#4
        0x0000113c:    f100105f    _...    CMP      x2,#4
        0x00001140:    54ffff22    "..T    B.CS     0x1124 ; __aeabi_memcpy + 120
        0x00001144:    53037c83    .|.S    LSR      w3,w4,#3
        0x00001148:    cb234021    !@#.    SUB      x1,x1,w3,UXTW
        0x0000114c:    f1000442    B...    SUBS     x2,x2,#1
        0x00001150:    54000164    d..T    B.MI     0x117c ; __aeabi_memcpy + 208
        0x00001154:    38401423    #.@8    LDRB     w3,[x1],#1
        0x00001158:    38001403    ...8    STRB     w3,[x0],#1
        0x0000115c:    f1000442    B...    SUBS     x2,x2,#1
        0x00001160:    540000e4    ...T    B.MI     0x117c ; __aeabi_memcpy + 208
        0x00001164:    38401423    #.@8    LDRB     w3,[x1],#1
        0x00001168:    38001403    ...8    STRB     w3,[x0],#1
        0x0000116c:    f1000442    B...    SUBS     x2,x2,#1
        0x00001170:    54000064    d..T    B.MI     0x117c ; __aeabi_memcpy + 208
        0x00001174:    39400021    !.@9    LDRB     w1,[x1,#0]
        0x00001178:    39000001    ...9    STRB     w1,[x0,#0]
        0x0000117c:    d65f03c0    .._.    RET      
    .text
    _memset_w
        0x00001180:    14000003    ....    B        0x118c ; _memset_w + 12
        0x00001184:    b8004402    .D..    STR      w2,[x0],#4
        0x00001188:    d1001021    !...    SUB      x1,x1,#4
        0x0000118c:    f100103f    ?...    CMP      x1,#4
        0x00001190:    54ffffa2    ...T    B.CS     0x1184 ; _memset_w + 4
        0x00001194:    927f0023    #...    AND      x3,x1,#2
        0x00001198:    f100007f    ....    CMP      x3,#0
        0x0000119c:    54000040    @..T    B.EQ     0x11a4 ; _memset_w + 36
        0x000011a0:    78002402    .$.x    STRH     w2,[x0],#2
        0x000011a4:    92400021    !.@.    AND      x1,x1,#1
        0x000011a8:    f100003f    ?...    CMP      x1,#0
        0x000011ac:    54000040    @..T    B.EQ     0x11b4 ; _memset_w + 52
        0x000011b0:    39000002    ...9    STRB     w2,[x0,#0]
        0x000011b4:    d65f03c0    .._.    RET      
    _memset
        0x000011b8:    f100043f    ?...    CMP      x1,#1
        0x000011bc:    540000c3    ...T    B.CC     0x11d4 ; _memset + 28
        0x000011c0:    12000003    ....    AND      w3,w0,#1
        0x000011c4:    7100007f    ...q    CMP      w3,#0
        0x000011c8:    54000060    `..T    B.EQ     0x11d4 ; _memset + 28
        0x000011cc:    38001402    ...8    STRB     w2,[x0],#1
        0x000011d0:    d1000421    !...    SUB      x1,x1,#1
        0x000011d4:    f100083f    ?...    CMP      x1,#2
        0x000011d8:    540000c3    ...T    B.CC     0x11f0 ; _memset + 56
        0x000011dc:    121f0003    ....    AND      w3,w0,#2
        0x000011e0:    7100007f    ...q    CMP      w3,#0
        0x000011e4:    54000060    `..T    B.EQ     0x11f0 ; _memset + 56
        0x000011e8:    78002402    .$.x    STRH     w2,[x0],#2
        0x000011ec:    d1000821    !...    SUB      x1,x1,#2
        0x000011f0:    17ffffe4    ....    B        _memset_w ; 0x1180
    __aeabi_memclr
    __rt_memclr
        0x000011f4:    52800002    ...R    MOV      w2,#0
        0x000011f8:    17fffff0    ....    B        _memset ; 0x11b8
    __aeabi_memclr4
    __aeabi_memclr8
    __rt_memclr_w
        0x000011fc:    52800002    ...R    MOV      w2,#0
        0x00001200:    17ffffe0    ....    B        _memset_w ; 0x1180
    .text
    _printf_int_common
        0x00001204:    d10143ff    .C..    SUB      sp,sp,#0x50
        0x00001208:    f90023fe    .#..    STR      x30,[sp,#0x40]
        0x0000120c:    a90377f9    .w..    STP      x25,x29,[sp,#0x30]
        0x00001210:    9100e3fd    ....    ADD      x29,sp,#0x38
        0x00001214:    a90263f7    .c..    STP      x23,x24,[sp,#0x20]
        0x00001218:    a9015bf5    .[..    STP      x21,x22,[sp,#0x10]
        0x0000121c:    a90053f3    .S..    STP      x19,x20,[sp,#0]
        0x00001220:    aa0003f3    ....    MOV      x19,x0
        0x00001224:    2a0103f4    ...*    MOV      w20,w1
        0x00001228:    aa0203f9    ....    MOV      x25,x2
        0x0000122c:    2a0303f7    ...*    MOV      w23,w3
        0x00001230:    9100e278    x...    ADD      x24,x19,#0x38
        0x00001234:    b9400261    a.@.    LDR      w1,[x19,#0]
        0x00001238:    121b0020     ...    AND      w0,w1,#0x20
        0x0000123c:    7100001f    ...q    CMP      w0,#0
        0x00001240:    540000a0    ...T    B.EQ     0x1254 ; _printf_int_common + 80
        0x00001244:    b9403260    `2@.    LDR      w0,[x19,#0x30]
        0x00001248:    121b7821    !x..    AND      w1,w1,#0xffffffef
        0x0000124c:    b9000261    a...    STR      w1,[x19,#0]
        0x00001250:    14000002    ....    B        0x1258 ; _printf_int_common + 84
        0x00001254:    52800020     ..R    MOV      w0,#1
        0x00001258:    6b14001f    ...k    CMP      w0,w20
        0x0000125c:    5400006d    m..T    B.LE     0x1268 ; _printf_int_common + 100
        0x00001260:    4b140016    ...K    SUB      w22,w0,w20
        0x00001264:    14000002    ....    B        0x126c ; _printf_int_common + 104
        0x00001268:    52800016    ...R    MOV      w22,#0
        0x0000126c:    b9402e60    `.@.    LDR      w0,[x19,#0x2c]
        0x00001270:    0b1402c1    ....    ADD      w1,w22,w20
        0x00001274:    0b170021    !...    ADD      w1,w1,w23
        0x00001278:    4b010000    ...K    SUB      w0,w0,w1
        0x0000127c:    b9002e60    `...    STR      w0,[x19,#0x2c]
        0x00001280:    b9400260    `.@.    LDR      w0,[x19,#0]
        0x00001284:    121c0000    ....    AND      w0,w0,#0x10
        0x00001288:    7100001f    ...q    CMP      w0,#0
        0x0000128c:    54000061    a..T    B.NE     0x1298 ; _printf_int_common + 148
        0x00001290:    aa1303e0    ....    MOV      x0,x19
        0x00001294:    97fffc3e    >...    BL       _printf_pre_padding ; 0x38c
        0x00001298:    52800015    ...R    MOV      w21,#0
        0x0000129c:    14000009    ....    B        0x12c0 ; _printf_int_common + 188
        0x000012a0:    f9400a61    a.@.    LDR      x1,[x19,#0x10]
        0x000012a4:    3875db20     .u8    LDRB     w0,[x25,w21,SXTW #0]
        0x000012a8:    f9400664    d.@.    LDR      x4,[x19,#8]
        0x000012ac:    d63f0080    ..?.    BLR      x4
        0x000012b0:    b9403660    `6@.    LDR      w0,[x19,#0x34]
        0x000012b4:    11000400    ....    ADD      w0,w0,#1
        0x000012b8:    b9003660    `6..    STR      w0,[x19,#0x34]
        0x000012bc:    110006b5    ....    ADD      w21,w21,#1
        0x000012c0:    6b1702bf    ...k    CMP      w21,w23
        0x000012c4:    54fffeeb    ...T    B.LT     0x12a0 ; _printf_int_common + 156
        0x000012c8:    b9400260    `.@.    LDR      w0,[x19,#0]
        0x000012cc:    121c0000    ....    AND      w0,w0,#0x10
        0x000012d0:    7100001f    ...q    CMP      w0,#0
        0x000012d4:    54000160    `..T    B.EQ     0x1300 ; _printf_int_common + 252
        0x000012d8:    aa1303e0    ....    MOV      x0,x19
        0x000012dc:    97fffc2c    ,...    BL       _printf_pre_padding ; 0x38c
        0x000012e0:    14000008    ....    B        0x1300 ; _printf_int_common + 252
        0x000012e4:    f9400a61    a.@.    LDR      x1,[x19,#0x10]
        0x000012e8:    f9400662    b.@.    LDR      x2,[x19,#8]
        0x000012ec:    52800600    ...R    MOV      w0,#0x30
        0x000012f0:    d63f0040    @.?.    BLR      x2
        0x000012f4:    b9403660    `6@.    LDR      w0,[x19,#0x34]
        0x000012f8:    11000400    ....    ADD      w0,w0,#1
        0x000012fc:    b9003660    `6..    STR      w0,[x19,#0x34]
        0x00001300:    710002c0    ...q    SUBS     w0,w22,#0
        0x00001304:    510006d6    ...Q    SUB      w22,w22,#1
        0x00001308:    54fffeec    ...T    B.GT     0x12e4 ; _printf_int_common + 224
        0x0000130c:    14000008    ....    B        0x132c ; _printf_int_common + 296
        0x00001310:    f9400a61    a.@.    LDR      x1,[x19,#0x10]
        0x00001314:    3874db00    ..t8    LDRB     w0,[x24,w20,SXTW #0]
        0x00001318:    f9400662    b.@.    LDR      x2,[x19,#8]
        0x0000131c:    d63f0040    @.?.    BLR      x2
        0x00001320:    b9403660    `6@.    LDR      w0,[x19,#0x34]
        0x00001324:    11000400    ....    ADD      w0,w0,#1
        0x00001328:    b9003660    `6..    STR      w0,[x19,#0x34]
        0x0000132c:    71000280    ...q    SUBS     w0,w20,#0
        0x00001330:    51000694    ...Q    SUB      w20,w20,#1
        0x00001334:    54fffeec    ...T    B.GT     0x1310 ; _printf_int_common + 268
        0x00001338:    aa1303e0    ....    MOV      x0,x19
        0x0000133c:    97fffc37    7...    BL       _printf_post_padding ; 0x418
        0x00001340:    b9400260    `.@.    LDR      w0,[x19,#0]
        0x00001344:    12190000    ....    AND      w0,w0,#0x80
        0x00001348:    7100001f    ...q    CMP      w0,#0
        0x0000134c:    52800040    @..R    MOV      w0,#2
        0x00001350:    52800021    !..R    MOV      w1,#1
        0x00001354:    1a811000    ....    CSEL     w0,w0,w1,NE
        0x00001358:    a94053f3    .S@.    LDP      x19,x20,[sp,#0]
        0x0000135c:    a9415bf5    .[A.    LDP      x21,x22,[sp,#0x10]
        0x00001360:    a94263f7    .cB.    LDP      x23,x24,[sp,#0x20]
        0x00001364:    a94377f9    .wC.    LDP      x25,x29,[sp,#0x30]
        0x00001368:    f94023fe    .#@.    LDR      x30,[sp,#0x40]
        0x0000136c:    910143ff    .C..    ADD      sp,sp,#0x50
        0x00001370:    d65f03c0    .._.    RET      
    .text
    _fp_digits
        0x00001374:    d10303ff    ....    SUB      sp,sp,#0xc0
        0x00001378:    a90b7bfd    .{..    STP      x29,x30,[sp,#0xb0]
        0x0000137c:    9102c3fd    ....    ADD      x29,sp,#0xb0
        0x00001380:    a90a73fb    .s..    STP      x27,x28,[sp,#0xa0]
        0x00001384:    a9096bf9    .k..    STP      x25,x26,[sp,#0x90]
        0x00001388:    a90863f7    .c..    STP      x23,x24,[sp,#0x80]
        0x0000138c:    a9075bf5    .[..    STP      x21,x22,[sp,#0x70]
        0x00001390:    a90653f3    .S..    STP      x19,x20,[sp,#0x60]
        0x00001394:    aa0003f3    ....    MOV      x19,x0
        0x00001398:    2a0203f4    ...*    MOV      w20,w2
        0x0000139c:    2a0303f7    ...*    MOV      w23,w3
        0x000013a0:    f9400020     .@.    LDR      x0,[x1,#0]
        0x000013a4:    f90023e0    .#..    STR      x0,[sp,#0x40]
        0x000013a8:    b94047e0    .G@.    LDR      w0,[sp,#0x44]
        0x000013ac:    53147815    .x.S    UBFX     w21,w0,#20,#11
        0x000013b0:    710002bf    ...q    CMP      w21,#0
        0x000013b4:    54000041    A..T    B.NE     0x13bc ; _fp_digits + 72
        0x000013b8:    12800015    ....    MOV      w21,#0xffffffff
        0x000013bc:    52800001    ...R    MOV      w1,#0
        0x000013c0:    2a0103e0    ...*    MOV      w0,w1
        0x000013c4:    940009e0    ....    BL       __ieee_status ; 0x3b44
        0x000013c8:    120a0400    ....    AND      w0,w0,#0xc00000
        0x000013cc:    b94047e1    .G@.    LDR      w1,[sp,#0x44]
        0x000013d0:    12010021    !...    AND      w1,w1,#0x80000000
        0x000013d4:    7100003f    ?..q    CMP      w1,#0
        0x000013d8:    540000a0    ...T    B.EQ     0x13ec ; _fp_digits + 120
        0x000013dc:    528000a1    ...R    MOV      w1,#5
        0x000013e0:    1b017c00    .|..    MUL      w0,w0,w1
        0x000013e4:    52a01801    ...R    MOV      w1,#0xc00000
        0x000013e8:    0a400420     .@.    AND      w0,w1,w0,LSR #1
        0x000013ec:    53167c18    .|.S    LSR      w24,w0,#22
        0x000013f0:    7100071f    ...q    CMP      w24,#1
        0x000013f4:    5400004d    M..T    B.LE     0x13fc ; _fp_digits + 136
        0x000013f8:    12800018    ....    MOV      w24,#0xffffffff
        0x000013fc:    294807e0    ..H)    LDP      w0,w1,[sp,#0x40]
        0x00001400:    2a010400    ...*    ORR      w0,w0,w1,LSL #1
        0x00001404:    5280001a    ...R    MOV      w26,#0
        0x00001408:    7100001f    ...q    CMP      w0,#0
        0x0000140c:    54000560    `..T    B.EQ     0x14b8 ; _fp_digits + 324
        0x00001410:    510ffea0    ...Q    SUB      w0,w21,#0x3ff
        0x00001414:    5289a201    ...R    MOV      w1,#0x4d10
        0x00001418:    1b017c00    .|..    MUL      w0,w0,w1
        0x0000141c:    13107c15    .|..    ASR      w21,w0,#16
        0x00001420:    4b1803f9    ...K    NEG      w25,w24
        0x00001424:    d280031c    ....    MOV      x28,#0x18
        0x00001428:    d280015b    [...    MOV      x27,#0xa
        0x0000142c:    710002ff    ...q    CMP      w23,#0
        0x00001430:    54000600    ...T    B.EQ     0x14f0 ; _fp_digits + 380
        0x00001434:    4b1403f6    ...K    NEG      w22,w20
        0x00001438:    710002df    ...q    CMP      w22,#0
        0x0000143c:    1a98c321    !...    CSEL     w1,w25,w24,GT
        0x00001440:    710002df    ...q    CMP      w22,#0
        0x00001444:    4b1603e0    ...K    NEG      w0,w22
        0x00001448:    1a80a2c0    ....    CSEL     w0,w22,w0,GE
        0x0000144c:    910123e8    .#..    ADD      x8,sp,#0x48
        0x00001450:    940004cc    ....    BL       _btod_etento ; 0x2780
        0x00001454:    aa1c03e2    ....    MOV      x2,x28
        0x00001458:    910123e1    .#..    ADD      x1,sp,#0x48
        0x0000145c:    9100a3e0    ....    ADD      x0,sp,#0x28
        0x00001460:    97fffef6    ....    BL       __aeabi_memcpy4 ; 0x1038
        0x00001464:    294803e1    ..H)    LDP      w1,w0,[sp,#0x40]
        0x00001468:    94000538    8...    BL       _btod_d2e ; 0x2948
        0x0000146c:    f90003e0    ....    STR      x0,[sp,#0]
        0x00001470:    f90007e1    ....    STR      x1,[sp,#8]
        0x00001474:    f9000be2    ....    STR      x2,[sp,#0x10]
        0x00001478:    2a0003e1    ...*    MOV      w1,w0
        0x0000147c:    128403c0    ....    MOV      w0,#0xffffdfe1
        0x00001480:    0b000021    !...    ADD      w1,w1,w0
        0x00001484:    b90003e1    ....    STR      w1,[sp,#0]
        0x00001488:    710002df    ...q    CMP      w22,#0
        0x0000148c:    5400038d    ...T    B.LE     0x14fc ; _fp_digits + 392
        0x00001490:    b9402be0    .+@.    LDR      w0,[sp,#0x28]
        0x00001494:    528403e1    ...R    MOV      w1,#0x201f
        0x00001498:    0b010000    ....    ADD      w0,w0,w1
        0x0000149c:    b9002be0    .+..    STR      w0,[sp,#0x28]
        0x000014a0:    52800003    ...R    MOV      w3,#0
        0x000014a4:    2a1803e2    ...*    MOV      w2,w24
        0x000014a8:    9100a3e1    ....    ADD      x1,sp,#0x28
        0x000014ac:    910003e0    ....    MOV      x0,sp
        0x000014b0:    94000771    q...    BL       _btod_ediv ; 0x3274
        0x000014b4:    1400001a    ....    B        0x151c ; _fp_digits + 424
        0x000014b8:    710006ff    ...q    CMP      w23,#1
        0x000014bc:    54000080    ...T    B.EQ     0x14cc ; _fp_digits + 344
        0x000014c0:    52800000    ...R    MOV      w0,#0
        0x000014c4:    52800601    ...R    MOV      w1,#0x30
        0x000014c8:    14000006    ....    B        0x14e0 ; _fp_digits + 364
        0x000014cc:    2a3403e0    ..4*    MVN      w0,w20
        0x000014d0:    29036be0    .k.)    STP      w0,w26,[sp,#0x18]
        0x000014d4:    14000067    g...    B        0x1670 ; _fp_digits + 764
        0x000014d8:    3820da61    a. 8    STRB     w1,[x19,w0,SXTW #0]
        0x000014dc:    11000400    ....    ADD      w0,w0,#1
        0x000014e0:    6b14001f    ...k    CMP      w0,w20
        0x000014e4:    54ffffab    ...T    B.LT     0x14d8 ; _fp_digits + 356
        0x000014e8:    290353fa    .S.)    STP      w26,w20,[sp,#0x18]
        0x000014ec:    14000061    a...    B        0x1670 ; _fp_digits + 764
        0x000014f0:    4b1402a0    ...K    SUB      w0,w21,w20
        0x000014f4:    11000416    ....    ADD      w22,w0,#1
        0x000014f8:    17ffffd0    ....    B        0x1438 ; _fp_digits + 196
        0x000014fc:    b9402be1    .+@.    LDR      w1,[sp,#0x28]
        0x00001500:    0b000020     ...    ADD      w0,w1,w0
        0x00001504:    b9002be0    .+..    STR      w0,[sp,#0x28]
        0x00001508:    52800003    ...R    MOV      w3,#0
        0x0000150c:    2a1803e2    ...*    MOV      w2,w24
        0x00001510:    9100a3e1    ....    ADD      x1,sp,#0x28
        0x00001514:    910003e0    ....    MOV      x0,sp
        0x00001518:    940006ff    ....    BL       _btod_emul ; 0x3114
        0x0000151c:    f90003e0    ....    STR      x0,[sp,#0]
        0x00001520:    f90007e1    ....    STR      x1,[sp,#8]
        0x00001524:    f9000be2    ....    STR      x2,[sp,#0x10]
        0x00001528:    12003c00    .<..    AND      w0,w0,#0xffff
        0x0000152c:    7100001f    ...q    CMP      w0,#0
        0x00001530:    54000080    ...T    B.EQ     0x1540 ; _fp_digits + 460
        0x00001534:    92f00000    ....    MOV      x0,#0x7fffffffffffffff
        0x00001538:    f90013e0    ....    STR      x0,[sp,#0x20]
        0x0000153c:    14000002    ....    B        0x1544 ; _fp_digits + 464
        0x00001540:    290407e2    ...)    STP      w2,w1,[sp,#0x20]
        0x00001544:    710002ff    ...q    CMP      w23,#0
        0x00001548:    540000a0    ...T    B.EQ     0x155c ; _fp_digits + 488
        0x0000154c:    52800005    ...R    MOV      w5,#0
        0x00001550:    2a0503e3    ...*    MOV      w3,w5
        0x00001554:    aa1b03e6    ....    MOV      x6,x27
        0x00001558:    1400002f    /...    B        0x1614 ; _fp_digits + 672
        0x0000155c:    71000683    ...q    SUBS     w3,w20,#1
        0x00001560:    540001e4    ...T    B.MI     0x159c ; _fp_digits + 552
        0x00001564:    aa1b03e5    ....    MOV      x5,x27
        0x00001568:    f94013e0    ..@.    LDR      x0,[sp,#0x20]
        0x0000156c:    aa0503e1    ....    MOV      x1,x5
        0x00001570:    9ac50800    ....    UDIV     x0,x0,x5
        0x00001574:    f90003e0    ....    STR      x0,[sp,#0]
        0x00001578:    f94013e2    ..@.    LDR      x2,[sp,#0x20]
        0x0000157c:    9ac10844    D...    UDIV     x4,x2,x1
        0x00001580:    9b048821    !...    MSUB     x1,x1,x4,x2
        0x00001584:    f90007e1    ....    STR      x1,[sp,#8]
        0x00001588:    1100c021    !...    ADD      w1,w1,#0x30
        0x0000158c:    3823da61    a.#8    STRB     w1,[x19,w3,SXTW #0]
        0x00001590:    f90013e0    ....    STR      x0,[sp,#0x20]
        0x00001594:    71000463    c..q    SUBS     w3,w3,#1
        0x00001598:    54fffe85    ...T    B.PL     0x1568 ; _fp_digits + 500
        0x0000159c:    52800020     ..R    MOV      w0,#1
        0x000015a0:    b9001ff4    ....    STR      w20,[sp,#0x1c]
        0x000015a4:    f94013e1    ..@.    LDR      x1,[sp,#0x20]
        0x000015a8:    f100003f    ?...    CMP      x1,#0
        0x000015ac:    54000080    ...T    B.EQ     0x15bc ; _fp_digits + 584
        0x000015b0:    52800000    ...R    MOV      w0,#0
        0x000015b4:    110006b5    ....    ADD      w21,w21,#1
        0x000015b8:    14000006    ....    B        0x15d0 ; _fp_digits + 604
        0x000015bc:    39400261    a.@9    LDRB     w1,[x19,#0]
        0x000015c0:    7100c03f    ?..q    CMP      w1,#0x30
        0x000015c4:    54000061    a..T    B.NE     0x15d0 ; _fp_digits + 604
        0x000015c8:    52800000    ...R    MOV      w0,#0
        0x000015cc:    510006b5    ...Q    SUB      w21,w21,#1
        0x000015d0:    b9001bf5    ....    STR      w21,[sp,#0x18]
        0x000015d4:    7100001f    ...q    CMP      w0,#0
        0x000015d8:    54fff2a0    ...T    B.EQ     0x142c ; _fp_digits + 184
        0x000015dc:    14000025    %...    B        0x1670 ; _fp_digits + 764
        0x000015e0:    7100447f    .D.q    CMP      w3,#0x11
        0x000015e4:    540001ea    ...T    B.GE     0x1620 ; _fp_digits + 684
        0x000015e8:    aa0603e1    ....    MOV      x1,x6
        0x000015ec:    9ac60800    ....    UDIV     x0,x0,x6
        0x000015f0:    f90003e0    ....    STR      x0,[sp,#0]
        0x000015f4:    f94013e2    ..@.    LDR      x2,[sp,#0x20]
        0x000015f8:    9ac10844    D...    UDIV     x4,x2,x1
        0x000015fc:    9b048821    !...    MSUB     x1,x1,x4,x2
        0x00001600:    f90007e1    ....    STR      x1,[sp,#8]
        0x00001604:    1100c021    !...    ADD      w1,w1,#0x30
        0x00001608:    3823da61    a.#8    STRB     w1,[x19,w3,SXTW #0]
        0x0000160c:    f90013e0    ....    STR      x0,[sp,#0x20]
        0x00001610:    11000463    c...    ADD      w3,w3,#1
        0x00001614:    f94013e0    ..@.    LDR      x0,[sp,#0x20]
        0x00001618:    f100001f    ....    CMP      x0,#0
        0x0000161c:    54fffe21    !..T    B.NE     0x15e0 ; _fp_digits + 620
        0x00001620:    f100001f    ....    CMP      x0,#0
        0x00001624:    54000221    !..T    B.NE     0x1668 ; _fp_digits + 756
        0x00001628:    52800000    ...R    MOV      w0,#0
        0x0000162c:    51000461    a..Q    SUB      w1,w3,#1
        0x00001630:    14000007    ....    B        0x164c ; _fp_digits + 728
        0x00001634:    3860da62    b.`8    LDRB     w2,[x19,w0,SXTW #0]
        0x00001638:    3861da64    d.a8    LDRB     w4,[x19,w1,SXTW #0]
        0x0000163c:    3820da64    d. 8    STRB     w4,[x19,w0,SXTW #0]
        0x00001640:    3821da62    b.!8    STRB     w2,[x19,w1,SXTW #0]
        0x00001644:    11000400    ....    ADD      w0,w0,#1
        0x00001648:    51000421    !..Q    SUB      w1,w1,#1
        0x0000164c:    6b01001f    ...k    CMP      w0,w1
        0x00001650:    54ffff2b    +..T    B.LT     0x1634 ; _fp_digits + 704
        0x00001654:    b9001fe3    ....    STR      w3,[sp,#0x1c]
        0x00001658:    4b140060    `..K    SUB      w0,w3,w20
        0x0000165c:    51000400    ...Q    SUB      w0,w0,#1
        0x00001660:    b9001be0    ....    STR      w0,[sp,#0x18]
        0x00001664:    14000003    ....    B        0x1670 ; _fp_digits + 764
        0x00001668:    710000bf    ...q    CMP      w5,#0
        0x0000166c:    540001c0    ...T    B.EQ     0x16a4 ; _fp_digits + 816
        0x00001670:    b90023f7    .#..    STR      w23,[sp,#0x20]
        0x00001674:    b9401fe0    ..@.    LDR      w0,[sp,#0x1c]
        0x00001678:    3820da7a    z. 8    STRB     w26,[x19,w0,SXTW #0]
        0x0000167c:    f9400fe0    ..@.    LDR      x0,[sp,#0x18]
        0x00001680:    f94013e1    ..@.    LDR      x1,[sp,#0x20]
        0x00001684:    a94653f3    .SF.    LDP      x19,x20,[sp,#0x60]
        0x00001688:    a9475bf5    .[G.    LDP      x21,x22,[sp,#0x70]
        0x0000168c:    a94863f7    .cH.    LDP      x23,x24,[sp,#0x80]
        0x00001690:    a9496bf9    .kI.    LDP      x25,x26,[sp,#0x90]
        0x00001694:    a94a73fb    .sJ.    LDP      x27,x28,[sp,#0xa0]
        0x00001698:    a94b7bfd    .{K.    LDP      x29,x30,[sp,#0xb0]
        0x0000169c:    910303ff    ....    ADD      sp,sp,#0xc0
        0x000016a0:    d65f03c0    .._.    RET      
        0x000016a4:    52800234    4..R    MOV      w20,#0x11
        0x000016a8:    52800017    ...R    MOV      w23,#0
        0x000016ac:    17ffff60    `...    B        0x142c ; _fp_digits + 184
    _printf_fp_dec_real
        0x000016b0:    d10283ff    ....    SUB      sp,sp,#0xa0
        0x000016b4:    a9097bfd    .{..    STP      x29,x30,[sp,#0x90]
        0x000016b8:    910243fd    .C..    ADD      x29,sp,#0x90
        0x000016bc:    a90873fb    .s..    STP      x27,x28,[sp,#0x80]
        0x000016c0:    a9076bf9    .k..    STP      x25,x26,[sp,#0x70]
        0x000016c4:    a90663f7    .c..    STP      x23,x24,[sp,#0x60]
        0x000016c8:    a9055bf5    .[..    STP      x21,x22,[sp,#0x50]
        0x000016cc:    a90453f3    .S..    STP      x19,x20,[sp,#0x40]
        0x000016d0:    aa0003f3    ....    MOV      x19,x0
        0x000016d4:    2a0103fb    ...*    MOV      w27,w1
        0x000016d8:    b9401c43    C.@.    LDR      w3,[x2,#0x1c]
        0x000016dc:    11004061    a@..    ADD      w1,w3,#0x10
        0x000016e0:    7100003f    ?..q    CMP      w1,#0
        0x000016e4:    540000cc    ...T    B.GT     0x16fc ; _printf_fp_dec_real + 76
        0x000016e8:    f9400840    @.@.    LDR      x0,[x2,#0x10]
        0x000016ec:    8b23c000    ..#.    ADD      x0,x0,w3,SXTW
        0x000016f0:    fd400000    ..@.    LDR      d0,[x0,#0]
        0x000016f4:    b9001c41    A...    STR      w1,[x2,#0x1c]
        0x000016f8:    14000005    ....    B        0x170c ; _printf_fp_dec_real + 92
        0x000016fc:    f9400040    @.@.    LDR      x0,[x2,#0]
        0x00001700:    fd400000    ..@.    LDR      d0,[x0,#0]
        0x00001704:    91002000    . ..    ADD      x0,x0,#8
        0x00001708:    f9000040    @...    STR      x0,[x2,#0]
        0x0000170c:    fd0013e0    ....    STR      d0,[sp,#0x20]
        0x00001710:    94001835    5...    BL       __ARM_fpclassify ; 0x77e4
        0x00001714:    2a0003e2    ...*    MOV      w2,w0
        0x00001718:    b94027e0    .'@.    LDR      w0,[sp,#0x24]
        0x0000171c:    531f7c00    .|.S    LSR      w0,w0,#31
        0x00001720:    7100001f    ...q    CMP      w0,#0
        0x00001724:    54000060    `..T    B.EQ     0x1730 ; _printf_fp_dec_real + 128
        0x00001728:    528005ba    ...R    MOV      w26,#0x2d
        0x0000172c:    1400000d    ....    B        0x1760 ; _printf_fp_dec_real + 176
        0x00001730:    b9400260    `.@.    LDR      w0,[x19,#0]
        0x00001734:    121f0001    ....    AND      w1,w0,#2
        0x00001738:    7100003f    ?..q    CMP      w1,#0
        0x0000173c:    54000060    `..T    B.EQ     0x1748 ; _printf_fp_dec_real + 152
        0x00001740:    5280057a    z..R    MOV      w26,#0x2b
        0x00001744:    14000007    ....    B        0x1760 ; _printf_fp_dec_real + 176
        0x00001748:    121e0000    ....    AND      w0,w0,#4
        0x0000174c:    7100001f    ...q    CMP      w0,#0
        0x00001750:    54000060    `..T    B.EQ     0x175c ; _printf_fp_dec_real + 172
        0x00001754:    5280041a    ...R    MOV      w26,#0x20
        0x00001758:    14000002    ....    B        0x1760 ; _printf_fp_dec_real + 176
        0x0000175c:    5280001a    ...R    MOV      w26,#0
        0x00001760:    71000c5f    _..q    CMP      w2,#3
        0x00001764:    54000060    `..T    B.EQ     0x1770 ; _printf_fp_dec_real + 192
        0x00001768:    71001c5f    _..q    CMP      w2,#7
        0x0000176c:    540000cb    ...T    B.LT     0x1784 ; _printf_fp_dec_real + 212
        0x00001770:    2a1a03e3    ...*    MOV      w3,w26
        0x00001774:    2a1b03e1    ...*    MOV      w1,w27
        0x00001778:    aa1303e0    ....    MOV      x0,x19
        0x0000177c:    940003bf    ....    BL       _printf_fp_infnan ; 0x2678
        0x00001780:    140000dc    ....    B        0x1af0 ; _printf_fp_dec_real + 1088
        0x00001784:    b9400260    `.@.    LDR      w0,[x19,#0]
        0x00001788:    121b0000    ....    AND      w0,w0,#0x20
        0x0000178c:    7100001f    ...q    CMP      w0,#0
        0x00001790:    54000060    `..T    B.EQ     0x179c ; _printf_fp_dec_real + 236
        0x00001794:    b9403277    w2@.    LDR      w23,[x19,#0x30]
        0x00001798:    14000002    ....    B        0x17a0 ; _printf_fp_dec_real + 240
        0x0000179c:    528000d7    ...R    MOV      w23,#6
        0x000017a0:    52800220     ..R    MOV      w0,#0x11
        0x000017a4:    910003fc    ....    MOV      x28,sp
        0x000017a8:    7101977f    ...q    CMP      w27,#0x65
        0x000017ac:    540000c0    ...T    B.EQ     0x17c4 ; _printf_fp_dec_real + 276
        0x000017b0:    71019b7f    ...q    CMP      w27,#0x66
        0x000017b4:    540001e0    ...T    B.EQ     0x17f0 ; _printf_fp_dec_real + 320
        0x000017b8:    71019f7f    ...q    CMP      w27,#0x67
        0x000017bc:    54000a01    ...T    B.NE     0x18fc ; _printf_fp_dec_real + 588
        0x000017c0:    14000020     ...    B        0x1840 ; _printf_fp_dec_real + 400
        0x000017c4:    710046ff    .F.q    CMP      w23,#0x11
        0x000017c8:    110006e1    ....    ADD      w1,w23,#1
        0x000017cc:    1a81a002    ....    CSEL     w2,w0,w1,GE
        0x000017d0:    52800003    ...R    MOV      w3,#0
        0x000017d4:    910083e1    ....    ADD      x1,sp,#0x20
        0x000017d8:    910003e0    ....    MOV      x0,sp
        0x000017dc:    97fffee6    ....    BL       _fp_digits ; 0x1374
        0x000017e0:    b360fc19    ..`.    BFXIL    x25,x0,#32,#32
        0x000017e4:    52800015    ...R    MOV      w21,#0
        0x000017e8:    110006f4    ....    ADD      w20,w23,#1
        0x000017ec:    14000033    3...    B        0x18b8 ; _printf_fp_dec_real + 520
        0x000017f0:    52b00016    ...R    MOV      w22,#0x80000000
        0x000017f4:    52800023    #..R    MOV      w3,#1
        0x000017f8:    2a1703e2    ...*    MOV      w2,w23
        0x000017fc:    910083e1    ....    ADD      x1,sp,#0x20
        0x00001800:    910003e0    ....    MOV      x0,sp
        0x00001804:    97fffedc    ....    BL       _fp_digits ; 0x1374
        0x00001808:    b360fc14    ..`.    BFXIL    x20,x0,#32,#32
        0x0000180c:    2a1403f9    ...*    MOV      w25,w20
        0x00001810:    52800015    ...R    MOV      w21,#0
        0x00001814:    7100003f    ?..q    CMP      w1,#0
        0x00001818:    54000061    a..T    B.NE     0x1824 ; _printf_fp_dec_real + 372
        0x0000181c:    110006e1    ....    ADD      w1,w23,#1
        0x00001820:    0b010014    ....    ADD      w20,w0,w1
        0x00001824:    6b1402e0    ...k    SUBS     w0,w23,w20
        0x00001828:    54000084    ...T    B.MI     0x1838 ; _printf_fp_dec_real + 392
        0x0000182c:    4b0002a0    ...K    SUB      w0,w21,w0
        0x00001830:    51000415    ...Q    SUB      w21,w0,#1
        0x00001834:    110006f4    ....    ADD      w20,w23,#1
        0x00001838:    4b170298    ...K    SUB      w24,w20,w23
        0x0000183c:    14000030    0...    B        0x18fc ; _printf_fp_dec_real + 588
        0x00001840:    710006ff    ...q    CMP      w23,#1
        0x00001844:    5400004a    J..T    B.GE     0x184c ; _printf_fp_dec_real + 412
        0x00001848:    52800037    7..R    MOV      w23,#1
        0x0000184c:    710046ff    .F.q    CMP      w23,#0x11
        0x00001850:    1a97c002    ....    CSEL     w2,w0,w23,GT
        0x00001854:    52800003    ...R    MOV      w3,#0
        0x00001858:    910083e1    ....    ADD      x1,sp,#0x20
        0x0000185c:    910003e0    ....    MOV      x0,sp
        0x00001860:    97fffec5    ....    BL       _fp_digits ; 0x1374
        0x00001864:    b360fc19    ..`.    BFXIL    x25,x0,#32,#32
        0x00001868:    52800015    ...R    MOV      w21,#0
        0x0000186c:    2a1703f4    ...*    MOV      w20,w23
        0x00001870:    b9400261    a.@.    LDR      w1,[x19,#0]
        0x00001874:    121d0021    !...    AND      w1,w1,#8
        0x00001878:    7100003f    ?..q    CMP      w1,#0
        0x0000187c:    54000161    a..T    B.NE     0x18a8 ; _printf_fp_dec_real + 504
        0x00001880:    6b14033f    ?..k    CMP      w25,w20
        0x00001884:    5400004a    J..T    B.GE     0x188c ; _printf_fp_dec_real + 476
        0x00001888:    2a1903f4    ...*    MOV      w20,w25
        0x0000188c:    aa1c03e3    ....    MOV      x3,x28
        0x00001890:    7100069f    ...q    CMP      w20,#1
        0x00001894:    540000ad    ...T    B.LE     0x18a8 ; _printf_fp_dec_real + 504
        0x00001898:    51000682    ...Q    SUB      w2,w20,#1
        0x0000189c:    3862d861    a.b8    LDRB     w1,[x3,w2,SXTW #0]
        0x000018a0:    7100c03f    ?..q    CMP      w1,#0x30
        0x000018a4:    54000100    ...T    B.EQ     0x18c4 ; _printf_fp_dec_real + 532
        0x000018a8:    6b17001f    ...k    CMP      w0,w23
        0x000018ac:    5400006a    j..T    B.GE     0x18b8 ; _printf_fp_dec_real + 520
        0x000018b0:    3100101f    ...1    CMN      w0,#4
        0x000018b4:    540000ca    ...T    B.GE     0x18cc ; _printf_fp_dec_real + 540
        0x000018b8:    52800038    8..R    MOV      w24,#1
        0x000018bc:    2a0003f6    ...*    MOV      w22,w0
        0x000018c0:    1400000f    ....    B        0x18fc ; _printf_fp_dec_real + 588
        0x000018c4:    51000694    ...Q    SUB      w20,w20,#1
        0x000018c8:    17fffff2    ....    B        0x1890 ; _printf_fp_dec_real + 480
        0x000018cc:    7100001f    ...q    CMP      w0,#0
        0x000018d0:    5400008c    ...T    B.GT     0x18e0 ; _printf_fp_dec_real + 560
        0x000018d4:    0b150015    ....    ADD      w21,w0,w21
        0x000018d8:    4b000294    ...K    SUB      w20,w20,w0
        0x000018dc:    14000005    ....    B        0x18f0 ; _printf_fp_dec_real + 576
        0x000018e0:    11000401    ....    ADD      w1,w0,#1
        0x000018e4:    6b14003f    ?..k    CMP      w1,w20
        0x000018e8:    5400004d    M..T    B.LE     0x18f0 ; _printf_fp_dec_real + 576
        0x000018ec:    2a0103f4    ...*    MOV      w20,w1
        0x000018f0:    4b150000    ...K    SUB      w0,w0,w21
        0x000018f4:    11000418    ....    ADD      w24,w0,#1
        0x000018f8:    52b00016    ...R    MOV      w22,#0x80000000
        0x000018fc:    b9400260    `.@.    LDR      w0,[x19,#0]
        0x00001900:    121d0000    ....    AND      w0,w0,#8
        0x00001904:    7100001f    ...q    CMP      w0,#0
        0x00001908:    54000081    ...T    B.NE     0x1918 ; _printf_fp_dec_real + 616
        0x0000190c:    6b14031f    ...k    CMP      w24,w20
        0x00001910:    5400004b    K..T    B.LT     0x1918 ; _printf_fp_dec_real + 616
        0x00001914:    12800018    ....    MOV      w24,#0xffffffff
        0x00001918:    9100e3e5    ....    ADD      x5,sp,#0x38
        0x0000191c:    910020a0    . ..    ADD      x0,x5,#8
        0x00001920:    52800001    ...R    MOV      w1,#0
        0x00001924:    d1000417    ....    SUB      x23,x0,#1
        0x00001928:    3900ffe1    ...9    STRB     w1,[sp,#0x3f]
        0x0000192c:    52b00000    ...R    MOV      w0,#0x80000000
        0x00001930:    6b0002df    ...k    CMP      w22,w0
        0x00001934:    54000420     ..T    B.EQ     0x19b8 ; _printf_fp_dec_real + 776
        0x00001938:    52800041    A..R    MOV      w1,#2
        0x0000193c:    52800563    c..R    MOV      w3,#0x2b
        0x00001940:    710002df    ...q    CMP      w22,#0
        0x00001944:    5400006a    j..T    B.GE     0x1950 ; _printf_fp_dec_real + 672
        0x00001948:    4b1603f6    ...K    NEG      w22,w22
        0x0000194c:    528005a3    ...R    MOV      w3,#0x2d
        0x00001950:    52800144    D..R    MOV      w4,#0xa
        0x00001954:    71000020     ..q    SUBS     w0,w1,#0
        0x00001958:    51000421    !..Q    SUB      w1,w1,#1
        0x0000195c:    5400006c    l..T    B.GT     0x1968 ; _printf_fp_dec_real + 696
        0x00001960:    710002df    ...q    CMP      w22,#0
        0x00001964:    54000160    `..T    B.EQ     0x1990 ; _printf_fp_dec_real + 736
        0x00001968:    1ac40ec2    ....    SDIV     w2,w22,w4
        0x0000196c:    93407c40    @|@.    SXTW     x0,w2
        0x00001970:    f90017e0    ....    STR      x0,[sp,#0x28]
        0x00001974:    1b02d880    ....    MSUB     w0,w4,w2,w22
        0x00001978:    93407c00    .|@.    SXTW     x0,w0
        0x0000197c:    f9001be0    ....    STR      x0,[sp,#0x30]
        0x00001980:    b9402bf6    .+@.    LDR      w22,[sp,#0x28]
        0x00001984:    9100c000    ....    ADD      x0,x0,#0x30
        0x00001988:    381ffee0    ...8    STRB     w0,[x23,#-1]!
        0x0000198c:    17fffff2    ....    B        0x1954 ; _printf_fp_dec_real + 676
        0x00001990:    d10006e0    ....    SUB      x0,x23,#1
        0x00001994:    381ff2e3    ...8    STURB    w3,[x23,#-1]
        0x00001998:    b9400261    a.@.    LDR      w1,[x19,#0]
        0x0000199c:    12150021    !...    AND      w1,w1,#0x800
        0x000019a0:    7100003f    ?..q    CMP      w1,#0
        0x000019a4:    528008a1    ...R    MOV      w1,#0x45
        0x000019a8:    52800ca2    ...R    MOV      w2,#0x65
        0x000019ac:    1a821021    !...    CSEL     w1,w1,w2,NE
        0x000019b0:    d1000417    ....    SUB      x23,x0,#1
        0x000019b4:    381ff001    ...8    STURB    w1,[x0,#-1]
        0x000019b8:    cb1700a0    ....    SUB      x0,x5,x23
        0x000019bc:    91001c16    ....    ADD      x22,x0,#7
        0x000019c0:    7100035f    _..q    CMP      w26,#0
        0x000019c4:    1a9f07e0    ....    CSET     w0,NE
        0x000019c8:    0b140000    ....    ADD      w0,w0,w20
        0x000019cc:    0b987c00    .|..    ADD      w0,w0,w24,ASR #31
        0x000019d0:    0b160000    ....    ADD      w0,w0,w22
        0x000019d4:    b9402e61    a.@.    LDR      w1,[x19,#0x2c]
        0x000019d8:    4b000020     ..K    SUB      w0,w1,w0
        0x000019dc:    51000400    ...Q    SUB      w0,w0,#1
        0x000019e0:    b9002e60    `...    STR      w0,[x19,#0x2c]
        0x000019e4:    b9400260    `.@.    LDR      w0,[x19,#0]
        0x000019e8:    121c0000    ....    AND      w0,w0,#0x10
        0x000019ec:    7100001f    ...q    CMP      w0,#0
        0x000019f0:    54000061    a..T    B.NE     0x19fc ; _printf_fp_dec_real + 844
        0x000019f4:    aa1303e0    ....    MOV      x0,x19
        0x000019f8:    97fffa65    e...    BL       _printf_pre_padding ; 0x38c
        0x000019fc:    7100035f    _..q    CMP      w26,#0
        0x00001a00:    54000100    ...T    B.EQ     0x1a20 ; _printf_fp_dec_real + 880
        0x00001a04:    f9400a61    a.@.    LDR      x1,[x19,#0x10]
        0x00001a08:    f9400662    b.@.    LDR      x2,[x19,#8]
        0x00001a0c:    2a1a03e0    ...*    MOV      w0,w26
        0x00001a10:    d63f0040    @.?.    BLR      x2
        0x00001a14:    b9403660    `6@.    LDR      w0,[x19,#0x34]
        0x00001a18:    11000400    ....    ADD      w0,w0,#1
        0x00001a1c:    b9003660    `6..    STR      w0,[x19,#0x34]
        0x00001a20:    b9400260    `.@.    LDR      w0,[x19,#0]
        0x00001a24:    121c0000    ....    AND      w0,w0,#0x10
        0x00001a28:    7100001f    ...q    CMP      w0,#0
        0x00001a2c:    54000420     ..T    B.EQ     0x1ab0 ; _printf_fp_dec_real + 1024
        0x00001a30:    aa1303e0    ....    MOV      x0,x19
        0x00001a34:    97fffa56    V...    BL       _printf_pre_padding ; 0x38c
        0x00001a38:    1400001e    ....    B        0x1ab0 ; _printf_fp_dec_real + 1024
        0x00001a3c:    710002bf    ...q    CMP      w21,#0
        0x00001a40:    540000eb    ...T    B.LT     0x1a5c ; _printf_fp_dec_real + 940
        0x00001a44:    6b15033f    ?..k    CMP      w25,w21
        0x00001a48:    540000ad    ...T    B.LE     0x1a5c ; _printf_fp_dec_real + 940
        0x00001a4c:    f9400a61    a.@.    LDR      x1,[x19,#0x10]
        0x00001a50:    3875db80    ..u8    LDRB     w0,[x28,w21,SXTW #0]
        0x00001a54:    f9400662    b.@.    LDR      x2,[x19,#8]
        0x00001a58:    14000004    ....    B        0x1a68 ; _printf_fp_dec_real + 952
        0x00001a5c:    f9400a61    a.@.    LDR      x1,[x19,#0x10]
        0x00001a60:    f9400662    b.@.    LDR      x2,[x19,#8]
        0x00001a64:    52800600    ...R    MOV      w0,#0x30
        0x00001a68:    d63f0040    @.?.    BLR      x2
        0x00001a6c:    b9403660    `6@.    LDR      w0,[x19,#0x34]
        0x00001a70:    11000400    ....    ADD      w0,w0,#1
        0x00001a74:    b9003660    `6..    STR      w0,[x19,#0x34]
        0x00001a78:    110006b5    ....    ADD      w21,w21,#1
        0x00001a7c:    71000718    ...q    SUBS     w24,w24,#1
        0x00001a80:    54000181    ...T    B.NE     0x1ab0 ; _printf_fp_dec_real + 1024
        0x00001a84:    940002cb    ....    BL       __rt_locale ; 0x25b0
        0x00001a88:    f9400c01    ..@.    LDR      x1,[x0,#0x18]
        0x00001a8c:    f9400c00    ..@.    LDR      x0,[x0,#0x18]
        0x00001a90:    b9400000    ..@.    LDR      w0,[x0,#0]
        0x00001a94:    38605820     X`8    LDRB     w0,[x1,w0,UXTW #0]
        0x00001a98:    f9400a61    a.@.    LDR      x1,[x19,#0x10]
        0x00001a9c:    f9400662    b.@.    LDR      x2,[x19,#8]
        0x00001aa0:    d63f0040    @.?.    BLR      x2
        0x00001aa4:    b9403660    `6@.    LDR      w0,[x19,#0x34]
        0x00001aa8:    11000400    ....    ADD      w0,w0,#1
        0x00001aac:    b9003660    `6..    STR      w0,[x19,#0x34]
        0x00001ab0:    71000280    ...q    SUBS     w0,w20,#0
        0x00001ab4:    51000694    ...Q    SUB      w20,w20,#1
        0x00001ab8:    54fffc2c    ,..T    B.GT     0x1a3c ; _printf_fp_dec_real + 908
        0x00001abc:    14000008    ....    B        0x1adc ; _printf_fp_dec_real + 1068
        0x00001ac0:    384016e0    ..@8    LDRB     w0,[x23],#1
        0x00001ac4:    f9400a61    a.@.    LDR      x1,[x19,#0x10]
        0x00001ac8:    f9400662    b.@.    LDR      x2,[x19,#8]
        0x00001acc:    d63f0040    @.?.    BLR      x2
        0x00001ad0:    b9403660    `6@.    LDR      w0,[x19,#0x34]
        0x00001ad4:    11000400    ....    ADD      w0,w0,#1
        0x00001ad8:    b9003660    `6..    STR      w0,[x19,#0x34]
        0x00001adc:    710002c0    ...q    SUBS     w0,w22,#0
        0x00001ae0:    510006d6    ...Q    SUB      w22,w22,#1
        0x00001ae4:    54fffeec    ...T    B.GT     0x1ac0 ; _printf_fp_dec_real + 1040
        0x00001ae8:    aa1303e0    ....    MOV      x0,x19
        0x00001aec:    97fffa4b    K...    BL       _printf_post_padding ; 0x418
        0x00001af0:    52800060    `..R    MOV      w0,#3
        0x00001af4:    a94453f3    .SD.    LDP      x19,x20,[sp,#0x40]
        0x00001af8:    a9455bf5    .[E.    LDP      x21,x22,[sp,#0x50]
        0x00001afc:    a94663f7    .cF.    LDP      x23,x24,[sp,#0x60]
        0x00001b00:    a9476bf9    .kG.    LDP      x25,x26,[sp,#0x70]
        0x00001b04:    a94873fb    .sH.    LDP      x27,x28,[sp,#0x80]
        0x00001b08:    a9497bfd    .{I.    LDP      x29,x30,[sp,#0x90]
        0x00001b0c:    910283ff    ....    ADD      sp,sp,#0xa0
        0x00001b10:    d65f03c0    .._.    RET      
        0x00001b14:    00000000    ....    DCI      0x00000000 ; ? Undefined
    .text
    _printf_fp_hex_real
        0x00001b18:    d10203ff    ....    SUB      sp,sp,#0x80
        0x00001b1c:    a9077bfd    .{..    STP      x29,x30,[sp,#0x70]
        0x00001b20:    9101c3fd    ....    ADD      x29,sp,#0x70
        0x00001b24:    a90663f7    .c..    STP      x23,x24,[sp,#0x60]
        0x00001b28:    a9055bf5    .[..    STP      x21,x22,[sp,#0x50]
        0x00001b2c:    a90453f3    .S..    STP      x19,x20,[sp,#0x40]
        0x00001b30:    aa0003f3    ....    MOV      x19,x0
        0x00001b34:    2a0103f4    ...*    MOV      w20,w1
        0x00001b38:    b9401c43    C.@.    LDR      w3,[x2,#0x1c]
        0x00001b3c:    11004061    a@..    ADD      w1,w3,#0x10
        0x00001b40:    7100003f    ?..q    CMP      w1,#0
        0x00001b44:    540000cc    ...T    B.GT     0x1b5c ; _printf_fp_hex_real + 68
        0x00001b48:    f9400840    @.@.    LDR      x0,[x2,#0x10]
        0x00001b4c:    8b23c000    ..#.    ADD      x0,x0,w3,SXTW
        0x00001b50:    fd400000    ..@.    LDR      d0,[x0,#0]
        0x00001b54:    b9001c41    A...    STR      w1,[x2,#0x1c]
        0x00001b58:    14000005    ....    B        0x1b6c ; _printf_fp_hex_real + 84
        0x00001b5c:    f9400040    @.@.    LDR      x0,[x2,#0]
        0x00001b60:    fd400000    ..@.    LDR      d0,[x0,#0]
        0x00001b64:    91002000    . ..    ADD      x0,x0,#8
        0x00001b68:    f9000040    @...    STR      x0,[x2,#0]
        0x00001b6c:    9e660000    ..f.    FMOV     x0,d0
        0x00001b70:    f90003e0    ....    STR      x0,[sp,#0]
        0x00001b74:    fd4003e0    ..@.    LDR      d0,[sp,#0]
        0x00001b78:    9400171b    ....    BL       __ARM_fpclassify ; 0x77e4
        0x00001b7c:    2a0003e2    ...*    MOV      w2,w0
        0x00001b80:    b94007e0    ..@.    LDR      w0,[sp,#4]
        0x00001b84:    531f7c00    .|.S    LSR      w0,w0,#31
        0x00001b88:    7100001f    ...q    CMP      w0,#0
        0x00001b8c:    54000060    `..T    B.EQ     0x1b98 ; _printf_fp_hex_real + 128
        0x00001b90:    528005a3    ...R    MOV      w3,#0x2d
        0x00001b94:    1400000d    ....    B        0x1bc8 ; _printf_fp_hex_real + 176
        0x00001b98:    b9400260    `.@.    LDR      w0,[x19,#0]
        0x00001b9c:    121f0001    ....    AND      w1,w0,#2
        0x00001ba0:    7100003f    ?..q    CMP      w1,#0
        0x00001ba4:    54000060    `..T    B.EQ     0x1bb0 ; _printf_fp_hex_real + 152
        0x00001ba8:    52800563    c..R    MOV      w3,#0x2b
        0x00001bac:    14000007    ....    B        0x1bc8 ; _printf_fp_hex_real + 176
        0x00001bb0:    121e0000    ....    AND      w0,w0,#4
        0x00001bb4:    7100001f    ...q    CMP      w0,#0
        0x00001bb8:    54000060    `..T    B.EQ     0x1bc4 ; _printf_fp_hex_real + 172
        0x00001bbc:    52800403    ...R    MOV      w3,#0x20
        0x00001bc0:    14000002    ....    B        0x1bc8 ; _printf_fp_hex_real + 176
        0x00001bc4:    52800003    ...R    MOV      w3,#0
        0x00001bc8:    3900c3e3    ...9    STRB     w3,[sp,#0x30]
        0x00001bcc:    7100007f    ...q    CMP      w3,#0
        0x00001bd0:    1a9f07f6    ....    CSET     w22,NE
        0x00001bd4:    71000c5f    _..q    CMP      w2,#3
        0x00001bd8:    54000060    `..T    B.EQ     0x1be4 ; _printf_fp_hex_real + 204
        0x00001bdc:    71001c5f    _..q    CMP      w2,#7
        0x00001be0:    540000ab    ...T    B.LT     0x1bf4 ; _printf_fp_hex_real + 220
        0x00001be4:    2a1403e1    ...*    MOV      w1,w20
        0x00001be8:    aa1303e0    ....    MOV      x0,x19
        0x00001bec:    940002a3    ....    BL       _printf_fp_infnan ; 0x2678
        0x00001bf0:    1400010d    ....    B        0x2024 ; _printf_fp_hex_real + 1292
        0x00001bf4:    b9400260    `.@.    LDR      w0,[x19,#0]
        0x00001bf8:    121b0000    ....    AND      w0,w0,#0x20
        0x00001bfc:    7100001f    ...q    CMP      w0,#0
        0x00001c00:    54000440    @..T    B.EQ     0x1c88 ; _printf_fp_hex_real + 368
        0x00001c04:    b9403274    t2@.    LDR      w20,[x19,#0x30]
        0x00001c08:    b94007e0    ..@.    LDR      w0,[sp,#4]
        0x00001c0c:    53147815    .x.S    UBFX     w21,w0,#20,#11
        0x00001c10:    7100369f    .6.q    CMP      w20,#0xd
        0x00001c14:    540008aa    ...T    B.GE     0x1d28 ; _printf_fp_hex_real + 528
        0x00001c18:    53147c17    .|.S    LSR      w23,w0,#20
        0x00001c1c:    52800001    ...R    MOV      w1,#0
        0x00001c20:    2a0103e0    ...*    MOV      w0,w1
        0x00001c24:    940007c8    ....    BL       __ieee_status ; 0x3b44
        0x00001c28:    120a0400    ....    AND      w0,w0,#0xc00000
        0x00001c2c:    b94007e1    ..@.    LDR      w1,[sp,#4]
        0x00001c30:    12010021    !...    AND      w1,w1,#0x80000000
        0x00001c34:    7100003f    ?..q    CMP      w1,#0
        0x00001c38:    540000c0    ...T    B.EQ     0x1c50 ; _printf_fp_hex_real + 312
        0x00001c3c:    528000a1    ...R    MOV      w1,#5
        0x00001c40:    1b017c00    .|..    MUL      w0,w0,w1
        0x00001c44:    0b407c00    .|@.    ADD      w0,w0,w0,LSR #31
        0x00001c48:    52a01801    ...R    MOV      w1,#0xc00000
        0x00001c4c:    0a800420     ...    AND      w0,w1,w0,ASR #1
        0x00001c50:    13167c00    .|..    ASR      w0,w0,#22
        0x00001c54:    7100041f    ...q    CMP      w0,#1
        0x00001c58:    5400004d    M..T    B.LE     0x1c60 ; _printf_fp_hex_real + 328
        0x00001c5c:    12800000    ....    MOV      w0,#0xffffffff
        0x00001c60:    531e7681    .v.S    LSL      w1,w20,#2
        0x00001c64:    52800002    ...R    MOV      w2,#0
        0x00001c68:    7100603f    ?`.q    CMP      w1,#0x18
        0x00001c6c:    54000123    #..T    B.CC     0x1c90 ; _printf_fp_hex_real + 376
        0x00001c70:    b9000fe2    ....    STR      w2,[sp,#0xc]
        0x00001c74:    51006022    "`.Q    SUB      w2,w1,#0x18
        0x00001c78:    52a20003    ...R    MOV      w3,#0x10000000
        0x00001c7c:    1ac22462    b$..    LSR      w2,w3,w2
        0x00001c80:    b9000be2    ....    STR      w2,[sp,#8]
        0x00001c84:    14000006    ....    B        0x1c9c ; _printf_fp_hex_real + 388
        0x00001c88:    528001b4    ...R    MOV      w20,#0xd
        0x00001c8c:    17ffffdf    ....    B        0x1c08 ; _printf_fp_hex_real + 240
        0x00001c90:    52a00203    ...R    MOV      w3,#0x100000
        0x00001c94:    1ac12463    c$..    LSR      w3,w3,w1
        0x00001c98:    29010fe2    ...)    STP      w2,w3,[sp,#8]
        0x00001c9c:    11003021    !0..    ADD      w1,w1,#0xc
        0x00001ca0:    7100803f    ?..q    CMP      w1,#0x20
        0x00001ca4:    54000083    ...T    B.CC     0x1cb4 ; _printf_fp_hex_real + 412
        0x00001ca8:    b94003e2    ..@.    LDR      w2,[sp,#0]
        0x00001cac:    51008021    !..Q    SUB      w1,w1,#0x20
        0x00001cb0:    14000002    ....    B        0x1cb8 ; _printf_fp_hex_real + 416
        0x00001cb4:    b94007e2    ..@.    LDR      w2,[sp,#4]
        0x00001cb8:    1ac12041    A ..    LSL      w1,w2,w1
        0x00001cbc:    52b00004    ...R    MOV      w4,#0x80000000
        0x00001cc0:    7100001f    ...q    CMP      w0,#0
        0x00001cc4:    5400008d    ...T    B.LE     0x1cd4 ; _printf_fp_hex_real + 444
        0x00001cc8:    7100003f    ?..q    CMP      w1,#0
        0x00001ccc:    540000c1    ...T    B.NE     0x1ce4 ; _printf_fp_hex_real + 460
        0x00001cd0:    14000016    ....    B        0x1d28 ; _printf_fp_hex_real + 528
        0x00001cd4:    7100001f    ...q    CMP      w0,#0
        0x00001cd8:    54000281    ...T    B.NE     0x1d28 ; _printf_fp_hex_real + 528
        0x00001cdc:    6b04003f    ?..k    CMP      w1,w4
        0x00001ce0:    54000243    C..T    B.CC     0x1d28 ; _printf_fp_hex_real + 528
        0x00001ce4:    f94003e2    ..@.    LDR      x2,[sp,#0]
        0x00001ce8:    f94007e3    ..@.    LDR      x3,[sp,#8]
        0x00001cec:    8b030042    B...    ADD      x2,x2,x3
        0x00001cf0:    f90003e2    ....    STR      x2,[sp,#0]
        0x00001cf4:    7100001f    ...q    CMP      w0,#0
        0x00001cf8:    54000101    ...T    B.NE     0x1d18 ; _printf_fp_hex_real + 512
        0x00001cfc:    6b04003f    ?..k    CMP      w1,w4
        0x00001d00:    540000c1    ...T    B.NE     0x1d18 ; _printf_fp_hex_real + 512
        0x00001d04:    f94003e0    ..@.    LDR      x0,[sp,#0]
        0x00001d08:    f94007e1    ..@.    LDR      x1,[sp,#8]
        0x00001d0c:    aa2103e1    ..!.    MVN      x1,x1
        0x00001d10:    8a010000    ....    AND      x0,x0,x1
        0x00001d14:    f90003e0    ....    STR      x0,[sp,#0]
        0x00001d18:    b94007e0    ..@.    LDR      w0,[sp,#4]
        0x00001d1c:    6b4052ff    .R@k    CMP      w23,w0,LSR #20
        0x00001d20:    54000040    @..T    B.EQ     0x1d28 ; _printf_fp_hex_real + 528
        0x00001d24:    110006b5    ....    ADD      w21,w21,#1
        0x00001d28:    b9400260    `.@.    LDR      w0,[x19,#0]
        0x00001d2c:    12150000    ....    AND      w0,w0,#0x800
        0x00001d30:    7100001f    ...q    CMP      w0,#0
        0x00001d34:    580019e0    ...X    LDR      x0,{pc}+0x33c ; 0x2070 ; [0x2070] = 
        0x00001d38:    58001a01    ...X    LDR      x1,{pc}+0x340 ; 0x2078 ; [0x2078] = 
        0x00001d3c:    9a811001    ....    CSEL     x1,x0,x1,NE
        0x00001d40:    52800604    ...R    MOV      w4,#0x30
        0x00001d44:    110006c3    ....    ADD      w3,w22,#1
        0x00001d48:    9100c3f7    ....    ADD      x23,sp,#0x30
        0x00001d4c:    aa1703e0    ....    MOV      x0,x23
        0x00001d50:    3836dae4    ..68    STRB     w4,[x23,w22,SXTW #0]
        0x00001d54:    39404022    "@@9    LDRB     w2,[x1,#0x10]
        0x00001d58:    11000ad8    ....    ADD      w24,w22,#2
        0x00001d5c:    3823d802    ..#8    STRB     w2,[x0,w3,SXTW #0]
        0x00001d60:    710002bf    ...q    CMP      w21,#0
        0x00001d64:    52800622    "..R    MOV      w2,#0x31
        0x00001d68:    1a82d082    ....    CSEL     w2,w4,w2,LE
        0x00001d6c:    52800020     ..R    MOV      w0,#1
        0x00001d70:    910043f6    .C..    ADD      x22,sp,#0x10
        0x00001d74:    390043e2    .C.9    STRB     w2,[sp,#0x10]
        0x00001d78:    710002bf    ...q    CMP      w21,#0
        0x00001d7c:    54000060    `..T    B.EQ     0x1d88 ; _printf_fp_hex_real + 624
        0x00001d80:    510ffeb5    ...Q    SUB      w21,w21,#0x3ff
        0x00001d84:    14000006    ....    B        0x1d9c ; _printf_fp_hex_real + 644
        0x00001d88:    29400fe2    ..@)    LDP      w2,w3,[sp,#0]
        0x00001d8c:    2a030442    B..*    ORR      w2,w2,w3,LSL #1
        0x00001d90:    7100005f    _..q    CMP      w2,#0
        0x00001d94:    54000040    @..T    B.EQ     0x1d9c ; _printf_fp_hex_real + 644
        0x00001d98:    12807fb5    ....    MOV      w21,#0xfffffc02
        0x00001d9c:    7100029f    ...q    CMP      w20,#0
        0x00001da0:    540000ac    ...T    B.GT     0x1db4 ; _printf_fp_hex_real + 668
        0x00001da4:    b9400262    b.@.    LDR      w2,[x19,#0]
        0x00001da8:    121d0042    B...    AND      w2,w2,#8
        0x00001dac:    7100005f    _..q    CMP      w2,#0
        0x00001db0:    54000080    ...T    B.EQ     0x1dc0 ; _printf_fp_hex_real + 680
        0x00001db4:    528005c2    ...R    MOV      w2,#0x2e
        0x00001db8:    52800040    @..R    MOV      w0,#2
        0x00001dbc:    390047e2    .G.9    STRB     w2,[sp,#0x11]
        0x00001dc0:    2a0003e4    ...*    MOV      w4,w0
        0x00001dc4:    52800003    ...R    MOV      w3,#0
        0x00001dc8:    1400000e    ....    B        0x1e00 ; _printf_fp_hex_real + 744
        0x00001dcc:    b94007e2    ..@.    LDR      w2,[sp,#4]
        0x00001dd0:    53104c42    BL.S    UBFX     w2,w2,#16,#4
        0x00001dd4:    38625826    &Xb8    LDRB     w6,[x1,w2,UXTW #0]
        0x00001dd8:    2a0003e5    ...*    MOV      w5,w0
        0x00001ddc:    11000400    ....    ADD      w0,w0,#1
        0x00001de0:    3825dac6    ..%8    STRB     w6,[x22,w5,SXTW #0]
        0x00001de4:    b94007e2    ..@.    LDR      w2,[sp,#4]
        0x00001de8:    531c6c42    Bl.S    LSL      w2,w2,#4
        0x00001dec:    b90007e2    ....    STR      w2,[sp,#4]
        0x00001df0:    11000463    c...    ADD      w3,w3,#1
        0x00001df4:    51000694    ...Q    SUB      w20,w20,#1
        0x00001df8:    7100147f    ...q    CMP      w3,#5
        0x00001dfc:    5400006a    j..T    B.GE     0x1e08 ; _printf_fp_hex_real + 752
        0x00001e00:    7100029f    ...q    CMP      w20,#0
        0x00001e04:    54fffe4c    L..T    B.GT     0x1dcc ; _printf_fp_hex_real + 692
        0x00001e08:    52800003    ...R    MOV      w3,#0
        0x00001e0c:    1400000e    ....    B        0x1e44 ; _printf_fp_hex_real + 812
        0x00001e10:    b94003e2    ..@.    LDR      w2,[sp,#0]
        0x00001e14:    531c7c42    B|.S    LSR      w2,w2,#28
        0x00001e18:    38625826    &Xb8    LDRB     w6,[x1,w2,UXTW #0]
        0x00001e1c:    2a0003e5    ...*    MOV      w5,w0
        0x00001e20:    11000400    ....    ADD      w0,w0,#1
        0x00001e24:    3825dac6    ..%8    STRB     w6,[x22,w5,SXTW #0]
        0x00001e28:    b94003e2    ..@.    LDR      w2,[sp,#0]
        0x00001e2c:    531c6c42    Bl.S    LSL      w2,w2,#4
        0x00001e30:    b90003e2    ....    STR      w2,[sp,#0]
        0x00001e34:    11000463    c...    ADD      w3,w3,#1
        0x00001e38:    51000694    ...Q    SUB      w20,w20,#1
        0x00001e3c:    7100207f    . .q    CMP      w3,#8
        0x00001e40:    5400006a    j..T    B.GE     0x1e4c ; _printf_fp_hex_real + 820
        0x00001e44:    7100029f    ...q    CMP      w20,#0
        0x00001e48:    54fffe4c    L..T    B.GT     0x1e10 ; _printf_fp_hex_real + 760
        0x00001e4c:    b9400266    f.@.    LDR      w6,[x19,#0]
        0x00001e50:    121b00c2    ....    AND      w2,w6,#0x20
        0x00001e54:    7100005f    _..q    CMP      w2,#0
        0x00001e58:    54000080    ...T    B.EQ     0x1e68 ; _printf_fp_hex_real + 848
        0x00001e5c:    14000014    ....    B        0x1eac ; _printf_fp_hex_real + 916
        0x00001e60:    51000400    ...Q    SUB      w0,w0,#1
        0x00001e64:    14000002    ....    B        0x1e6c ; _printf_fp_hex_real + 852
        0x00001e68:    aa1603e3    ....    MOV      x3,x22
        0x00001e6c:    6b04001f    ...k    CMP      w0,w4
        0x00001e70:    540000ad    ...T    B.LE     0x1e84 ; _printf_fp_hex_real + 876
        0x00001e74:    51000405    ...Q    SUB      w5,w0,#1
        0x00001e78:    3865d862    b.e8    LDRB     w2,[x3,w5,SXTW #0]
        0x00001e7c:    7100c05f    _..q    CMP      w2,#0x30
        0x00001e80:    54ffff00    ...T    B.EQ     0x1e60 ; _printf_fp_hex_real + 840
        0x00001e84:    7100001f    ...q    CMP      w0,#0
        0x00001e88:    5400012d    -..T    B.LE     0x1eac ; _printf_fp_hex_real + 916
        0x00001e8c:    51000402    ...Q    SUB      w2,w0,#1
        0x00001e90:    3862d862    b.b8    LDRB     w2,[x3,w2,SXTW #0]
        0x00001e94:    7100b85f    _..q    CMP      w2,#0x2e
        0x00001e98:    540000a1    ...T    B.NE     0x1eac ; _printf_fp_hex_real + 916
        0x00001e9c:    121d00c2    ....    AND      w2,w6,#8
        0x00001ea0:    7100005f    _..q    CMP      w2,#0
        0x00001ea4:    54000041    A..T    B.NE     0x1eac ; _printf_fp_hex_real + 916
        0x00001ea8:    51000400    ...Q    SUB      w0,w0,#1
        0x00001eac:    7100029f    ...q    CMP      w20,#0
        0x00001eb0:    540000cd    ...T    B.LE     0x1ec8 ; _printf_fp_hex_real + 944
        0x00001eb4:    528007c4    ...R    MOV      w4,#0x3e
        0x00001eb8:    2a0003e3    ...*    MOV      w3,w0
        0x00001ebc:    11000400    ....    ADD      w0,w0,#1
        0x00001ec0:    3823dac4    ..#8    STRB     w4,[x22,w3,SXTW #0]
        0x00001ec4:    51000694    ...Q    SUB      w20,w20,#1
        0x00001ec8:    39404423    #D@9    LDRB     w3,[x1,#0x11]
        0x00001ecc:    11000401    ....    ADD      w1,w0,#1
        0x00001ed0:    3820dac3    .. 8    STRB     w3,[x22,w0,SXTW #0]
        0x00001ed4:    710002bf    ...q    CMP      w21,#0
        0x00001ed8:    540000ca    ...T    B.GE     0x1ef0 ; _printf_fp_hex_real + 984
        0x00001edc:    528005a3    ...R    MOV      w3,#0x2d
        0x00001ee0:    11000420     ...    ADD      w0,w1,#1
        0x00001ee4:    3821dac3    ..!8    STRB     w3,[x22,w1,SXTW #0]
        0x00001ee8:    4b1503f5    ...K    NEG      w21,w21
        0x00001eec:    14000004    ....    B        0x1efc ; _printf_fp_hex_real + 996
        0x00001ef0:    52800563    c..R    MOV      w3,#0x2b
        0x00001ef4:    11000420     ...    ADD      w0,w1,#1
        0x00001ef8:    3821dac3    ..!8    STRB     w3,[x22,w1,SXTW #0]
        0x00001efc:    52800142    B..R    MOV      w2,#0xa
        0x00001f00:    710fa2bf    ...q    CMP      w21,#0x3e8
        0x00001f04:    5400012b    +..T    B.LT     0x1f28 ; _printf_fp_hex_real + 1040
        0x00001f08:    52807d05    .}.R    MOV      w5,#0x3e8
        0x00001f0c:    1ac50ea3    ....    SDIV     w3,w21,w5
        0x00001f10:    1100c064    d...    ADD      w4,w3,#0x30
        0x00001f14:    2a0003e6    ...*    MOV      w6,w0
        0x00001f18:    11000400    ....    ADD      w0,w0,#1
        0x00001f1c:    3826dac4    ..&8    STRB     w4,[x22,w6,SXTW #0]
        0x00001f20:    1b03d4b5    ....    MSUB     w21,w5,w3,w21
        0x00001f24:    14000003    ....    B        0x1f30 ; _printf_fp_hex_real + 1048
        0x00001f28:    710192bf    ...q    CMP      w21,#0x64
        0x00001f2c:    5400012b    +..T    B.LT     0x1f50 ; _printf_fp_hex_real + 1080
        0x00001f30:    52800c84    ...R    MOV      w4,#0x64
        0x00001f34:    1ac40ea3    ....    SDIV     w3,w21,w4
        0x00001f38:    1100c065    e...    ADD      w5,w3,#0x30
        0x00001f3c:    2a0003e6    ...*    MOV      w6,w0
        0x00001f40:    11000400    ....    ADD      w0,w0,#1
        0x00001f44:    3826dac5    ..&8    STRB     w5,[x22,w6,SXTW #0]
        0x00001f48:    1b03d495    ....    MSUB     w21,w4,w3,w21
        0x00001f4c:    14000003    ....    B        0x1f58 ; _printf_fp_hex_real + 1088
        0x00001f50:    71002abf    .*.q    CMP      w21,#0xa
        0x00001f54:    540000cb    ...T    B.LT     0x1f6c ; _printf_fp_hex_real + 1108
        0x00001f58:    1ac20ea1    ....    SDIV     w1,w21,w2
        0x00001f5c:    1100c023    #...    ADD      w3,w1,#0x30
        0x00001f60:    2a0003e4    ...*    MOV      w4,w0
        0x00001f64:    11000400    ....    ADD      w0,w0,#1
        0x00001f68:    3824dac3    ..$8    STRB     w3,[x22,w4,SXTW #0]
        0x00001f6c:    1ac20ea1    ....    SDIV     w1,w21,w2
        0x00001f70:    1b01d441    A...    MSUB     w1,w2,w1,w21
        0x00001f74:    1100c022    "...    ADD      w2,w1,#0x30
        0x00001f78:    11000415    ....    ADD      w21,w0,#1
        0x00001f7c:    3820dac2    .. 8    STRB     w2,[x22,w0,SXTW #0]
        0x00001f80:    b9402e60    `.@.    LDR      w0,[x19,#0x2c]
        0x00001f84:    0b1402a1    ....    ADD      w1,w21,w20
        0x00001f88:    0b180021    !...    ADD      w1,w1,w24
        0x00001f8c:    4b010000    ...K    SUB      w0,w0,w1
        0x00001f90:    b9002e60    `...    STR      w0,[x19,#0x2c]
        0x00001f94:    b9400260    `.@.    LDR      w0,[x19,#0]
        0x00001f98:    121c0000    ....    AND      w0,w0,#0x10
        0x00001f9c:    7100001f    ...q    CMP      w0,#0
        0x00001fa0:    54000061    a..T    B.NE     0x1fac ; _printf_fp_hex_real + 1172
        0x00001fa4:    aa1303e0    ....    MOV      x0,x19
        0x00001fa8:    97fff8f9    ....    BL       _printf_pre_padding ; 0x38c
        0x00001fac:    b9403660    `6@.    LDR      w0,[x19,#0x34]
        0x00001fb0:    0b180000    ....    ADD      w0,w0,w24
        0x00001fb4:    b9003660    `6..    STR      w0,[x19,#0x34]
        0x00001fb8:    14000005    ....    B        0x1fcc ; _printf_fp_hex_real + 1204
        0x00001fbc:    384016e0    ..@8    LDRB     w0,[x23],#1
        0x00001fc0:    f9400a61    a.@.    LDR      x1,[x19,#0x10]
        0x00001fc4:    f9400662    b.@.    LDR      x2,[x19,#8]
        0x00001fc8:    d63f0040    @.?.    BLR      x2
        0x00001fcc:    71000718    ...q    SUBS     w24,w24,#1
        0x00001fd0:    54ffff62    b..T    B.CS     0x1fbc ; _printf_fp_hex_real + 1188
        0x00001fd4:    b9400260    `.@.    LDR      w0,[x19,#0]
        0x00001fd8:    121c0000    ....    AND      w0,w0,#0x10
        0x00001fdc:    7100001f    ...q    CMP      w0,#0
        0x00001fe0:    540001a0    ...T    B.EQ     0x2014 ; _printf_fp_hex_real + 1276
        0x00001fe4:    aa1303e0    ....    MOV      x0,x19
        0x00001fe8:    97fff8e9    ....    BL       _printf_pre_padding ; 0x38c
        0x00001fec:    1400000a    ....    B        0x2014 ; _printf_fp_hex_real + 1276
        0x00001ff0:    384016c0    ..@8    LDRB     w0,[x22],#1
        0x00001ff4:    7100f81f    ...q    CMP      w0,#0x3e
        0x00001ff8:    54000240    @..T    B.EQ     0x2040 ; _printf_fp_hex_real + 1320
        0x00001ffc:    f9400a61    a.@.    LDR      x1,[x19,#0x10]
        0x00002000:    f9400662    b.@.    LDR      x2,[x19,#8]
        0x00002004:    d63f0040    @.?.    BLR      x2
        0x00002008:    b9403660    `6@.    LDR      w0,[x19,#0x34]
        0x0000200c:    11000400    ....    ADD      w0,w0,#1
        0x00002010:    b9003660    `6..    STR      w0,[x19,#0x34]
        0x00002014:    710006b5    ...q    SUBS     w21,w21,#1
        0x00002018:    54fffec2    ...T    B.CS     0x1ff0 ; _printf_fp_hex_real + 1240
        0x0000201c:    aa1303e0    ....    MOV      x0,x19
        0x00002020:    97fff8fe    ....    BL       _printf_post_padding ; 0x418
        0x00002024:    52800060    `..R    MOV      w0,#3
        0x00002028:    a94453f3    .SD.    LDP      x19,x20,[sp,#0x40]
        0x0000202c:    a9455bf5    .[E.    LDP      x21,x22,[sp,#0x50]
        0x00002030:    a94663f7    .cF.    LDP      x23,x24,[sp,#0x60]
        0x00002034:    a9477bfd    .{G.    LDP      x29,x30,[sp,#0x70]
        0x00002038:    910203ff    ....    ADD      sp,sp,#0x80
        0x0000203c:    d65f03c0    .._.    RET      
        0x00002040:    b9403660    `6@.    LDR      w0,[x19,#0x34]
        0x00002044:    0b140000    ....    ADD      w0,w0,w20
        0x00002048:    b9003660    `6..    STR      w0,[x19,#0x34]
        0x0000204c:    14000005    ....    B        0x2060 ; _printf_fp_hex_real + 1352
        0x00002050:    f9400a61    a.@.    LDR      x1,[x19,#0x10]
        0x00002054:    f9400662    b.@.    LDR      x2,[x19,#8]
        0x00002058:    52800600    ...R    MOV      w0,#0x30
        0x0000205c:    d63f0040    @.?.    BLR      x2
        0x00002060:    71000694    ...q    SUBS     w20,w20,#1
        0x00002064:    54fffd83    ...T    B.CC     0x2014 ; _printf_fp_hex_real + 1276
        0x00002068:    17fffffa    ....    B        0x2050 ; _printf_fp_hex_real + 1336
    $d
        0x0000206c:    00000000    ....    DCD    0
        0x00002070:    00007ad0    .z..    DCD    31440
        0x00002074:    00000000    ....    DCD    0
        0x00002078:    00007abd    .z..    DCD    31421
        0x0000207c:    00000000    ....    DCD    0
    $x
    .text
    _printf_input_char
        0x00002080:    f8420c01    ..B.    LDR      x1,[x0,#0x20]!
        0x00002084:    aa0103e2    ....    MOV      x2,x1
        0x00002088:    91000442    B...    ADD      x2,x2,#1
        0x0000208c:    f9000002    ....    STR      x2,[x0,#0]
        0x00002090:    39400020     .@9    LDRB     w0,[x1,#0]
        0x00002094:    d65f03c0    .._.    RET      
    _printf_char_common
        0x00002098:    d10203ff    ....    SUB      sp,sp,#0x80
        0x0000209c:    a9077bfd    .{..    STP      x29,x30,[sp,#0x70]
        0x000020a0:    9101c3fd    ....    ADD      x29,sp,#0x70
        0x000020a4:    aa0203e4    ....    MOV      x4,x2
        0x000020a8:    f90007e3    ....    STR      x3,[sp,#8]
        0x000020ac:    f9000be1    ....    STR      x1,[sp,#0x10]
        0x000020b0:    52800001    ...R    MOV      w1,#0
        0x000020b4:    b9002be1    .+..    STR      w1,[sp,#0x28]
        0x000020b8:    580001c1    ...X    LDR      x1,{pc}+0x38 ; 0x20f0 ; [0x20f0] = 
        0x000020bc:    f9000fe1    ....    STR      x1,[sp,#0x18]
        0x000020c0:    f90013e0    ....    STR      x0,[sp,#0x20]
        0x000020c4:    d2800402    ....    MOV      x2,#0x20
        0x000020c8:    aa0403e1    ....    MOV      x1,x4
        0x000020cc:    910143e0    .C..    ADD      x0,sp,#0x50
        0x000020d0:    97fffbda    ....    BL       __aeabi_memcpy4 ; 0x1038
        0x000020d4:    910143e1    .C..    ADD      x1,sp,#0x50
        0x000020d8:    910003e0    ....    MOV      x0,sp
        0x000020dc:    97fffaff    ....    BL       __printf ; 0xcd8
        0x000020e0:    a9477bfd    .{G.    LDP      x29,x30,[sp,#0x70]
        0x000020e4:    910203ff    ....    ADD      sp,sp,#0x80
        0x000020e8:    d65f03c0    .._.    RET      
    $d
        0x000020ec:    00000000    ....    DCD    0
        0x000020f0:    00002080    . ..    DCD    8320
        0x000020f4:    00000000    ....    DCD    0
    $x
    .text
    _printf_cs_common
        0x000020f8:    d10083ff    ....    SUB      sp,sp,#0x20
        0x000020fc:    f9000bfe    ....    STR      x30,[sp,#0x10]
        0x00002100:    a90077f3    .w..    STP      x19,x29,[sp,#0]
        0x00002104:    910023fd    .#..    ADD      x29,sp,#8
        0x00002108:    2a0203f3    ...*    MOV      w19,w2
        0x0000210c:    b9402803    .(@.    LDR      w3,[x0,#0x28]
        0x00002110:    7100007f    ...q    CMP      w3,#0
        0x00002114:    54000060    `..T    B.EQ     0x2120 ; _printf_cs_common + 40
        0x00002118:    d503201f    . ..    NOP      
        0x0000211c:    14000002    ....    B        0x2124 ; _printf_cs_common + 44
        0x00002120:    97fff8ef    ....    BL       _printf_str ; 0x4dc
        0x00002124:    3100067f    ...1    CMN      w19,#1
        0x00002128:    540000c0    ...T    B.EQ     0x2140 ; _printf_cs_common + 72
        0x0000212c:    52800020     ..R    MOV      w0,#1
        0x00002130:    a94077f3    .w@.    LDP      x19,x29,[sp,#0]
        0x00002134:    f9400bfe    ..@.    LDR      x30,[sp,#0x10]
        0x00002138:    910083ff    ....    ADD      sp,sp,#0x20
        0x0000213c:    d65f03c0    .._.    RET      
        0x00002140:    52800040    @..R    MOV      w0,#2
        0x00002144:    a94077f3    .w@.    LDP      x19,x29,[sp,#0]
        0x00002148:    f9400bfe    ..@.    LDR      x30,[sp,#0x10]
        0x0000214c:    910083ff    ....    ADD      sp,sp,#0x20
        0x00002150:    d65f03c0    .._.    RET      
    _printf_char
        0x00002154:    9100e001    ....    ADD      x1,x0,#0x38
        0x00002158:    b9401844    D.@.    LDR      w4,[x2,#0x18]
        0x0000215c:    11002085    . ..    ADD      w5,w4,#8
        0x00002160:    710000bf    ...q    CMP      w5,#0
        0x00002164:    540000cc    ...T    B.GT     0x217c ; _printf_char + 40
        0x00002168:    f9400443    C.@.    LDR      x3,[x2,#8]
        0x0000216c:    8b24c063    c.$.    ADD      x3,x3,w4,SXTW
        0x00002170:    b9400064    d.@.    LDR      w4,[x3,#0]
        0x00002174:    b9001845    E...    STR      w5,[x2,#0x18]
        0x00002178:    14000004    ....    B        0x2188 ; _printf_char + 52
        0x0000217c:    f9400043    C.@.    LDR      x3,[x2,#0]
        0x00002180:    b8408464    d.@.    LDR      w4,[x3],#8
        0x00002184:    f9000043    C...    STR      x3,[x2,#0]
        0x00002188:    39000024    $..9    STRB     w4,[x1,#0]
        0x0000218c:    52800002    ...R    MOV      w2,#0
        0x00002190:    39000422    "..9    STRB     w2,[x1,#1]
        0x00002194:    52800022    "..R    MOV      w2,#1
        0x00002198:    17ffffd8    ....    B        _printf_cs_common ; 0x20f8
    _printf_string
        0x0000219c:    b9401844    D.@.    LDR      w4,[x2,#0x18]
        0x000021a0:    11002083    . ..    ADD      w3,w4,#8
        0x000021a4:    7100007f    ...q    CMP      w3,#0
        0x000021a8:    540000cc    ...T    B.GT     0x21c0 ; _printf_string + 36
        0x000021ac:    f9400441    A.@.    LDR      x1,[x2,#8]
        0x000021b0:    8b24c021    !.$.    ADD      x1,x1,w4,SXTW
        0x000021b4:    f9400021    !.@.    LDR      x1,[x1,#0]
        0x000021b8:    b9001843    C...    STR      w3,[x2,#0x18]
        0x000021bc:    14000004    ....    B        0x21cc ; _printf_string + 48
        0x000021c0:    f9400043    C.@.    LDR      x3,[x2,#0]
        0x000021c4:    f8408461    a.@.    LDR      x1,[x3],#8
        0x000021c8:    f9000043    C...    STR      x3,[x2,#0]
        0x000021cc:    12800002    ....    MOV      w2,#0xffffffff
        0x000021d0:    17ffffca    ....    B        _printf_cs_common ; 0x20f8
    .text
    _printf_lcs_common
        0x000021d4:    d10083ff    ....    SUB      sp,sp,#0x20
        0x000021d8:    f9000bfe    ....    STR      x30,[sp,#0x10]
        0x000021dc:    a90077f3    .w..    STP      x19,x29,[sp,#0]
        0x000021e0:    910023fd    .#..    ADD      x29,sp,#8
        0x000021e4:    2a0203f3    ...*    MOV      w19,w2
        0x000021e8:    b9402803    .(@.    LDR      w3,[x0,#0x28]
        0x000021ec:    7100007f    ...q    CMP      w3,#0
        0x000021f0:    54000060    `..T    B.EQ     0x21fc ; _printf_lcs_common + 40
        0x000021f4:    d503201f    . ..    NOP      
        0x000021f8:    14000002    ....    B        0x2200 ; _printf_lcs_common + 44
        0x000021fc:    97fff975    u...    BL       _printf_wctomb ; 0x7d0
        0x00002200:    3100067f    ...1    CMN      w19,#1
        0x00002204:    540000c0    ...T    B.EQ     0x221c ; _printf_lcs_common + 72
        0x00002208:    52800020     ..R    MOV      w0,#1
        0x0000220c:    a94077f3    .w@.    LDP      x19,x29,[sp,#0]
        0x00002210:    f9400bfe    ..@.    LDR      x30,[sp,#0x10]
        0x00002214:    910083ff    ....    ADD      sp,sp,#0x20
        0x00002218:    d65f03c0    .._.    RET      
        0x0000221c:    52800040    @..R    MOV      w0,#2
        0x00002220:    a94077f3    .w@.    LDP      x19,x29,[sp,#0]
        0x00002224:    f9400bfe    ..@.    LDR      x30,[sp,#0x10]
        0x00002228:    910083ff    ....    ADD      sp,sp,#0x20
        0x0000222c:    d65f03c0    .._.    RET      
    _printf_wchar
        0x00002230:    9100e001    ....    ADD      x1,x0,#0x38
        0x00002234:    b9401844    D.@.    LDR      w4,[x2,#0x18]
        0x00002238:    11002085    . ..    ADD      w5,w4,#8
        0x0000223c:    710000bf    ...q    CMP      w5,#0
        0x00002240:    540000cc    ...T    B.GT     0x2258 ; _printf_wchar + 40
        0x00002244:    f9400443    C.@.    LDR      x3,[x2,#8]
        0x00002248:    8b24c063    c.$.    ADD      x3,x3,w4,SXTW
        0x0000224c:    b9400064    d.@.    LDR      w4,[x3,#0]
        0x00002250:    b9001845    E...    STR      w5,[x2,#0x18]
        0x00002254:    14000004    ....    B        0x2264 ; _printf_wchar + 52
        0x00002258:    f9400043    C.@.    LDR      x3,[x2,#0]
        0x0000225c:    b8408464    d.@.    LDR      w4,[x3],#8
        0x00002260:    f9000043    C...    STR      x3,[x2,#0]
        0x00002264:    52800002    ...R    MOV      w2,#0
        0x00002268:    29000824    $..)    STP      w4,w2,[x1,#0]
        0x0000226c:    52800022    "..R    MOV      w2,#1
        0x00002270:    17ffffd9    ....    B        _printf_lcs_common ; 0x21d4
    _printf_wstring
        0x00002274:    b9401844    D.@.    LDR      w4,[x2,#0x18]
        0x00002278:    11002083    . ..    ADD      w3,w4,#8
        0x0000227c:    7100007f    ...q    CMP      w3,#0
        0x00002280:    540000cc    ...T    B.GT     0x2298 ; _printf_wstring + 36
        0x00002284:    f9400441    A.@.    LDR      x1,[x2,#8]
        0x00002288:    8b24c021    !.$.    ADD      x1,x1,w4,SXTW
        0x0000228c:    f9400021    !.@.    LDR      x1,[x1,#0]
        0x00002290:    b9001843    C...    STR      w3,[x2,#0x18]
        0x00002294:    14000004    ....    B        0x22a4 ; _printf_wstring + 48
        0x00002298:    f9400043    C.@.    LDR      x3,[x2,#0]
        0x0000229c:    f8408461    a.@.    LDR      x1,[x3],#8
        0x000022a0:    f9000043    C...    STR      x3,[x2,#0]
        0x000022a4:    12800002    ....    MOV      w2,#0xffffffff
        0x000022a8:    17ffffcb    ....    B        _printf_lcs_common ; 0x21d4
    .text
    ferror
        0x000022ac:    b9401400    ..@.    LDR      w0,[x0,#0x14]
        0x000022b0:    12190000    ....    AND      w0,w0,#0x80
        0x000022b4:    d65f03c0    .._.    RET      
    .text
    _initio
        0x000022b8:    d10083ff    ....    SUB      sp,sp,#0x20
        0x000022bc:    a9017bfd    .{..    STP      x29,x30,[sp,#0x10]
        0x000022c0:    910043fd    .C..    ADD      x29,sp,#0x10
        0x000022c4:    a90053f3    .S..    STP      x19,x20,[sp,#0]
        0x000022c8:    d2801113    ....    MOV      x19,#0x88
        0x000022cc:    aa1303e1    ....    MOV      x1,x19
        0x000022d0:    58000e00    ...X    LDR      x0,{pc}+0x1c0 ; 0x2490 ; [0x2490] = 
        0x000022d4:    97fffbca    ....    BL       __aeabi_memclr4 ; 0x11fc
        0x000022d8:    aa1303e1    ....    MOV      x1,x19
        0x000022dc:    58000de0    ...X    LDR      x0,{pc}+0x1bc ; 0x2498 ; [0x2498] = 
        0x000022e0:    97fffbc7    ....    BL       __aeabi_memclr4 ; 0x11fc
        0x000022e4:    aa1303e1    ....    MOV      x1,x19
        0x000022e8:    58000dc0    ...X    LDR      x0,{pc}+0x1b8 ; 0x24a0 ; [0x24a0] = 
        0x000022ec:    97fffbc4    ....    BL       __aeabi_memclr4 ; 0x11fc
        0x000022f0:    58000d03    ...X    LDR      x3,{pc}+0x1a0 ; 0x2490 ; [0x2490] = 
        0x000022f4:    58000da1    ...X    LDR      x1,{pc}+0x1b4 ; 0x24a8 ; [0x24a8] = 
        0x000022f8:    f9000023    #...    STR      x3,[x1,#0]
        0x000022fc:    58000ce1    ...X    LDR      x1,{pc}+0x19c ; 0x2498 ; [0x2498] = 
        0x00002300:    58000d82    ...X    LDR      x2,{pc}+0x1b0 ; 0x24b0 ; [0x24b0] = 
        0x00002304:    f9000041    A...    STR      x1,[x2,#0]
        0x00002308:    58000cc0    ...X    LDR      x0,{pc}+0x198 ; 0x24a0 ; [0x24a0] = 
        0x0000230c:    58000d64    d..X    LDR      x4,{pc}+0x1ac ; 0x24b8 ; [0x24b8] = 
        0x00002310:    f9000080    ....    STR      x0,[x4,#0]
        0x00002314:    d2800022    "...    MOV      x2,#1
        0x00002318:    b2400024    $.@.    ORR      x4,x1,#1
        0x0000231c:    f9004064    d@..    STR      x4,[x3,#0x80]
        0x00002320:    b2400003    ..@.    ORR      x3,x0,#1
        0x00002324:    f9004023    #@..    STR      x3,[x1,#0x80]
        0x00002328:    f9004002    .@..    STR      x2,[x0,#0x80]
        0x0000232c:    58000b22    "..X    LDR      x2,{pc}+0x164 ; 0x2490 ; [0x2490] = 
        0x00002330:    10000c81    ....    ADR      x1,{pc}+0x190 ; 0x24c0
        0x00002334:    58000ca0    ...X    LDR      x0,{pc}+0x194 ; 0x24c8 ; [0x24c8] = 
        0x00002338:    9400053c    <...    BL       _freopen_locked ; 0x3828
        0x0000233c:    d2800013    ....    MOV      x19,#0
        0x00002340:    f100001f    ....    CMP      x0,#0
        0x00002344:    54000061    a..T    B.NE     0x2350 ; _initio + 152
        0x00002348:    58000c00    ...X    LDR      x0,{pc}+0x180 ; 0x24c8 ; [0x24c8] = 
        0x0000234c:    9400004f    O...    BL       __open_fail ; 0x2488
        0x00002350:    58000a42    B..X    LDR      x2,{pc}+0x148 ; 0x2498 ; [0x2498] = 
        0x00002354:    10000be1    ....    ADR      x1,{pc}+0x17c ; 0x24d0
        0x00002358:    58000c00    ...X    LDR      x0,{pc}+0x180 ; 0x24d8 ; [0x24d8] = 
        0x0000235c:    94000533    3...    BL       _freopen_locked ; 0x3828
        0x00002360:    f100001f    ....    CMP      x0,#0
        0x00002364:    54000061    a..T    B.NE     0x2370 ; _initio + 184
        0x00002368:    58000b80    ...X    LDR      x0,{pc}+0x170 ; 0x24d8 ; [0x24d8] = 
        0x0000236c:    94000047    G...    BL       __open_fail ; 0x2488
        0x00002370:    58000982    ...X    LDR      x2,{pc}+0x130 ; 0x24a0 ; [0x24a0] = 
        0x00002374:    10000ae1    ....    ADR      x1,{pc}+0x15c ; 0x24d0
        0x00002378:    58000b40    @..X    LDR      x0,{pc}+0x168 ; 0x24e0 ; [0x24e0] = 
        0x0000237c:    9400052b    +...    BL       _freopen_locked ; 0x3828
        0x00002380:    f100001f    ....    CMP      x0,#0
        0x00002384:    54000061    a..T    B.NE     0x2390 ; _initio + 216
        0x00002388:    58000ac0    ...X    LDR      x0,{pc}+0x158 ; 0x24e0 ; [0x24e0] = 
        0x0000238c:    9400003f    ?...    BL       __open_fail ; 0x2488
        0x00002390:    d2800814    ....    MOV      x20,#0x40
        0x00002394:    aa1403e3    ....    MOV      x3,x20
        0x00002398:    52804002    .@.R    MOV      w2,#0x200
        0x0000239c:    aa1303e1    ....    MOV      x1,x19
        0x000023a0:    58000780    ...X    LDR      x0,{pc}+0xf0 ; 0x2490 ; [0x2490] = 
        0x000023a4:    94000503    ....    BL       setvbuf ; 0x37b0
        0x000023a8:    7100001f    ...q    CMP      w0,#0
        0x000023ac:    54000060    `..T    B.EQ     0x23b8 ; _initio + 256
        0x000023b0:    580008c0    ...X    LDR      x0,{pc}+0x118 ; 0x24c8 ; [0x24c8] = 
        0x000023b4:    94000035    5...    BL       __open_fail ; 0x2488
        0x000023b8:    aa1403e3    ....    MOV      x3,x20
        0x000023bc:    52804002    .@.R    MOV      w2,#0x200
        0x000023c0:    aa1303e1    ....    MOV      x1,x19
        0x000023c4:    580006a0    ...X    LDR      x0,{pc}+0xd4 ; 0x2498 ; [0x2498] = 
        0x000023c8:    940004fa    ....    BL       setvbuf ; 0x37b0
        0x000023cc:    7100001f    ...q    CMP      w0,#0
        0x000023d0:    54000060    `..T    B.EQ     0x23dc ; _initio + 292
        0x000023d4:    58000820     ..X    LDR      x0,{pc}+0x104 ; 0x24d8 ; [0x24d8] = 
        0x000023d8:    9400002c    ,...    BL       __open_fail ; 0x2488
        0x000023dc:    d2800203    ....    MOV      x3,#0x10
        0x000023e0:    52804002    .@.R    MOV      w2,#0x200
        0x000023e4:    aa1303e1    ....    MOV      x1,x19
        0x000023e8:    580005c0    ...X    LDR      x0,{pc}+0xb8 ; 0x24a0 ; [0x24a0] = 
        0x000023ec:    940004f1    ....    BL       setvbuf ; 0x37b0
        0x000023f0:    7100001f    ...q    CMP      w0,#0
        0x000023f4:    540000c0    ...T    B.EQ     0x240c ; _initio + 340
        0x000023f8:    58000740    @..X    LDR      x0,{pc}+0xe8 ; 0x24e0 ; [0x24e0] = 
        0x000023fc:    a94053f3    .S@.    LDP      x19,x20,[sp,#0]
        0x00002400:    a9417bfd    .{A.    LDP      x29,x30,[sp,#0x10]
        0x00002404:    910083ff    ....    ADD      sp,sp,#0x20
        0x00002408:    14000020     ...    B        __open_fail ; 0x2488
        0x0000240c:    a94053f3    .S@.    LDP      x19,x20,[sp,#0]
        0x00002410:    a9417bfd    .{A.    LDP      x29,x30,[sp,#0x10]
        0x00002414:    910083ff    ....    ADD      sp,sp,#0x20
        0x00002418:    d65f03c0    .._.    RET      
    _terminateio
        0x0000241c:    d10083ff    ....    SUB      sp,sp,#0x20
        0x00002420:    a9017bfd    .{..    STP      x29,x30,[sp,#0x10]
        0x00002424:    910043fd    .C..    ADD      x29,sp,#0x10
        0x00002428:    a90053f3    .S..    STP      x19,x20,[sp,#0]
        0x0000242c:    580003a0    ...X    LDR      x0,{pc}+0x74 ; 0x24a0 ; [0x24a0] = 
        0x00002430:    f9404000    .@@.    LDR      x0,[x0,#0x80]
        0x00002434:    927ff813    ....    AND      x19,x0,#0xfffffffffffffffe
        0x00002438:    580002c0    ...X    LDR      x0,{pc}+0x58 ; 0x2490 ; [0x2490] = 
        0x0000243c:    94000583    ....    BL       _fclose_internal ; 0x3a48
        0x00002440:    580002c0    ...X    LDR      x0,{pc}+0x58 ; 0x2498 ; [0x2498] = 
        0x00002444:    94000581    ....    BL       _fclose_internal ; 0x3a48
        0x00002448:    580002c0    ...X    LDR      x0,{pc}+0x58 ; 0x24a0 ; [0x24a0] = 
        0x0000244c:    9400057f    ....    BL       _fclose_internal ; 0x3a48
        0x00002450:    14000008    ....    B        0x2470 ; _terminateio + 84
        0x00002454:    f9404260    `B@.    LDR      x0,[x19,#0x80]
        0x00002458:    927ff814    ....    AND      x20,x0,#0xfffffffffffffffe
        0x0000245c:    aa1303e0    ....    MOV      x0,x19
        0x00002460:    9400057a    z...    BL       _fclose_internal ; 0x3a48
        0x00002464:    aa1303e0    ....    MOV      x0,x19
        0x00002468:    94000056    V...    BL       free ; 0x25c0
        0x0000246c:    aa1403f3    ....    MOV      x19,x20
        0x00002470:    f100027f    ....    CMP      x19,#0
        0x00002474:    54ffff01    ...T    B.NE     0x2454 ; _terminateio + 56
        0x00002478:    a94053f3    .S@.    LDP      x19,x20,[sp,#0]
        0x0000247c:    a9417bfd    .{A.    LDP      x29,x30,[sp,#0x10]
        0x00002480:    910083ff    ....    ADD      sp,sp,#0x20
        0x00002484:    d65f03c0    .._.    RET      
    __open_fail
        0x00002488:    140005a8    ....    B        __rt_SIGRTRED ; 0x3b28
    $d
        0x0000248c:    00000000    ....    DCD    0
        0x00002490:    04000020     ...    DCD    67108896
        0x00002494:    00000000    ....    DCD    0
        0x00002498:    040000a8    ....    DCD    67109032
        0x0000249c:    00000000    ....    DCD    0
        0x000024a0:    04000130    0...    DCD    67109168
        0x000024a4:    00000000    ....    DCD    0
        0x000024a8:    04000000    ....    DCD    67108864
        0x000024ac:    00000000    ....    DCD    0
        0x000024b0:    04000008    ....    DCD    67108872
        0x000024b4:    00000000    ....    DCD    0
        0x000024b8:    04000010    ....    DCD    67108880
        0x000024bc:    00000000    ....    DCD    0
        0x000024c0:    00000072    r...    DCD    114
        0x000024c4:    00000000    ....    DCD    0
        0x000024c8:    00007ae3    .z..    DCD    31459
        0x000024cc:    00000000    ....    DCD    0
        0x000024d0:    00000077    w...    DCD    119
        0x000024d4:    00000000    ....    DCD    0
        0x000024d8:    00007ae7    .z..    DCD    31463
        0x000024dc:    00000000    ....    DCD    0
        0x000024e0:    00007aeb    .z..    DCD    31467
        0x000024e4:    00000000    ....    DCD    0
    $x
    .text
    _c32rtomb
    _wcrtomb
        0x000024e8:    d100c3ff    ....    SUB      sp,sp,#0x30
        0x000024ec:    f90013fe    ....    STR      x30,[sp,#0x20]
        0x000024f0:    a90177f5    .w..    STP      x21,x29,[sp,#0x10]
        0x000024f4:    910063fd    .c..    ADD      x29,sp,#0x18
        0x000024f8:    a90053f3    .S..    STP      x19,x20,[sp,#0]
        0x000024fc:    aa0003f4    ....    MOV      x20,x0
        0x00002500:    2a0103f3    ...*    MOV      w19,w1
        0x00002504:    aa0203f5    ....    MOV      x21,x2
        0x00002508:    94000025    %...    BL       __rt_ctype_table ; 0x259c
        0x0000250c:    f9400001    ..@.    LDR      x1,[x0,#0]
        0x00002510:    39440421    !.D9    LDRB     w1,[x1,#0x101]
        0x00002514:    7100043f    ?..q    CMP      w1,#1
        0x00002518:    540001c0    ...T    B.EQ     0x2550 ; _c32rtomb + 104
        0x0000251c:    7103fe7f    ...q    CMP      w19,#0xff
        0x00002520:    54000328    (..T    B.HI     0x2584 ; _c32rtomb + 156
        0x00002524:    f9400000    ..@.    LDR      x0,[x0,#0]
        0x00002528:    38735800    .Xs8    LDRB     w0,[x0,w19,UXTW #0]
        0x0000252c:    7100001f    ...q    CMP      w0,#0
        0x00002530:    540002a0    ...T    B.EQ     0x2584 ; _c32rtomb + 156
        0x00002534:    39000293    ...9    STRB     w19,[x20,#0]
        0x00002538:    d2800020     ...    MOV      x0,#1
        0x0000253c:    a94053f3    .S@.    LDP      x19,x20,[sp,#0]
        0x00002540:    a94177f5    .wA.    LDP      x21,x29,[sp,#0x10]
        0x00002544:    f94013fe    ..@.    LDR      x30,[sp,#0x20]
        0x00002548:    9100c3ff    ....    ADD      sp,sp,#0x30
        0x0000254c:    d65f03c0    .._.    RET      
        0x00002550:    f9400000    ..@.    LDR      x0,[x0,#0]
        0x00002554:    91042c00    .,..    ADD      x0,x0,#0x10b
        0x00002558:    f9400001    ..@.    LDR      x1,[x0,#0]
        0x0000255c:    8b000024    $...    ADD      x4,x1,x0
        0x00002560:    52800023    #..R    MOV      w3,#1
        0x00002564:    aa1503e2    ....    MOV      x2,x21
        0x00002568:    2a1303e1    ...*    MOV      w1,w19
        0x0000256c:    aa1403e0    ....    MOV      x0,x20
        0x00002570:    a94053f3    .S@.    LDP      x19,x20,[sp,#0]
        0x00002574:    a94177f5    .wA.    LDP      x21,x29,[sp,#0x10]
        0x00002578:    f94013fe    ..@.    LDR      x30,[sp,#0x20]
        0x0000257c:    9100c3ff    ....    ADD      sp,sp,#0x30
        0x00002580:    d61f0080    ....    BR       x4
        0x00002584:    92800000    ....    MOV      x0,#-1
        0x00002588:    a94053f3    .S@.    LDP      x19,x20,[sp,#0]
        0x0000258c:    a94177f5    .wA.    LDP      x21,x29,[sp,#0x10]
        0x00002590:    f94013fe    ..@.    LDR      x30,[sp,#0x20]
        0x00002594:    9100c3ff    ....    ADD      sp,sp,#0x30
        0x00002598:    d65f03c0    .._.    RET      
    .text
    __rt_ctype_table
        0x0000259c:    a9bf7bf5    .{..    STP      x21,x30,[sp,#-0x10]!
        0x000025a0:    94000004    ....    BL       __rt_locale ; 0x25b0
        0x000025a4:    91002000    . ..    ADD      x0,x0,#8
        0x000025a8:    a8c17bf5    .{..    LDP      x21,x30,[sp],#0x10
        0x000025ac:    d65f03c0    .._.    RET      
    .text
    __rt_locale
        0x000025b0:    58000040    @..X    LDR      x0,{pc}+8 ; 0x25b8 ; [0x25b8] = 
        0x000025b4:    d65f03c0    .._.    RET      
    $d
        0x000025b8:    040001b8    ....    DCD    67109304
        0x000025bc:    00000000    ....    DCD    0
    $x
    .text
    free
        0x000025c0:    d10083ff    ....    SUB      sp,sp,#0x20
        0x000025c4:    a9017bfd    .{..    STP      x29,x30,[sp,#0x10]
        0x000025c8:    910043fd    .C..    ADD      x29,sp,#0x10
        0x000025cc:    a90053f3    .S..    STP      x19,x20,[sp,#0]
        0x000025d0:    aa0003f3    ....    MOV      x19,x0
        0x000025d4:    d1002274    t"..    SUB      x20,x19,#8
        0x000025d8:    940005b8    ....    BL       __rt_heap_descriptor ; 0x3cb8
        0x000025dc:    f9400000    ..@.    LDR      x0,[x0,#0]
        0x000025e0:    f100027f    ....    CMP      x19,#0
        0x000025e4:    54000380    ...T    B.EQ     0x2654 ; free + 148
        0x000025e8:    f9400413    ..@.    LDR      x19,[x0,#8]
        0x000025ec:    14000003    ....    B        0x25f8 ; free + 56
        0x000025f0:    aa1303e0    ....    MOV      x0,x19
        0x000025f4:    f9400413    ..@.    LDR      x19,[x0,#8]
        0x000025f8:    f100027f    ....    CMP      x19,#0
        0x000025fc:    54000060    `..T    B.EQ     0x2608 ; free + 72
        0x00002600:    eb13029f    ....    CMP      x20,x19
        0x00002604:    54ffff68    h..T    B.HI     0x25f0 ; free + 48
        0x00002608:    f9400001    ..@.    LDR      x1,[x0,#0]
        0x0000260c:    8b000022    "...    ADD      x2,x1,x0
        0x00002610:    eb14005f    _...    CMP      x2,x20
        0x00002614:    540000c1    ...T    B.NE     0x262c ; free + 108
        0x00002618:    f9400282    ..@.    LDR      x2,[x20,#0]
        0x0000261c:    8b020021    !...    ADD      x1,x1,x2
        0x00002620:    f9000001    ....    STR      x1,[x0,#0]
        0x00002624:    aa0003f4    ....    MOV      x20,x0
        0x00002628:    14000002    ....    B        0x2630 ; free + 112
        0x0000262c:    f9000414    ....    STR      x20,[x0,#8]
        0x00002630:    f9400280    ..@.    LDR      x0,[x20,#0]
        0x00002634:    8b140001    ....    ADD      x1,x0,x20
        0x00002638:    eb13003f    ?...    CMP      x1,x19
        0x0000263c:    54000141    A..T    B.NE     0x2664 ; free + 164
        0x00002640:    f9400661    a.@.    LDR      x1,[x19,#8]
        0x00002644:    f9000681    ....    STR      x1,[x20,#8]
        0x00002648:    f9400261    a.@.    LDR      x1,[x19,#0]
        0x0000264c:    8b010000    ....    ADD      x0,x0,x1
        0x00002650:    f9000280    ....    STR      x0,[x20,#0]
        0x00002654:    a94053f3    .S@.    LDP      x19,x20,[sp,#0]
        0x00002658:    a9417bfd    .{A.    LDP      x29,x30,[sp,#0x10]
        0x0000265c:    910083ff    ....    ADD      sp,sp,#0x20
        0x00002660:    d65f03c0    .._.    RET      
        0x00002664:    f9000693    ....    STR      x19,[x20,#8]
        0x00002668:    a94053f3    .S@.    LDP      x19,x20,[sp,#0]
        0x0000266c:    a9417bfd    .{A.    LDP      x29,x30,[sp,#0x10]
        0x00002670:    910083ff    ....    ADD      sp,sp,#0x20
        0x00002674:    d65f03c0    .._.    RET      
    .text
    _printf_fp_infnan
        0x00002678:    d100c3ff    ....    SUB      sp,sp,#0x30
        0x0000267c:    a9027bfd    .{..    STP      x29,x30,[sp,#0x20]
        0x00002680:    910083fd    ....    ADD      x29,sp,#0x20
        0x00002684:    a9015bf5    .[..    STP      x21,x22,[sp,#0x10]
        0x00002688:    a90053f3    .S..    STP      x19,x20,[sp,#0]
        0x0000268c:    aa0003f3    ....    MOV      x19,x0
        0x00002690:    52800075    u..R    MOV      w21,#3
        0x00002694:    b9400261    a.@.    LDR      w1,[x19,#0]
        0x00002698:    12150020     ...    AND      w0,w1,#0x800
        0x0000269c:    71001c5f    _..q    CMP      w2,#7
        0x000026a0:    540000eb    ...T    B.LT     0x26bc ; _printf_fp_infnan + 68
        0x000026a4:    7100001f    ...q    CMP      w0,#0
        0x000026a8:    54000060    `..T    B.EQ     0x26b4 ; _printf_fp_infnan + 60
        0x000026ac:    10000614    ....    ADR      x20,{pc}+0xc0 ; 0x276c
        0x000026b0:    14000008    ....    B        0x26d0 ; _printf_fp_infnan + 88
        0x000026b4:    100005f4    ....    ADR      x20,{pc}+0xbc ; 0x2770
        0x000026b8:    14000006    ....    B        0x26d0 ; _printf_fp_infnan + 88
        0x000026bc:    7100001f    ...q    CMP      w0,#0
        0x000026c0:    54000060    `..T    B.EQ     0x26cc ; _printf_fp_infnan + 84
        0x000026c4:    10000594    ....    ADR      x20,{pc}+0xb0 ; 0x2774
        0x000026c8:    14000002    ....    B        0x26d0 ; _printf_fp_infnan + 88
        0x000026cc:    10000574    t...    ADR      x20,{pc}+0xac ; 0x2778
        0x000026d0:    121b7820     x..    AND      w0,w1,#0xffffffef
        0x000026d4:    b9000260    `...    STR      w0,[x19,#0]
        0x000026d8:    b9402e60    `.@.    LDR      w0,[x19,#0x2c]
        0x000026dc:    51000c00    ...Q    SUB      w0,w0,#3
        0x000026e0:    b9002e60    `...    STR      w0,[x19,#0x2c]
        0x000026e4:    53001c76    v..S    UXTB     w22,w3
        0x000026e8:    710002df    ...q    CMP      w22,#0
        0x000026ec:    54000060    `..T    B.EQ     0x26f8 ; _printf_fp_infnan + 128
        0x000026f0:    51000400    ...Q    SUB      w0,w0,#1
        0x000026f4:    b9002e60    `...    STR      w0,[x19,#0x2c]
        0x000026f8:    aa1303e0    ....    MOV      x0,x19
        0x000026fc:    97fff724    $...    BL       _printf_pre_padding ; 0x38c
        0x00002700:    710002df    ...q    CMP      w22,#0
        0x00002704:    54000160    `..T    B.EQ     0x2730 ; _printf_fp_infnan + 184
        0x00002708:    f9400a61    a.@.    LDR      x1,[x19,#0x10]
        0x0000270c:    f9400662    b.@.    LDR      x2,[x19,#8]
        0x00002710:    2a1603e0    ...*    MOV      w0,w22
        0x00002714:    d63f0040    @.?.    BLR      x2
        0x00002718:    b9403660    `6@.    LDR      w0,[x19,#0x34]
        0x0000271c:    11000400    ....    ADD      w0,w0,#1
        0x00002720:    b9003660    `6..    STR      w0,[x19,#0x34]
        0x00002724:    11000c00    ....    ADD      w0,w0,#3
        0x00002728:    b9003660    `6..    STR      w0,[x19,#0x34]
        0x0000272c:    14000007    ....    B        0x2748 ; _printf_fp_infnan + 208
        0x00002730:    b9403660    `6@.    LDR      w0,[x19,#0x34]
        0x00002734:    17fffffc    ....    B        0x2724 ; _printf_fp_infnan + 172
        0x00002738:    38401680    ..@8    LDRB     w0,[x20],#1
        0x0000273c:    f9400a61    a.@.    LDR      x1,[x19,#0x10]
        0x00002740:    f9400662    b.@.    LDR      x2,[x19,#8]
        0x00002744:    d63f0040    @.?.    BLR      x2
        0x00002748:    710006b5    ...q    SUBS     w21,w21,#1
        0x0000274c:    54ffff62    b..T    B.CS     0x2738 ; _printf_fp_infnan + 192
        0x00002750:    aa1303e0    ....    MOV      x0,x19
        0x00002754:    97fff731    1...    BL       _printf_post_padding ; 0x418
        0x00002758:    a94053f3    .S@.    LDP      x19,x20,[sp,#0]
        0x0000275c:    a9415bf5    .[A.    LDP      x21,x22,[sp,#0x10]
        0x00002760:    a9427bfd    .{B.    LDP      x29,x30,[sp,#0x20]
        0x00002764:    9100c3ff    ....    ADD      sp,sp,#0x30
        0x00002768:    d65f03c0    .._.    RET      
    $d
        0x0000276c:    004e414e    NAN.    DCD    5128526
        0x00002770:    006e616e    nan.    DCD    7233902
        0x00002774:    00464e49    INF.    DCD    4607561
        0x00002778:    00666e69    inf.    DCD    6712937
        0x0000277c:    00000000    ....    DCD    0
    $x
    .text
    _btod_etento
        0x00002780:    d102c3ff    ....    SUB      sp,sp,#0xb0
        0x00002784:    f90053fe    .S..    STR      x30,[sp,#0xa0]
        0x00002788:    a90977fb    .w..    STP      x27,x29,[sp,#0x90]
        0x0000278c:    910263fd    .c..    ADD      x29,sp,#0x98
        0x00002790:    a9086bf9    .k..    STP      x25,x26,[sp,#0x80]
        0x00002794:    a90763f7    .c..    STP      x23,x24,[sp,#0x70]
        0x00002798:    a9065bf5    .[..    STP      x21,x22,[sp,#0x60]
        0x0000279c:    a90553f3    .S..    STP      x19,x20,[sp,#0x50]
        0x000027a0:    aa0803f7    ....    MOV      x23,x8
        0x000027a4:    2a0003f4    ...*    MOV      w20,w0
        0x000027a8:    2a0103f6    ...*    MOV      w22,w1
        0x000027ac:    d280031a    ....    MOV      x26,#0x18
        0x000027b0:    aa1a03f3    ....    MOV      x19,x26
        0x000027b4:    aa1303e2    ....    MOV      x2,x19
        0x000027b8:    58000b81    ...X    LDR      x1,{pc}+0x170 ; 0x2928 ; [0x2928] = 
        0x000027bc:    910003e0    ....    MOV      x0,sp
        0x000027c0:    97fffa1e    ....    BL       __aeabi_memcpy4 ; 0x1038
        0x000027c4:    aa1303e2    ....    MOV      x2,x19
        0x000027c8:    58000b41    A..X    LDR      x1,{pc}+0x168 ; 0x2930 ; [0x2930] = 
        0x000027cc:    910063e0    .c..    ADD      x0,sp,#0x18
        0x000027d0:    97fffa1a    ....    BL       __aeabi_memcpy4 ; 0x1038
        0x000027d4:    52837000    .p.R    MOV      w0,#0x1b80
        0x000027d8:    0b000280    ....    ADD      w0,w20,w0
        0x000027dc:    11006c00    .l..    ADD      w0,w0,#0x1b
        0x000027e0:    528006e2    ...R    MOV      w2,#0x37
        0x000027e4:    1ac20c01    ....    SDIV     w1,w0,w2
        0x000027e8:    51020034    4..Q    SUB      w20,w1,#0x80
        0x000027ec:    1b018040    @...    MSUB     w0,w2,w1,w0
        0x000027f0:    71006c13    .l.q    SUBS     w19,w0,#0x1b
        0x000027f4:    54000085    ...T    B.PL     0x2804 ; _btod_etento + 132
        0x000027f8:    4b1303f3    ...K    NEG      w19,w19
        0x000027fc:    52800038    8..R    MOV      w24,#1
        0x00002800:    14000002    ....    B        0x2808 ; _btod_etento + 136
        0x00002804:    52800018    ...R    MOV      w24,#0
        0x00002808:    52800015    ...R    MOV      w21,#0
        0x0000280c:    52800319    ...R    MOV      w25,#0x18
        0x00002810:    5800095b    [..X    LDR      x27,{pc}+0x128 ; 0x2938 ; [0x2938] = 
        0x00002814:    1400000e    ....    B        0x284c ; _btod_etento + 204
        0x00002818:    12000260    `...    AND      w0,w19,#1
        0x0000281c:    7100001f    ...q    CMP      w0,#0
        0x00002820:    54000120     ..T    B.EQ     0x2844 ; _btod_etento + 196
        0x00002824:    9b396ea1    .n9.    SMADDL   x1,w21,w25,x27
        0x00002828:    52800023    #..R    MOV      w3,#1
        0x0000282c:    2a1603e2    ...*    MOV      w2,w22
        0x00002830:    910003e0    ....    MOV      x0,sp
        0x00002834:    94000238    8...    BL       _btod_emul ; 0x3114
        0x00002838:    f90003e0    ....    STR      x0,[sp,#0]
        0x0000283c:    f90007e1    ....    STR      x1,[sp,#8]
        0x00002840:    f9000be2    ....    STR      x2,[sp,#0x10]
        0x00002844:    13017e73    s~..    ASR      w19,w19,#1
        0x00002848:    110006b5    ....    ADD      w21,w21,#1
        0x0000284c:    7100027f    ...q    CMP      w19,#0
        0x00002850:    54fffe41    A..T    B.NE     0x2818 ; _btod_etento + 152
        0x00002854:    58000779    y..X    LDR      x25,{pc}+0xec ; 0x2940 ; [0x2940] = 
        0x00002858:    1400001c    ....    B        0x28c8 ; _btod_etento + 328
        0x0000285c:    12000280    ....    AND      w0,w20,#1
        0x00002860:    7100001f    ...q    CMP      w0,#0
        0x00002864:    540002e0    ...T    B.EQ     0x28c0 ; _btod_etento + 320
        0x00002868:    aa1903f5    ....    MOV      x21,x25
        0x0000286c:    93407e61    a~@.    SXTW     x1,w19
        0x00002870:    8b011721    !...    ADD      x1,x25,x1,LSL #5
        0x00002874:    aa1a03e2    ....    MOV      x2,x26
        0x00002878:    9100c3e0    ....    ADD      x0,sp,#0x30
        0x0000287c:    97fff9ef    ....    BL       __aeabi_memcpy4 ; 0x1038
        0x00002880:    93407e60    `~@.    SXTW     x0,w19
        0x00002884:    8b0016a0    ....    ADD      x0,x21,x0,LSL #5
        0x00002888:    b9401800    ..@.    LDR      w0,[x0,#0x18]
        0x0000288c:    2b16001f    ...+    CMN      w0,w22
        0x00002890:    54000081    ...T    B.NE     0x28a0 ; _btod_etento + 288
        0x00002894:    b94043e0    .C@.    LDR      w0,[sp,#0x40]
        0x00002898:    0b160000    ....    ADD      w0,w0,w22
        0x0000289c:    b90043e0    .C..    STR      w0,[sp,#0x40]
        0x000028a0:    52800023    #..R    MOV      w3,#1
        0x000028a4:    2a1603e2    ...*    MOV      w2,w22
        0x000028a8:    9100c3e1    ....    ADD      x1,sp,#0x30
        0x000028ac:    910063e0    .c..    ADD      x0,sp,#0x18
        0x000028b0:    94000219    ....    BL       _btod_emul ; 0x3114
        0x000028b4:    f9000fe0    ....    STR      x0,[sp,#0x18]
        0x000028b8:    f90013e1    ....    STR      x1,[sp,#0x20]
        0x000028bc:    f90017e2    ....    STR      x2,[sp,#0x28]
        0x000028c0:    13017e94    .~..    ASR      w20,w20,#1
        0x000028c4:    11000673    s...    ADD      w19,w19,#1
        0x000028c8:    7100029f    ...q    CMP      w20,#0
        0x000028cc:    54fffc81    ...T    B.NE     0x285c ; _btod_etento + 220
        0x000028d0:    7100031f    ...q    CMP      w24,#0
        0x000028d4:    52800023    #..R    MOV      w3,#1
        0x000028d8:    2a1603e2    ...*    MOV      w2,w22
        0x000028dc:    910003e1    ....    MOV      x1,sp
        0x000028e0:    54000080    ...T    B.EQ     0x28f0 ; _btod_etento + 368
        0x000028e4:    910063e0    .c..    ADD      x0,sp,#0x18
        0x000028e8:    94000263    c...    BL       _btod_ediv ; 0x3274
        0x000028ec:    14000003    ....    B        0x28f8 ; _btod_etento + 376
        0x000028f0:    910063e0    .c..    ADD      x0,sp,#0x18
        0x000028f4:    94000208    ....    BL       _btod_emul ; 0x3114
        0x000028f8:    f90002e0    ....    STR      x0,[x23,#0]
        0x000028fc:    f90006e1    ....    STR      x1,[x23,#8]
        0x00002900:    f9000ae2    ....    STR      x2,[x23,#0x10]
        0x00002904:    a94553f3    .SE.    LDP      x19,x20,[sp,#0x50]
        0x00002908:    a9465bf5    .[F.    LDP      x21,x22,[sp,#0x60]
        0x0000290c:    a94763f7    .cG.    LDP      x23,x24,[sp,#0x70]
        0x00002910:    a9486bf9    .kH.    LDP      x25,x26,[sp,#0x80]
        0x00002914:    a94977fb    .wI.    LDP      x27,x29,[sp,#0x90]
        0x00002918:    f94053fe    .S@.    LDR      x30,[sp,#0xa0]
        0x0000291c:    9102c3ff    ....    ADD      sp,sp,#0xb0
        0x00002920:    d65f03c0    .._.    RET      
    $d
        0x00002924:    00000000    ....    DCD    0
        0x00002928:    00007be8    .{..    DCD    31720
        0x0000292c:    00000000    ....    DCD    0
        0x00002930:    00007c00    .|..    DCD    31744
        0x00002934:    00000000    ....    DCD    0
        0x00002938:    00007af0    .z..    DCD    31472
        0x0000293c:    00000000    ....    DCD    0
        0x00002940:    00007b68    h{..    DCD    31592
        0x00002944:    00000000    ....    DCD    0
    $x
    .text
    _btod_d2e
        0x00002948:    d100c3ff    ....    SUB      sp,sp,#0x30
        0x0000294c:    a9027bfd    .{..    STP      x29,x30,[sp,#0x20]
        0x00002950:    910083fd    ....    ADD      x29,sp,#0x20
        0x00002954:    53147802    .x.S    UBFX     w2,w0,#20,#11
        0x00002958:    b90003e2    ....    STR      w2,[sp,#0]
        0x0000295c:    7100005f    _..q    CMP      w2,#0
        0x00002960:    540001e0    ...T    B.EQ     0x299c ; _btod_d2e + 84
        0x00002964:    52b00002    ...R    MOV      w2,#0x80000000
        0x00002968:    b9000be2    ....    STR      w2,[sp,#8]
        0x0000296c:    b94003e2    ..@.    LDR      w2,[sp,#0]
        0x00002970:    52878003    ...R    MOV      w3,#0x3c00
        0x00002974:    0b030042    B...    ADD      w2,w2,w3
        0x00002978:    b90003e2    ....    STR      w2,[sp,#0]
        0x0000297c:    b9400be2    ..@.    LDR      w2,[sp,#8]
        0x00002980:    12004c03    .L..    AND      w3,w0,#0xfffff
        0x00002984:    2a032c42    B,.*    ORR      w2,w2,w3,LSL #11
        0x00002988:    2a415442    BTA*    ORR      w2,w2,w1,LSR #21
        0x0000298c:    b9000be2    ....    STR      w2,[sp,#8]
        0x00002990:    53155021    !P.S    LSL      w1,w1,#11
        0x00002994:    b90013e1    ....    STR      w1,[sp,#0x10]
        0x00002998:    14000010    ....    B        0x29d8 ; _btod_d2e + 144
        0x0000299c:    52800002    ...R    MOV      w2,#0
        0x000029a0:    b9000be2    ....    STR      w2,[sp,#8]
        0x000029a4:    52800022    "..R    MOV      w2,#1
        0x000029a8:    b90003e2    ....    STR      w2,[sp,#0]
        0x000029ac:    17fffff1    ....    B        0x2970 ; _btod_d2e + 40
        0x000029b0:    b9400be1    ..@.    LDR      w1,[sp,#8]
        0x000029b4:    531f7821    !x.S    LSL      w1,w1,#1
        0x000029b8:    b94013e2    ..@.    LDR      w2,[sp,#0x10]
        0x000029bc:    2a427c21    !|B*    ORR      w1,w1,w2,LSR #31
        0x000029c0:    b9000be1    ....    STR      w1,[sp,#8]
        0x000029c4:    531f7841    Ax.S    LSL      w1,w2,#1
        0x000029c8:    b90013e1    ....    STR      w1,[sp,#0x10]
        0x000029cc:    b94003e1    ..@.    LDR      w1,[sp,#0]
        0x000029d0:    51000421    !..Q    SUB      w1,w1,#1
        0x000029d4:    b90003e1    ....    STR      w1,[sp,#0]
        0x000029d8:    b9400be1    ..@.    LDR      w1,[sp,#8]
        0x000029dc:    12010021    !...    AND      w1,w1,#0x80000000
        0x000029e0:    7100003f    ?..q    CMP      w1,#0
        0x000029e4:    54fffe60    `..T    B.EQ     0x29b0 ; _btod_d2e + 104
        0x000029e8:    b94003e1    ..@.    LDR      w1,[sp,#0]
        0x000029ec:    12010000    ....    AND      w0,w0,#0x80000000
        0x000029f0:    2a000020     ..*    ORR      w0,w1,w0
        0x000029f4:    b90003e0    ....    STR      w0,[sp,#0]
        0x000029f8:    f94003e0    ..@.    LDR      x0,[sp,#0]
        0x000029fc:    f94007e1    ..@.    LDR      x1,[sp,#8]
        0x00002a00:    f9400be2    ..@.    LDR      x2,[sp,#0x10]
        0x00002a04:    a9427bfd    .{B.    LDP      x29,x30,[sp,#0x20]
        0x00002a08:    9100c3ff    ....    ADD      sp,sp,#0x30
        0x00002a0c:    d65f03c0    .._.    RET      
    btod_internal_mul
        0x00002a10:    d101c3ff    ....    SUB      sp,sp,#0x70
        0x00002a14:    f90033fe    .3..    STR      x30,[sp,#0x60]
        0x00002a18:    a90577f7    .w..    STP      x23,x29,[sp,#0x50]
        0x00002a1c:    910163fd    .c..    ADD      x29,sp,#0x58
        0x00002a20:    a9045bf5    .[..    STP      x21,x22,[sp,#0x40]
        0x00002a24:    a90353f3    .S..    STP      x19,x20,[sp,#0x30]
        0x00002a28:    aa0803f7    ....    MOV      x23,x8
        0x00002a2c:    aa0003f3    ....    MOV      x19,x0
        0x00002a30:    aa0103f4    ....    MOV      x20,x1
        0x00002a34:    2a0403f6    ...*    MOV      w22,w4
        0x00002a38:    b9400a61    a.@.    LDR      w1,[x19,#8]
        0x00002a3c:    b9400a85    ..@.    LDR      w5,[x20,#8]
        0x00002a40:    9ba57c20     |..    UMULL    x0,w1,w5
        0x00002a44:    d360fc04    ..`.    LSR      x4,x0,#32
        0x00002a48:    290003e4    ...)    STP      w4,w0,[sp,#0]
        0x00002a4c:    b9401267    g.@.    LDR      w7,[x19,#0x10]
        0x00002a50:    b9401286    ..@.    LDR      w6,[x20,#0x10]
        0x00002a54:    9ba67ce0    .|..    UMULL    x0,w7,w6
        0x00002a58:    d360fc04    ..`.    LSR      x4,x0,#32
        0x00002a5c:    290103e4    ...)    STP      w4,w0,[sp,#8]
        0x00002a60:    9ba57ce0    .|..    UMULL    x0,w7,w5
        0x00002a64:    b9400be5    ..@.    LDR      w5,[sp,#8]
        0x00002a68:    0b0000a5    ....    ADD      w5,w5,w0
        0x00002a6c:    b9000be5    ....    STR      w5,[sp,#8]
        0x00002a70:    6b0000bf    ...k    CMP      w5,w0
        0x00002a74:    1a9f27e4    .'..    CSET     w4,CC
        0x00002a78:    d360fc00    ..`.    LSR      x0,x0,#32
        0x00002a7c:    b94007e5    ..@.    LDR      w5,[sp,#4]
        0x00002a80:    0b040007    ....    ADD      w7,w0,w4
        0x00002a84:    0b0700a5    ....    ADD      w5,w5,w7
        0x00002a88:    b90007e5    ....    STR      w5,[sp,#4]
        0x00002a8c:    7100009f    ...q    CMP      w4,#0
        0x00002a90:    54000080    ...T    B.EQ     0x2aa0 ; btod_internal_mul + 144
        0x00002a94:    6b0000bf    ...k    CMP      w5,w0
        0x00002a98:    54000089    ...T    B.LS     0x2aa8 ; btod_internal_mul + 152
        0x00002a9c:    14000005    ....    B        0x2ab0 ; btod_internal_mul + 160
        0x00002aa0:    6b0000bf    ...k    CMP      w5,w0
        0x00002aa4:    54000062    b..T    B.CS     0x2ab0 ; btod_internal_mul + 160
        0x00002aa8:    52800020     ..R    MOV      w0,#1
        0x00002aac:    14000002    ....    B        0x2ab4 ; btod_internal_mul + 164
        0x00002ab0:    52800000    ...R    MOV      w0,#0
        0x00002ab4:    b94003e4    ..@.    LDR      w4,[sp,#0]
        0x00002ab8:    0b000080    ....    ADD      w0,w4,w0
        0x00002abc:    b90003e0    ....    STR      w0,[sp,#0]
        0x00002ac0:    9ba67c20     |..    UMULL    x0,w1,w6
        0x00002ac4:    b9400be4    ..@.    LDR      w4,[sp,#8]
        0x00002ac8:    0b000084    ....    ADD      w4,w4,w0
        0x00002acc:    b9000be4    ....    STR      w4,[sp,#8]
        0x00002ad0:    6b00009f    ...k    CMP      w4,w0
        0x00002ad4:    1a9f27e1    .'..    CSET     w1,CC
        0x00002ad8:    d360fc00    ..`.    LSR      x0,x0,#32
        0x00002adc:    2a0503e4    ...*    MOV      w4,w5
        0x00002ae0:    0b010005    ....    ADD      w5,w0,w1
        0x00002ae4:    0b050084    ....    ADD      w4,w4,w5
        0x00002ae8:    b90007e4    ....    STR      w4,[sp,#4]
        0x00002aec:    7100003f    ?..q    CMP      w1,#0
        0x00002af0:    54000080    ...T    B.EQ     0x2b00 ; btod_internal_mul + 240
        0x00002af4:    6b00009f    ...k    CMP      w4,w0
        0x00002af8:    54000089    ...T    B.LS     0x2b08 ; btod_internal_mul + 248
        0x00002afc:    14000005    ....    B        0x2b10 ; btod_internal_mul + 256
        0x00002b00:    6b00009f    ...k    CMP      w4,w0
        0x00002b04:    54000062    b..T    B.CS     0x2b10 ; btod_internal_mul + 256
        0x00002b08:    52800020     ..R    MOV      w0,#1
        0x00002b0c:    14000002    ....    B        0x2b14 ; btod_internal_mul + 260
        0x00002b10:    52800000    ...R    MOV      w0,#0
        0x00002b14:    b94003e1    ..@.    LDR      w1,[sp,#0]
        0x00002b18:    0b000020     ...    ADD      w0,w1,w0
        0x00002b1c:    b90003e0    ....    STR      w0,[sp,#0]
        0x00002b20:    b9400260    `.@.    LDR      w0,[x19,#0]
        0x00002b24:    12007800    .x..    AND      w0,w0,#0x7fffffff
        0x00002b28:    b9400281    ..@.    LDR      w1,[x20,#0]
        0x00002b2c:    12007821    !x..    AND      w1,w1,#0x7fffffff
        0x00002b30:    0b010000    ....    ADD      w0,w0,w1
        0x00002b34:    1287ffa1    ....    MOV      w1,#0xffffc002
        0x00002b38:    0b010000    ....    ADD      w0,w0,w1
        0x00002b3c:    14000012    ....    B        0x2b84 ; btod_internal_mul + 372
        0x00002b40:    b94003e0    ..@.    LDR      w0,[sp,#0]
        0x00002b44:    531f7800    .x.S    LSL      w0,w0,#1
        0x00002b48:    b94007e1    ..@.    LDR      w1,[sp,#4]
        0x00002b4c:    2a417c00    .|A*    ORR      w0,w0,w1,LSR #31
        0x00002b50:    b90003e0    ....    STR      w0,[sp,#0]
        0x00002b54:    531f7820     x.S    LSL      w0,w1,#1
        0x00002b58:    b9400be1    ..@.    LDR      w1,[sp,#8]
        0x00002b5c:    2a417c00    .|A*    ORR      w0,w0,w1,LSR #31
        0x00002b60:    b90007e0    ....    STR      w0,[sp,#4]
        0x00002b64:    531f7820     x.S    LSL      w0,w1,#1
        0x00002b68:    b9400fe1    ..@.    LDR      w1,[sp,#0xc]
        0x00002b6c:    2a417c00    .|A*    ORR      w0,w0,w1,LSR #31
        0x00002b70:    b9000be0    ....    STR      w0,[sp,#8]
        0x00002b74:    531f7820     x.S    LSL      w0,w1,#1
        0x00002b78:    b9000fe0    ....    STR      w0,[sp,#0xc]
        0x00002b7c:    b94013e0    ..@.    LDR      w0,[sp,#0x10]
        0x00002b80:    51000400    ...Q    SUB      w0,w0,#1
        0x00002b84:    b90013e0    ....    STR      w0,[sp,#0x10]
        0x00002b88:    b94003e0    ..@.    LDR      w0,[sp,#0]
        0x00002b8c:    12010000    ....    AND      w0,w0,#0x80000000
        0x00002b90:    7100001f    ...q    CMP      w0,#0
        0x00002b94:    54fffd60    `..T    B.EQ     0x2b40 ; btod_internal_mul + 304
        0x00002b98:    7100005f    _..q    CMP      w2,#0
        0x00002b9c:    54000060    `..T    B.EQ     0x2ba8 ; btod_internal_mul + 408
        0x00002ba0:    52878027    '..R    MOV      w7,#0x3c01
        0x00002ba4:    14000002    ....    B        0x2bac ; btod_internal_mul + 412
        0x00002ba8:    52800007    ...R    MOV      w7,#0
        0x00002bac:    b94013e0    ..@.    LDR      w0,[sp,#0x10]
        0x00002bb0:    6b07001f    ...k    CMP      w0,w7
        0x00002bb4:    1a9fa7f5    ....    CSET     w21,LT
        0x00002bb8:    710002bf    ...q    CMP      w21,#0
        0x00002bbc:    54000500    ...T    B.EQ     0x2c5c ; btod_internal_mul + 588
        0x00002bc0:    4b0000e4    ...K    SUB      w4,w7,w0
        0x00002bc4:    12001080    ....    AND      w0,w4,#0x1f
        0x00002bc8:    7100001f    ...q    CMP      w0,#0
        0x00002bcc:    54000280    ...T    B.EQ     0x2c1c ; btod_internal_mul + 524
        0x00002bd0:    52800401    ...R    MOV      w1,#0x20
        0x00002bd4:    4b000021    !..K    SUB      w1,w1,w0
        0x00002bd8:    294117e6    ..A)    LDP      w6,w5,[sp,#8]
        0x00002bdc:    1ac120c6    . ..    LSL      w6,w6,w1
        0x00002be0:    2a0600a5    ...*    ORR      w5,w5,w6
        0x00002be4:    b9000fe5    ....    STR      w5,[sp,#0xc]
        0x00002be8:    b9400be5    ..@.    LDR      w5,[sp,#8]
        0x00002bec:    1ac024a5    .$..    LSR      w5,w5,w0
        0x00002bf0:    b94007e6    ..@.    LDR      w6,[sp,#4]
        0x00002bf4:    1ac120c6    . ..    LSL      w6,w6,w1
        0x00002bf8:    2a0600a5    ...*    ORR      w5,w5,w6
        0x00002bfc:    b9000be5    ....    STR      w5,[sp,#8]
        0x00002c00:    b94007e5    ..@.    LDR      w5,[sp,#4]
        0x00002c04:    1ac024a5    .$..    LSR      w5,w5,w0
        0x00002c08:    b94003e6    ..@.    LDR      w6,[sp,#0]
        0x00002c0c:    1ac120c1    . ..    LSL      w1,w6,w1
        0x00002c10:    2a0100a1    ...*    ORR      w1,w5,w1
        0x00002c14:    1ac024c0    .$..    LSR      w0,w6,w0
        0x00002c18:    290007e0    ...)    STP      w0,w1,[sp,#0]
        0x00002c1c:    13057c89    .|..    ASR      w9,w4,#5
        0x00002c20:    7100013f    ?..q    CMP      w9,#0
        0x00002c24:    540001a0    ...T    B.EQ     0x2c58 ; btod_internal_mul + 584
        0x00002c28:    52800060    `..R    MOV      w0,#3
        0x00002c2c:    52800008    ...R    MOV      w8,#0
        0x00002c30:    910003e6    ....    MOV      x6,sp
        0x00002c34:    6b090005    ...k    SUBS     w5,w0,w9
        0x00002c38:    54000065    e..T    B.PL     0x2c44 ; btod_internal_mul + 564
        0x00002c3c:    b820d8c8    .. .    STR      w8,[x6,w0,SXTW #2]
        0x00002c40:    14000004    ....    B        0x2c50 ; btod_internal_mul + 576
        0x00002c44:    aa0603e1    ....    MOV      x1,x6
        0x00002c48:    b865d8c4    ..e.    LDR      w4,[x6,w5,SXTW #2]
        0x00002c4c:    b820d824    $. .    STR      w4,[x1,w0,SXTW #2]
        0x00002c50:    71000400    ...q    SUBS     w0,w0,#1
        0x00002c54:    54ffff05    ...T    B.PL     0x2c34 ; btod_internal_mul + 548
        0x00002c58:    b90013e7    ....    STR      w7,[sp,#0x10]
        0x00002c5c:    294107e0    ..A)    LDP      w0,w1,[sp,#8]
        0x00002c60:    7100003f    ?..q    CMP      w1,#0
        0x00002c64:    1a9f07e1    ....    CSET     w1,NE
        0x00002c68:    2a010000    ...*    ORR      w0,w0,w1
        0x00002c6c:    b9000be0    ....    STR      w0,[sp,#8]
        0x00002c70:    7100005f    _..q    CMP      w2,#0
        0x00002c74:    54000140    @..T    B.EQ     0x2c9c ; btod_internal_mul + 652
        0x00002c78:    7100001f    ...q    CMP      w0,#0
        0x00002c7c:    1a9f07e0    ....    CSET     w0,NE
        0x00002c80:    b94007e1    ..@.    LDR      w1,[sp,#4]
        0x00002c84:    2a015400    .T.*    ORR      w0,w0,w1,LSL #21
        0x00002c88:    52810001    ...R    MOV      w1,#0x800
        0x00002c8c:    b94007e2    ..@.    LDR      w2,[sp,#4]
        0x00002c90:    12155042    BP..    AND      w2,w2,#0xfffff800
        0x00002c94:    b90007e2    ....    STR      w2,[sp,#4]
        0x00002c98:    14000002    ....    B        0x2ca0 ; btod_internal_mul + 656
        0x00002c9c:    52800021    !..R    MOV      w1,#1
        0x00002ca0:    52b00002    ...R    MOV      w2,#0x80000000
        0x00002ca4:    7100047f    ...q    CMP      w3,#1
        0x00002ca8:    54000080    ...T    B.EQ     0x2cb8 ; btod_internal_mul + 680
        0x00002cac:    7100007f    ...q    CMP      w3,#0
        0x00002cb0:    540000a0    ...T    B.EQ     0x2cc4 ; btod_internal_mul + 692
        0x00002cb4:    14000018    ....    B        0x2d14 ; btod_internal_mul + 772
        0x00002cb8:    7100001f    ...q    CMP      w0,#0
        0x00002cbc:    54000141    A..T    B.NE     0x2ce4 ; btod_internal_mul + 724
        0x00002cc0:    14000021    !...    B        0x2d44 ; btod_internal_mul + 820
        0x00002cc4:    6b02001f    ...k    CMP      w0,w2
        0x00002cc8:    540000e8    ...T    B.HI     0x2ce4 ; btod_internal_mul + 724
        0x00002ccc:    6b02001f    ...k    CMP      w0,w2
        0x00002cd0:    54000221    !..T    B.NE     0x2d14 ; btod_internal_mul + 772
        0x00002cd4:    b94007e3    ..@.    LDR      w3,[sp,#4]
        0x00002cd8:    0a010063    c...    AND      w3,w3,w1
        0x00002cdc:    7100007f    ...q    CMP      w3,#0
        0x00002ce0:    540001a0    ...T    B.EQ     0x2d14 ; btod_internal_mul + 772
        0x00002ce4:    b94007e3    ..@.    LDR      w3,[sp,#4]
        0x00002ce8:    2b010061    a..+    ADDS     w1,w3,w1
        0x00002cec:    b90007e1    ....    STR      w1,[sp,#4]
        0x00002cf0:    54000121    !..T    B.NE     0x2d14 ; btod_internal_mul + 772
        0x00002cf4:    b94003e1    ..@.    LDR      w1,[sp,#0]
        0x00002cf8:    31000421    !..1    ADDS     w1,w1,#1
        0x00002cfc:    b90003e1    ....    STR      w1,[sp,#0]
        0x00002d00:    540000a1    ...T    B.NE     0x2d14 ; btod_internal_mul + 772
        0x00002d04:    b90003e2    ....    STR      w2,[sp,#0]
        0x00002d08:    b94013e1    ..@.    LDR      w1,[sp,#0x10]
        0x00002d0c:    11000421    !...    ADD      w1,w1,#1
        0x00002d10:    b90013e1    ....    STR      w1,[sp,#0x10]
        0x00002d14:    7100001f    ...q    CMP      w0,#0
        0x00002d18:    54000160    `..T    B.EQ     0x2d44 ; btod_internal_mul + 820
        0x00002d1c:    52800201    ...R    MOV      w1,#0x10
        0x00002d20:    2a0103e0    ...*    MOV      w0,w1
        0x00002d24:    94000388    ....    BL       __ieee_status ; 0x3b44
        0x00002d28:    710002bf    ...q    CMP      w21,#0
        0x00002d2c:    540000c0    ...T    B.EQ     0x2d44 ; btod_internal_mul + 820
        0x00002d30:    710002df    ...q    CMP      w22,#0
        0x00002d34:    54000080    ...T    B.EQ     0x2d44 ; btod_internal_mul + 820
        0x00002d38:    52800101    ...R    MOV      w1,#8
        0x00002d3c:    2a0103e0    ...*    MOV      w0,w1
        0x00002d40:    94000381    ....    BL       __ieee_status ; 0x3b44
        0x00002d44:    b9400260    `.@.    LDR      w0,[x19,#0]
        0x00002d48:    b9400281    ..@.    LDR      w1,[x20,#0]
        0x00002d4c:    4a010000    ...J    EOR      w0,w0,w1
        0x00002d50:    12010000    ....    AND      w0,w0,#0x80000000
        0x00002d54:    b94013e1    ..@.    LDR      w1,[sp,#0x10]
        0x00002d58:    2a010000    ...*    ORR      w0,w0,w1
        0x00002d5c:    b90013e0    ....    STR      w0,[sp,#0x10]
        0x00002d60:    b94003e0    ..@.    LDR      w0,[sp,#0]
        0x00002d64:    b9001be0    ....    STR      w0,[sp,#0x18]
        0x00002d68:    b94007e0    ..@.    LDR      w0,[sp,#4]
        0x00002d6c:    b90023e0    .#..    STR      w0,[sp,#0x20]
        0x00002d70:    d2800302    ....    MOV      x2,#0x18
        0x00002d74:    910043e1    .C..    ADD      x1,sp,#0x10
        0x00002d78:    aa1703e0    ....    MOV      x0,x23
        0x00002d7c:    97fff8af    ....    BL       __aeabi_memcpy4 ; 0x1038
        0x00002d80:    a94353f3    .SC.    LDP      x19,x20,[sp,#0x30]
        0x00002d84:    a9445bf5    .[D.    LDP      x21,x22,[sp,#0x40]
        0x00002d88:    a94577f7    .wE.    LDP      x23,x29,[sp,#0x50]
        0x00002d8c:    f94033fe    .3@.    LDR      x30,[sp,#0x60]
        0x00002d90:    9101c3ff    ....    ADD      sp,sp,#0x70
        0x00002d94:    d65f03c0    .._.    RET      
    btod_internal_div
        0x00002d98:    d101c3ff    ....    SUB      sp,sp,#0x70
        0x00002d9c:    f90033fe    .3..    STR      x30,[sp,#0x60]
        0x00002da0:    a90577f7    .w..    STP      x23,x29,[sp,#0x50]
        0x00002da4:    910163fd    .c..    ADD      x29,sp,#0x58
        0x00002da8:    a9045bf5    .[..    STP      x21,x22,[sp,#0x40]
        0x00002dac:    a90353f3    .S..    STP      x19,x20,[sp,#0x30]
        0x00002db0:    aa0803f6    ....    MOV      x22,x8
        0x00002db4:    aa0003f4    ....    MOV      x20,x0
        0x00002db8:    aa0103f5    ....    MOV      x21,x1
        0x00002dbc:    2a0403f3    ...*    MOV      w19,w4
        0x00002dc0:    b9401280    ..@.    LDR      w0,[x20,#0x10]
        0x00002dc4:    d3407c00    .|@.    UBFX     x0,x0,#0,#32
        0x00002dc8:    b9400a81    ..@.    LDR      w1,[x20,#8]
        0x00002dcc:    d3407c21    !|@.    UBFX     x1,x1,#0,#32
        0x00002dd0:    aa018000    ....    ORR      x0,x0,x1,LSL #32
        0x00002dd4:    b94012a1    ..@.    LDR      w1,[x21,#0x10]
        0x00002dd8:    d3407c21    !|@.    UBFX     x1,x1,#0,#32
        0x00002ddc:    b9400aa4    ..@.    LDR      w4,[x21,#8]
        0x00002de0:    d3407c84    .|@.    UBFX     x4,x4,#0,#32
        0x00002de4:    aa048026    &...    ORR      x6,x1,x4,LSL #32
        0x00002de8:    d2800005    ....    MOV      x5,#0
        0x00002dec:    b9400281    ..@.    LDR      w1,[x20,#0]
        0x00002df0:    12007821    !x..    AND      w1,w1,#0x7fffffff
        0x00002df4:    b94002a4    ..@.    LDR      w4,[x21,#0]
        0x00002df8:    12007884    .x..    AND      w4,w4,#0x7fffffff
        0x00002dfc:    4b040021    !..K    SUB      w1,w1,w4
        0x00002e00:    5287ffe4    ...R    MOV      w4,#0x3fff
        0x00002e04:    0b040021    !...    ADD      w1,w1,w4
        0x00002e08:    b90013e1    ....    STR      w1,[sp,#0x10]
        0x00002e0c:    7100005f    _..q    CMP      w2,#0
        0x00002e10:    528006a1    ...R    MOV      w1,#0x35
        0x00002e14:    52800804    ...R    MOV      w4,#0x40
        0x00002e18:    1a841028    (...    CSEL     w8,w1,w4,NE
        0x00002e1c:    d2f00004    ....    MOV      x4,#0x8000000000000000
        0x00002e20:    52800007    ...R    MOV      w7,#0
        0x00002e24:    2a0703e1    ...*    MOV      w1,w7
        0x00002e28:    14000013    ....    B        0x2e74 ; btod_internal_div + 220
        0x00002e2c:    710000ff    ...q    CMP      w7,#0
        0x00002e30:    54000061    a..T    B.NE     0x2e3c ; btod_internal_div + 164
        0x00002e34:    eb06001f    ....    CMP      x0,x6
        0x00002e38:    54000063    c..T    B.CC     0x2e44 ; btod_internal_div + 172
        0x00002e3c:    cb060000    ....    SUB      x0,x0,x6
        0x00002e40:    8b0400a5    ....    ADD      x5,x5,x4
        0x00002e44:    f10000bf    ....    CMP      x5,#0
        0x00002e48:    54000060    `..T    B.EQ     0x2e54 ; btod_internal_div + 188
        0x00002e4c:    d341fc84    ..A.    LSR      x4,x4,#1
        0x00002e50:    14000005    ....    B        0x2e64 ; btod_internal_div + 204
        0x00002e54:    b94013e7    ..@.    LDR      w7,[sp,#0x10]
        0x00002e58:    510004e7    ...Q    SUB      w7,w7,#1
        0x00002e5c:    b90013e7    ....    STR      w7,[sp,#0x10]
        0x00002e60:    51000421    !..Q    SUB      w1,w1,#1
        0x00002e64:    d360fc07    ..`.    LSR      x7,x0,#32
        0x00002e68:    120100e7    ....    AND      w7,w7,#0x80000000
        0x00002e6c:    d37ff800    ....    LSL      x0,x0,#1
        0x00002e70:    11000421    !...    ADD      w1,w1,#1
        0x00002e74:    6b08003f    ?..k    CMP      w1,w8
        0x00002e78:    54fffdab    ...T    B.LT     0x2e2c ; btod_internal_div + 148
        0x00002e7c:    710000ff    ...q    CMP      w7,#0
        0x00002e80:    54000061    a..T    B.NE     0x2e8c ; btod_internal_div + 244
        0x00002e84:    eb06001f    ....    CMP      x0,x6
        0x00002e88:    54000069    i..T    B.LS     0x2e94 ; btod_internal_div + 252
        0x00002e8c:    52800060    `..R    MOV      w0,#3
        0x00002e90:    1400000a    ....    B        0x2eb8 ; btod_internal_div + 288
        0x00002e94:    eb06001f    ....    CMP      x0,x6
        0x00002e98:    54000061    a..T    B.NE     0x2ea4 ; btod_internal_div + 268
        0x00002e9c:    52800040    @..R    MOV      w0,#2
        0x00002ea0:    14000006    ....    B        0x2eb8 ; btod_internal_div + 288
        0x00002ea4:    f100001f    ....    CMP      x0,#0
        0x00002ea8:    54000060    `..T    B.EQ     0x2eb4 ; btod_internal_div + 284
        0x00002eac:    52800020     ..R    MOV      w0,#1
        0x00002eb0:    14000002    ....    B        0x2eb8 ; btod_internal_div + 288
        0x00002eb4:    52800000    ...R    MOV      w0,#0
        0x00002eb8:    d360fca1    ..`.    LSR      x1,x5,#32
        0x00002ebc:    290017e1    ...)    STP      w1,w5,[sp,#0]
        0x00002ec0:    52800001    ...R    MOV      w1,#0
        0x00002ec4:    b9000be1    ....    STR      w1,[sp,#8]
        0x00002ec8:    7100005f    _..q    CMP      w2,#0
        0x00002ecc:    540000a0    ...T    B.EQ     0x2ee0 ; btod_internal_div + 328
        0x00002ed0:    2a0024a0    .$.*    ORR      w0,w5,w0,LSL #9
        0x00002ed4:    b90007e0    ....    STR      w0,[sp,#4]
        0x00002ed8:    52878028    (..R    MOV      w8,#0x3c01
        0x00002edc:    14000004    ....    B        0x2eec ; btod_internal_div + 340
        0x00002ee0:    53020400    ...S    LSL      w0,w0,#30
        0x00002ee4:    b9000be0    ....    STR      w0,[sp,#8]
        0x00002ee8:    52800008    ...R    MOV      w8,#0
        0x00002eec:    b94013e0    ..@.    LDR      w0,[sp,#0x10]
        0x00002ef0:    6b08001f    ...k    CMP      w0,w8
        0x00002ef4:    1a9fa7f7    ....    CSET     w23,LT
        0x00002ef8:    710002ff    ...q    CMP      w23,#0
        0x00002efc:    54000760    `..T    B.EQ     0x2fe8 ; btod_internal_div + 592
        0x00002f00:    4b000104    ...K    SUB      w4,w8,w0
        0x00002f04:    12001080    ....    AND      w0,w4,#0x1f
        0x00002f08:    7100001f    ...q    CMP      w0,#0
        0x00002f0c:    540002a0    ...T    B.EQ     0x2f60 ; btod_internal_div + 456
        0x00002f10:    52800401    ...R    MOV      w1,#0x20
        0x00002f14:    4b000021    !..K    SUB      w1,w1,w0
        0x00002f18:    b9400be5    ..@.    LDR      w5,[sp,#8]
        0x00002f1c:    1ac024a5    .$..    LSR      w5,w5,w0
        0x00002f20:    b94007e6    ..@.    LDR      w6,[sp,#4]
        0x00002f24:    1ac120c6    . ..    LSL      w6,w6,w1
        0x00002f28:    2a0600a5    ...*    ORR      w5,w5,w6
        0x00002f2c:    b9400be6    ..@.    LDR      w6,[sp,#8]
        0x00002f30:    1ac120c6    . ..    LSL      w6,w6,w1
        0x00002f34:    710000df    ...q    CMP      w6,#0
        0x00002f38:    1a9f07e6    ....    CSET     w6,NE
        0x00002f3c:    2a0600a5    ...*    ORR      w5,w5,w6
        0x00002f40:    b9000be5    ....    STR      w5,[sp,#8]
        0x00002f44:    b94007e5    ..@.    LDR      w5,[sp,#4]
        0x00002f48:    1ac024a5    .$..    LSR      w5,w5,w0
        0x00002f4c:    b94003e6    ..@.    LDR      w6,[sp,#0]
        0x00002f50:    1ac120c1    . ..    LSL      w1,w6,w1
        0x00002f54:    2a0100a1    ...*    ORR      w1,w5,w1
        0x00002f58:    1ac024c0    .$..    LSR      w0,w6,w0
        0x00002f5c:    290007e0    ...)    STP      w0,w1,[sp,#0]
        0x00002f60:    13057c89    .|..    ASR      w9,w4,#5
        0x00002f64:    7100013f    ?..q    CMP      w9,#0
        0x00002f68:    540003e0    ...T    B.EQ     0x2fe4 ; btod_internal_div + 588
        0x00002f6c:    52800045    E..R    MOV      w5,#2
        0x00002f70:    52800060    `..R    MOV      w0,#3
        0x00002f74:    4b09000a    ...K    SUB      w10,w0,w9
        0x00002f78:    910003e7    ....    MOV      x7,sp
        0x00002f7c:    52800004    ...R    MOV      w4,#0
        0x00002f80:    710008bf    ...q    CMP      w5,#2
        0x00002f84:    540001a1    ...T    B.NE     0x2fb8 ; btod_internal_div + 544
        0x00002f88:    2a0a03e0    ...*    MOV      w0,w10
        0x00002f8c:    aa0703e6    ....    MOV      x6,x7
        0x00002f90:    14000008    ....    B        0x2fb0 ; btod_internal_div + 536
        0x00002f94:    7100001f    ...q    CMP      w0,#0
        0x00002f98:    540000ab    ...T    B.LT     0x2fac ; btod_internal_div + 532
        0x00002f9c:    b860d8c1    ..`.    LDR      w1,[x6,w0,SXTW #2]
        0x00002fa0:    7100003f    ?..q    CMP      w1,#0
        0x00002fa4:    54000040    @..T    B.EQ     0x2fac ; btod_internal_div + 532
        0x00002fa8:    52800024    $..R    MOV      w4,#1
        0x00002fac:    11000400    ....    ADD      w0,w0,#1
        0x00002fb0:    71000c1f    ...q    CMP      w0,#3
        0x00002fb4:    54ffff0b    ...T    B.LT     0x2f94 ; btod_internal_div + 508
        0x00002fb8:    6b0900a0    ...k    SUBS     w0,w5,w9
        0x00002fbc:    54000065    e..T    B.PL     0x2fc8 ; btod_internal_div + 560
        0x00002fc0:    b825d8e4    ..%.    STR      w4,[x7,w5,SXTW #2]
        0x00002fc4:    14000006    ....    B        0x2fdc ; btod_internal_div + 580
        0x00002fc8:    aa0703e1    ....    MOV      x1,x7
        0x00002fcc:    aa0103e6    ....    MOV      x6,x1
        0x00002fd0:    b860d8e0    ..`.    LDR      w0,[x7,w0,SXTW #2]
        0x00002fd4:    2a040000    ...*    ORR      w0,w0,w4
        0x00002fd8:    b825d8c0    ..%.    STR      w0,[x6,w5,SXTW #2]
        0x00002fdc:    710004a5    ...q    SUBS     w5,w5,#1
        0x00002fe0:    54fffce5    ...T    B.PL     0x2f7c ; btod_internal_div + 484
        0x00002fe4:    b90013e8    ....    STR      w8,[sp,#0x10]
        0x00002fe8:    7100005f    _..q    CMP      w2,#0
        0x00002fec:    b9400be0    ..@.    LDR      w0,[sp,#8]
        0x00002ff0:    54000140    @..T    B.EQ     0x3018 ; btod_internal_div + 640
        0x00002ff4:    7100001f    ...q    CMP      w0,#0
        0x00002ff8:    1a9f07e0    ....    CSET     w0,NE
        0x00002ffc:    b94007e1    ..@.    LDR      w1,[sp,#4]
        0x00003000:    2a015400    .T.*    ORR      w0,w0,w1,LSL #21
        0x00003004:    52810001    ...R    MOV      w1,#0x800
        0x00003008:    b94007e2    ..@.    LDR      w2,[sp,#4]
        0x0000300c:    12155042    BP..    AND      w2,w2,#0xfffff800
        0x00003010:    b90007e2    ....    STR      w2,[sp,#4]
        0x00003014:    14000002    ....    B        0x301c ; btod_internal_div + 644
        0x00003018:    52800021    !..R    MOV      w1,#1
        0x0000301c:    52b00002    ...R    MOV      w2,#0x80000000
        0x00003020:    7100047f    ...q    CMP      w3,#1
        0x00003024:    54000080    ...T    B.EQ     0x3034 ; btod_internal_div + 668
        0x00003028:    7100007f    ...q    CMP      w3,#0
        0x0000302c:    540000a0    ...T    B.EQ     0x3040 ; btod_internal_div + 680
        0x00003030:    14000018    ....    B        0x3090 ; btod_internal_div + 760
        0x00003034:    7100001f    ...q    CMP      w0,#0
        0x00003038:    54000141    A..T    B.NE     0x3060 ; btod_internal_div + 712
        0x0000303c:    14000021    !...    B        0x30c0 ; btod_internal_div + 808
        0x00003040:    6b02001f    ...k    CMP      w0,w2
        0x00003044:    540000e8    ...T    B.HI     0x3060 ; btod_internal_div + 712
        0x00003048:    6b02001f    ...k    CMP      w0,w2
        0x0000304c:    54000221    !..T    B.NE     0x3090 ; btod_internal_div + 760
        0x00003050:    b94007e3    ..@.    LDR      w3,[sp,#4]
        0x00003054:    0a010063    c...    AND      w3,w3,w1
        0x00003058:    7100007f    ...q    CMP      w3,#0
        0x0000305c:    540001a0    ...T    B.EQ     0x3090 ; btod_internal_div + 760
        0x00003060:    b94007e3    ..@.    LDR      w3,[sp,#4]
        0x00003064:    2b010061    a..+    ADDS     w1,w3,w1
        0x00003068:    b90007e1    ....    STR      w1,[sp,#4]
        0x0000306c:    54000121    !..T    B.NE     0x3090 ; btod_internal_div + 760
        0x00003070:    b94003e1    ..@.    LDR      w1,[sp,#0]
        0x00003074:    31000421    !..1    ADDS     w1,w1,#1
        0x00003078:    b90003e1    ....    STR      w1,[sp,#0]
        0x0000307c:    540000a1    ...T    B.NE     0x3090 ; btod_internal_div + 760
        0x00003080:    b90003e2    ....    STR      w2,[sp,#0]
        0x00003084:    b94013e1    ..@.    LDR      w1,[sp,#0x10]
        0x00003088:    11000421    !...    ADD      w1,w1,#1
        0x0000308c:    b90013e1    ....    STR      w1,[sp,#0x10]
        0x00003090:    7100001f    ...q    CMP      w0,#0
        0x00003094:    54000160    `..T    B.EQ     0x30c0 ; btod_internal_div + 808
        0x00003098:    52800201    ...R    MOV      w1,#0x10
        0x0000309c:    2a0103e0    ...*    MOV      w0,w1
        0x000030a0:    940002a9    ....    BL       __ieee_status ; 0x3b44
        0x000030a4:    710002ff    ...q    CMP      w23,#0
        0x000030a8:    540000c0    ...T    B.EQ     0x30c0 ; btod_internal_div + 808
        0x000030ac:    7100027f    ...q    CMP      w19,#0
        0x000030b0:    54000080    ...T    B.EQ     0x30c0 ; btod_internal_div + 808
        0x000030b4:    52800101    ...R    MOV      w1,#8
        0x000030b8:    2a0103e0    ...*    MOV      w0,w1
        0x000030bc:    940002a2    ....    BL       __ieee_status ; 0x3b44
        0x000030c0:    b9400280    ..@.    LDR      w0,[x20,#0]
        0x000030c4:    b94002a1    ..@.    LDR      w1,[x21,#0]
        0x000030c8:    4a010000    ...J    EOR      w0,w0,w1
        0x000030cc:    12010000    ....    AND      w0,w0,#0x80000000
        0x000030d0:    b94013e1    ..@.    LDR      w1,[sp,#0x10]
        0x000030d4:    2a010000    ...*    ORR      w0,w0,w1
        0x000030d8:    b90013e0    ....    STR      w0,[sp,#0x10]
        0x000030dc:    b94003e0    ..@.    LDR      w0,[sp,#0]
        0x000030e0:    b9001be0    ....    STR      w0,[sp,#0x18]
        0x000030e4:    b94007e0    ..@.    LDR      w0,[sp,#4]
        0x000030e8:    b90023e0    .#..    STR      w0,[sp,#0x20]
        0x000030ec:    d2800302    ....    MOV      x2,#0x18
        0x000030f0:    910043e1    .C..    ADD      x1,sp,#0x10
        0x000030f4:    aa1603e0    ....    MOV      x0,x22
        0x000030f8:    97fff7d0    ....    BL       __aeabi_memcpy4 ; 0x1038
        0x000030fc:    a94353f3    .SC.    LDP      x19,x20,[sp,#0x30]
        0x00003100:    a9445bf5    .[D.    LDP      x21,x22,[sp,#0x40]
        0x00003104:    a94577f7    .wE.    LDP      x23,x29,[sp,#0x50]
        0x00003108:    f94033fe    .3@.    LDR      x30,[sp,#0x60]
        0x0000310c:    9101c3ff    ....    ADD      sp,sp,#0x70
        0x00003110:    d65f03c0    .._.    RET      
    _btod_emul
        0x00003114:    d100c3ff    ....    SUB      sp,sp,#0x30
        0x00003118:    a9027bfd    .{..    STP      x29,x30,[sp,#0x20]
        0x0000311c:    910083fd    ....    ADD      x29,sp,#0x20
        0x00003120:    2a0303e4    ...*    MOV      w4,w3
        0x00003124:    2a0203e3    ...*    MOV      w3,w2
        0x00003128:    52800002    ...R    MOV      w2,#0
        0x0000312c:    910003e8    ....    MOV      x8,sp
        0x00003130:    97fffe38    8...    BL       btod_internal_mul ; 0x2a10
        0x00003134:    f94003e0    ..@.    LDR      x0,[sp,#0]
        0x00003138:    f94007e1    ..@.    LDR      x1,[sp,#8]
        0x0000313c:    f9400be2    ..@.    LDR      x2,[sp,#0x10]
        0x00003140:    a9427bfd    .{B.    LDP      x29,x30,[sp,#0x20]
        0x00003144:    9100c3ff    ....    ADD      sp,sp,#0x30
        0x00003148:    d65f03c0    .._.    RET      
    _btod_emuld
        0x0000314c:    d10183ff    ....    SUB      sp,sp,#0x60
        0x00003150:    a9057bfd    .{..    STP      x29,x30,[sp,#0x50]
        0x00003154:    910143fd    .C..    ADD      x29,sp,#0x50
        0x00003158:    a90453f3    .S..    STP      x19,x20,[sp,#0x40]
        0x0000315c:    2a0203f3    ...*    MOV      w19,w2
        0x00003160:    2a0303f4    ...*    MOV      w20,w3
        0x00003164:    2a0303e4    ...*    MOV      w4,w3
        0x00003168:    2a0203e3    ...*    MOV      w3,w2
        0x0000316c:    52800022    "..R    MOV      w2,#1
        0x00003170:    9100a3e8    ....    ADD      x8,sp,#0x28
        0x00003174:    97fffe27    '...    BL       btod_internal_mul ; 0x2a10
        0x00003178:    d2800302    ....    MOV      x2,#0x18
        0x0000317c:    9100a3e1    ....    ADD      x1,sp,#0x28
        0x00003180:    910003e0    ....    MOV      x0,sp
        0x00003184:    97fff7ad    ....    BL       __aeabi_memcpy4 ; 0x1038
        0x00003188:    b94003e0    ..@.    LDR      w0,[sp,#0]
        0x0000318c:    12010000    ....    AND      w0,w0,#0x80000000
        0x00003190:    b9001be0    ....    STR      w0,[sp,#0x18]
        0x00003194:    b94003e0    ..@.    LDR      w0,[sp,#0]
        0x00003198:    12007800    .x..    AND      w0,w0,#0x7fffffff
        0x0000319c:    12877fe1    ....    MOV      w1,#0xffffc400
        0x000031a0:    0b010000    ....    ADD      w0,w0,w1
        0x000031a4:    b90003e0    ....    STR      w0,[sp,#0]
        0x000031a8:    b9400be0    ..@.    LDR      w0,[sp,#8]
        0x000031ac:    12010001    ....    AND      w1,w0,#0x80000000
        0x000031b0:    52800000    ...R    MOV      w0,#0
        0x000031b4:    7100003f    ?..q    CMP      w1,#0
        0x000031b8:    54000041    A..T    B.NE     0x31c0 ; _btod_emuld + 116
        0x000031bc:    b90003e0    ....    STR      w0,[sp,#0]
        0x000031c0:    b9400be1    ..@.    LDR      w1,[sp,#8]
        0x000031c4:    12007821    !x..    AND      w1,w1,#0x7fffffff
        0x000031c8:    b9000be1    ....    STR      w1,[sp,#8]
        0x000031cc:    b94003e1    ..@.    LDR      w1,[sp,#0]
        0x000031d0:    711ffc3f    ?..q    CMP      w1,#0x7ff
        0x000031d4:    540002c3    ...T    B.CC     0x322c ; _btod_emuld + 224
        0x000031d8:    7100027f    ...q    CMP      w19,#0
        0x000031dc:    5400010a    ...T    B.GE     0x31fc ; _btod_emuld + 176
        0x000031e0:    5280ffc0    ...R    MOV      w0,#0x7fe
        0x000031e4:    b90003e0    ....    STR      w0,[sp,#0]
        0x000031e8:    12b00000    ....    MOV      w0,#0x7fffffff
        0x000031ec:    b9000be0    ....    STR      w0,[sp,#8]
        0x000031f0:    12800000    ....    MOV      w0,#0xffffffff
        0x000031f4:    b90013e0    ....    STR      w0,[sp,#0x10]
        0x000031f8:    14000005    ....    B        0x320c ; _btod_emuld + 192
        0x000031fc:    5280ffe1    ...R    MOV      w1,#0x7ff
        0x00003200:    b90003e1    ....    STR      w1,[sp,#0]
        0x00003204:    b90013e0    ....    STR      w0,[sp,#0x10]
        0x00003208:    b9000be0    ....    STR      w0,[sp,#8]
        0x0000320c:    52800201    ...R    MOV      w1,#0x10
        0x00003210:    2a0103e0    ...*    MOV      w0,w1
        0x00003214:    9400024c    L...    BL       __ieee_status ; 0x3b44
        0x00003218:    7100029f    ...q    CMP      w20,#0
        0x0000321c:    54000080    ...T    B.EQ     0x322c ; _btod_emuld + 224
        0x00003220:    52800081    ...R    MOV      w1,#4
        0x00003224:    2a0103e0    ...*    MOV      w0,w1
        0x00003228:    94000247    G...    BL       __ieee_status ; 0x3b44
        0x0000322c:    b94003e0    ..@.    LDR      w0,[sp,#0]
        0x00003230:    530c2c00    .,.S    LSL      w0,w0,#20
        0x00003234:    b9400be1    ..@.    LDR      w1,[sp,#8]
        0x00003238:    2a412c00    .,A*    ORR      w0,w0,w1,LSR #11
        0x0000323c:    b9401be1    ..@.    LDR      w1,[sp,#0x18]
        0x00003240:    2a010000    ...*    ORR      w0,w0,w1
        0x00003244:    b9001be0    ....    STR      w0,[sp,#0x18]
        0x00003248:    b9400be0    ..@.    LDR      w0,[sp,#8]
        0x0000324c:    530b2800    .(.S    LSL      w0,w0,#21
        0x00003250:    b94013e1    ..@.    LDR      w1,[sp,#0x10]
        0x00003254:    2a412c00    .,A*    ORR      w0,w0,w1,LSR #11
        0x00003258:    b90023e0    .#..    STR      w0,[sp,#0x20]
        0x0000325c:    f9400fe0    ..@.    LDR      x0,[sp,#0x18]
        0x00003260:    f94013e1    ..@.    LDR      x1,[sp,#0x20]
        0x00003264:    a94453f3    .SD.    LDP      x19,x20,[sp,#0x40]
        0x00003268:    a9457bfd    .{E.    LDP      x29,x30,[sp,#0x50]
        0x0000326c:    910183ff    ....    ADD      sp,sp,#0x60
        0x00003270:    d65f03c0    .._.    RET      
    _btod_ediv
        0x00003274:    d100c3ff    ....    SUB      sp,sp,#0x30
        0x00003278:    a9027bfd    .{..    STP      x29,x30,[sp,#0x20]
        0x0000327c:    910083fd    ....    ADD      x29,sp,#0x20
        0x00003280:    2a0303e4    ...*    MOV      w4,w3
        0x00003284:    2a0203e3    ...*    MOV      w3,w2
        0x00003288:    52800002    ...R    MOV      w2,#0
        0x0000328c:    910003e8    ....    MOV      x8,sp
        0x00003290:    97fffec2    ....    BL       btod_internal_div ; 0x2d98
        0x00003294:    f94003e0    ..@.    LDR      x0,[sp,#0]
        0x00003298:    f94007e1    ..@.    LDR      x1,[sp,#8]
        0x0000329c:    f9400be2    ..@.    LDR      x2,[sp,#0x10]
        0x000032a0:    a9427bfd    .{B.    LDP      x29,x30,[sp,#0x20]
        0x000032a4:    9100c3ff    ....    ADD      sp,sp,#0x30
        0x000032a8:    d65f03c0    .._.    RET      
    _btod_edivd
        0x000032ac:    d10183ff    ....    SUB      sp,sp,#0x60
        0x000032b0:    a9057bfd    .{..    STP      x29,x30,[sp,#0x50]
        0x000032b4:    910143fd    .C..    ADD      x29,sp,#0x50
        0x000032b8:    a90453f3    .S..    STP      x19,x20,[sp,#0x40]
        0x000032bc:    2a0203f3    ...*    MOV      w19,w2
        0x000032c0:    2a0303f4    ...*    MOV      w20,w3
        0x000032c4:    2a0303e4    ...*    MOV      w4,w3
        0x000032c8:    2a0203e3    ...*    MOV      w3,w2
        0x000032cc:    52800022    "..R    MOV      w2,#1
        0x000032d0:    9100a3e8    ....    ADD      x8,sp,#0x28
        0x000032d4:    97fffeb1    ....    BL       btod_internal_div ; 0x2d98
        0x000032d8:    d2800302    ....    MOV      x2,#0x18
        0x000032dc:    9100a3e1    ....    ADD      x1,sp,#0x28
        0x000032e0:    910003e0    ....    MOV      x0,sp
        0x000032e4:    97fff755    U...    BL       __aeabi_memcpy4 ; 0x1038
        0x000032e8:    b94003e0    ..@.    LDR      w0,[sp,#0]
        0x000032ec:    12010000    ....    AND      w0,w0,#0x80000000
        0x000032f0:    b9001be0    ....    STR      w0,[sp,#0x18]
        0x000032f4:    b94003e0    ..@.    LDR      w0,[sp,#0]
        0x000032f8:    12007800    .x..    AND      w0,w0,#0x7fffffff
        0x000032fc:    12877fe1    ....    MOV      w1,#0xffffc400
        0x00003300:    0b010000    ....    ADD      w0,w0,w1
        0x00003304:    b90003e0    ....    STR      w0,[sp,#0]
        0x00003308:    b9400be0    ..@.    LDR      w0,[sp,#8]
        0x0000330c:    12010001    ....    AND      w1,w0,#0x80000000
        0x00003310:    52800000    ...R    MOV      w0,#0
        0x00003314:    7100003f    ?..q    CMP      w1,#0
        0x00003318:    54000041    A..T    B.NE     0x3320 ; _btod_edivd + 116
        0x0000331c:    b90003e0    ....    STR      w0,[sp,#0]
        0x00003320:    b9400be1    ..@.    LDR      w1,[sp,#8]
        0x00003324:    12007821    !x..    AND      w1,w1,#0x7fffffff
        0x00003328:    b9000be1    ....    STR      w1,[sp,#8]
        0x0000332c:    b94003e1    ..@.    LDR      w1,[sp,#0]
        0x00003330:    711ffc3f    ?..q    CMP      w1,#0x7ff
        0x00003334:    540002c3    ...T    B.CC     0x338c ; _btod_edivd + 224
        0x00003338:    7100027f    ...q    CMP      w19,#0
        0x0000333c:    5400010a    ...T    B.GE     0x335c ; _btod_edivd + 176
        0x00003340:    5280ffc0    ...R    MOV      w0,#0x7fe
        0x00003344:    b90003e0    ....    STR      w0,[sp,#0]
        0x00003348:    12b00000    ....    MOV      w0,#0x7fffffff
        0x0000334c:    b9000be0    ....    STR      w0,[sp,#8]
        0x00003350:    12800000    ....    MOV      w0,#0xffffffff
        0x00003354:    b90013e0    ....    STR      w0,[sp,#0x10]
        0x00003358:    14000005    ....    B        0x336c ; _btod_edivd + 192
        0x0000335c:    5280ffe1    ...R    MOV      w1,#0x7ff
        0x00003360:    b90003e1    ....    STR      w1,[sp,#0]
        0x00003364:    b90013e0    ....    STR      w0,[sp,#0x10]
        0x00003368:    b9000be0    ....    STR      w0,[sp,#8]
        0x0000336c:    52800201    ...R    MOV      w1,#0x10
        0x00003370:    2a0103e0    ...*    MOV      w0,w1
        0x00003374:    940001f4    ....    BL       __ieee_status ; 0x3b44
        0x00003378:    7100029f    ...q    CMP      w20,#0
        0x0000337c:    54000080    ...T    B.EQ     0x338c ; _btod_edivd + 224
        0x00003380:    52800081    ...R    MOV      w1,#4
        0x00003384:    2a0103e0    ...*    MOV      w0,w1
        0x00003388:    940001ef    ....    BL       __ieee_status ; 0x3b44
        0x0000338c:    b94003e0    ..@.    LDR      w0,[sp,#0]
        0x00003390:    530c2c00    .,.S    LSL      w0,w0,#20
        0x00003394:    b9400be1    ..@.    LDR      w1,[sp,#8]
        0x00003398:    2a412c00    .,A*    ORR      w0,w0,w1,LSR #11
        0x0000339c:    b9401be1    ..@.    LDR      w1,[sp,#0x18]
        0x000033a0:    2a010000    ...*    ORR      w0,w0,w1
        0x000033a4:    b9001be0    ....    STR      w0,[sp,#0x18]
        0x000033a8:    b9400be0    ..@.    LDR      w0,[sp,#8]
        0x000033ac:    530b2800    .(.S    LSL      w0,w0,#21
        0x000033b0:    b94013e1    ..@.    LDR      w1,[sp,#0x10]
        0x000033b4:    2a412c00    .,A*    ORR      w0,w0,w1,LSR #11
        0x000033b8:    b90023e0    .#..    STR      w0,[sp,#0x20]
        0x000033bc:    f9400fe0    ..@.    LDR      x0,[sp,#0x18]
        0x000033c0:    f94013e1    ..@.    LDR      x1,[sp,#0x20]
        0x000033c4:    a94453f3    .SD.    LDP      x19,x20,[sp,#0x40]
        0x000033c8:    a9457bfd    .{E.    LDP      x29,x30,[sp,#0x50]
        0x000033cc:    910183ff    ....    ADD      sp,sp,#0x60
        0x000033d0:    d65f03c0    .._.    RET      
    .text
    __flsbuf
    __flsbuf_byte
    __flsbuf_wide
        0x000033d4:    d10103ff    ....    SUB      sp,sp,#0x40
        0x000033d8:    a9037bfd    .{..    STP      x29,x30,[sp,#0x30]
        0x000033dc:    9100c3fd    ....    ADD      x29,sp,#0x30
        0x000033e0:    a90263f7    .c..    STP      x23,x24,[sp,#0x20]
        0x000033e4:    a9015bf5    .[..    STP      x21,x22,[sp,#0x10]
        0x000033e8:    a90053f3    .S..    STP      x19,x20,[sp,#0]
        0x000033ec:    2a0003f7    ...*    MOV      w23,w0
        0x000033f0:    aa0103f3    ....    MOV      x19,x1
        0x000033f4:    b9401660    `.@.    LDR      w0,[x19,#0x14]
        0x000033f8:    12a00501    ....    MOV      w1,#0xffd7ffff
        0x000033fc:    0a010000    ....    AND      w0,w0,w1
        0x00003400:    320a0000    ...2    ORR      w0,w0,#0x400000
        0x00003404:    b9001660    `...    STR      w0,[x19,#0x14]
        0x00003408:    121b0000    ....    AND      w0,w0,#0x20
        0x0000340c:    7100001f    ...q    CMP      w0,#0
        0x00003410:    54000060    `..T    B.EQ     0x341c ; __flsbuf + 72
        0x00003414:    aa1303e0    ....    MOV      x0,x19
        0x00003418:    940003a0    ....    BL       _deferredlazyseek ; 0x4298
        0x0000341c:    b9401660    `.@.    LDR      w0,[x19,#0x14]
        0x00003420:    52821041    A..R    MOV      w1,#0x1082
        0x00003424:    0a010001    ....    AND      w1,w0,w1
        0x00003428:    7100083f    ?..q    CMP      w1,#2
        0x0000342c:    54000080    ...T    B.EQ     0x343c ; __flsbuf + 104
        0x00003430:    aa1303e0    ....    MOV      x0,x19
        0x00003434:    9400032f    /...    BL       _seterr ; 0x40f0
        0x00003438:    140000b4    ....    B        0x3708 ; __flsbuf + 820
        0x0000343c:    52940001    ...R    MOV      w1,#0xa000
        0x00003440:    0a010001    ....    AND      w1,w0,w1
        0x00003444:    7140203f    ? @q    CMP      w1,#8,LSL #12
        0x00003448:    54000221    !..T    B.NE     0x348c ; __flsbuf + 184
        0x0000344c:    12100000    ....    AND      w0,w0,#0x10000
        0x00003450:    7100001f    ...q    CMP      w0,#0
        0x00003454:    54000100    ...T    B.EQ     0x3474 ; __flsbuf + 160
        0x00003458:    f9402660    `&@.    LDR      x0,[x19,#0x48]
        0x0000345c:    f9400661    a.@.    LDR      x1,[x19,#8]
        0x00003460:    eb01001f    ....    CMP      x0,x1
        0x00003464:    54000048    H..T    B.HI     0x346c ; __flsbuf + 152
        0x00003468:    aa0103e0    ....    MOV      x0,x1
        0x0000346c:    f9000660    `...    STR      x0,[x19,#8]
        0x00003470:    14000007    ....    B        0x348c ; __flsbuf + 184
        0x00003474:    f9400e60    `.@.    LDR      x0,[x19,#0x18]
        0x00003478:    f9002660    `&..    STR      x0,[x19,#0x48]
        0x0000347c:    f9000660    `...    STR      x0,[x19,#8]
        0x00003480:    b9402260    `"@.    LDR      w0,[x19,#0x20]
        0x00003484:    94000201    ....    BL       _sys_flen ; 0x3c88
        0x00003488:    f9001660    `...    STR      x0,[x19,#0x28]
        0x0000348c:    b9401261    a.@.    LDR      w1,[x19,#0x10]
        0x00003490:    52800016    ...R    MOV      w22,#0
        0x00003494:    12001ef5    ....    AND      w21,w23,#0xff
        0x00003498:    7100003f    ?..q    CMP      w1,#0
        0x0000349c:    540000aa    ...T    B.GE     0x34b0 ; __flsbuf + 220
        0x000034a0:    b9401660    `.@.    LDR      w0,[x19,#0x14]
        0x000034a4:    12170002    ....    AND      w2,w0,#0x200
        0x000034a8:    7100005f    _..q    CMP      w2,#0
        0x000034ac:    54000360    `..T    B.EQ     0x3518 ; __flsbuf + 324
        0x000034b0:    b9401660    `.@.    LDR      w0,[x19,#0x14]
        0x000034b4:    32130000    ...2    ORR      w0,w0,#0x2000
        0x000034b8:    b9001660    `...    STR      w0,[x19,#0x14]
        0x000034bc:    b9000276    v...    STR      w22,[x19,#0]
        0x000034c0:    f9400e60    `.@.    LDR      x0,[x19,#0x18]
        0x000034c4:    f100001f    ....    CMP      x0,#0
        0x000034c8:    540006e1    ...T    B.NE     0x35a4 ; __flsbuf + 464
        0x000034cc:    b9402260    `"@.    LDR      w0,[x19,#0x20]
        0x000034d0:    940001d6    ....    BL       _sys_istty ; 0x3c28
        0x000034d4:    9100e274    t...    ADD      x20,x19,#0x38
        0x000034d8:    52800038    8..R    MOV      w24,#1
        0x000034dc:    7100001f    ...q    CMP      w0,#0
        0x000034e0:    54000420     ..T    B.EQ     0x3564 ; __flsbuf + 400
        0x000034e4:    b9401660    `.@.    LDR      w0,[x19,#0x14]
        0x000034e8:    12180400    ....    AND      w0,w0,#0x300
        0x000034ec:    7100001f    ...q    CMP      w0,#0
        0x000034f0:    540002e0    ...T    B.EQ     0x354c ; __flsbuf + 376
        0x000034f4:    b9403260    `2@.    LDR      w0,[x19,#0x30]
        0x000034f8:    93407c00    .|@.    SXTW     x0,w0
        0x000034fc:    94000244    D...    BL       malloc ; 0x3e0c
        0x00003500:    f9000e60    `...    STR      x0,[x19,#0x18]
        0x00003504:    f100001f    ....    CMP      x0,#0
        0x00003508:    54000220     ..T    B.EQ     0x354c ; __flsbuf + 376
        0x0000350c:    b9401660    `.@.    LDR      w0,[x19,#0x14]
        0x00003510:    32150000    ...2    ORR      w0,w0,#0x800
        0x00003514:    14000021    !...    B        0x3598 ; __flsbuf + 452
        0x00003518:    2a2103e1    ..!*    MVN      w1,w1
        0x0000351c:    b9001261    a...    STR      w1,[x19,#0x10]
        0x00003520:    52840001    ...R    MOV      w1,#0x2000
        0x00003524:    72a00021    !..r    MOVK     w1,#1,LSL #16
        0x00003528:    2a010000    ...*    ORR      w0,w0,w1
        0x0000352c:    b9001660    `...    STR      w0,[x19,#0x14]
        0x00003530:    b9000276    v...    STR      w22,[x19,#0]
        0x00003534:    f9400660    `.@.    LDR      x0,[x19,#8]
        0x00003538:    aa0003e1    ....    MOV      x1,x0
        0x0000353c:    91000421    !...    ADD      x1,x1,#1
        0x00003540:    f9000661    a...    STR      x1,[x19,#8]
        0x00003544:    39000015    ...9    STRB     w21,[x0,#0]
        0x00003548:    14000093    ....    B        0x3794 ; __flsbuf + 960
        0x0000354c:    f9000e74    t...    STR      x20,[x19,#0x18]
        0x00003550:    b9003278    x2..    STR      w24,[x19,#0x30]
        0x00003554:    b9401660    `.@.    LDR      w0,[x19,#0x14]
        0x00003558:    12167400    .t..    AND      w0,w0,#0xfffffcff
        0x0000355c:    32160000    ...2    ORR      w0,w0,#0x400
        0x00003560:    1400000e    ....    B        0x3598 ; __flsbuf + 452
        0x00003564:    b9403260    `2@.    LDR      w0,[x19,#0x30]
        0x00003568:    93407c00    .|@.    SXTW     x0,w0
        0x0000356c:    94000228    (...    BL       malloc ; 0x3e0c
        0x00003570:    f9000e60    `...    STR      x0,[x19,#0x18]
        0x00003574:    f100001f    ....    CMP      x0,#0
        0x00003578:    54fffea0    ...T    B.EQ     0x354c ; __flsbuf + 376
        0x0000357c:    b9401660    `.@.    LDR      w0,[x19,#0x14]
        0x00003580:    32150000    ...2    ORR      w0,w0,#0x800
        0x00003584:    b9001660    `...    STR      w0,[x19,#0x14]
        0x00003588:    12180401    ....    AND      w1,w0,#0x300
        0x0000358c:    7100003f    ?..q    CMP      w1,#0
        0x00003590:    54000061    a..T    B.NE     0x359c ; __flsbuf + 456
        0x00003594:    32180000    ...2    ORR      w0,w0,#0x100
        0x00003598:    b9001660    `...    STR      w0,[x19,#0x14]
        0x0000359c:    f9400e60    `.@.    LDR      x0,[x19,#0x18]
        0x000035a0:    f9000660    `...    STR      x0,[x19,#8]
        0x000035a4:    b9401660    `.@.    LDR      w0,[x19,#0x14]
        0x000035a8:    12180001    ....    AND      w1,w0,#0x100
        0x000035ac:    7100003f    ?..q    CMP      w1,#0
        0x000035b0:    f9400e74    t.@.    LDR      x20,[x19,#0x18]
        0x000035b4:    540004a0    ...T    B.EQ     0x3648 ; __flsbuf + 628
        0x000035b8:    f9402660    `&@.    LDR      x0,[x19,#0x48]
        0x000035bc:    f9400661    a.@.    LDR      x1,[x19,#8]
        0x000035c0:    eb01001f    ....    CMP      x0,x1
        0x000035c4:    54000048    H..T    B.HI     0x35cc ; __flsbuf + 504
        0x000035c8:    aa0103e0    ....    MOV      x0,x1
        0x000035cc:    eb140001    ....    SUBS     x1,x0,x20
        0x000035d0:    540000c0    ...T    B.EQ     0x35e8 ; __flsbuf + 532
        0x000035d4:    aa1303e2    ....    MOV      x2,x19
        0x000035d8:    aa1403e0    ....    MOV      x0,x20
        0x000035dc:    940002cd    ....    BL       _writebuf ; 0x4110
        0x000035e0:    7100001f    ...q    CMP      w0,#0
        0x000035e4:    54000921    !..T    B.NE     0x3708 ; __flsbuf + 820
        0x000035e8:    b9401661    a.@.    LDR      w1,[x19,#0x14]
        0x000035ec:    12090020     ...    AND      w0,w1,#0x800000
        0x000035f0:    7100001f    ...q    CMP      w0,#0
        0x000035f4:    540000a0    ...T    B.EQ     0x3608 ; __flsbuf + 564
        0x000035f8:    f9002674    t&..    STR      x20,[x19,#0x48]
        0x000035fc:    f9000674    t...    STR      x20,[x19,#8]
        0x00003600:    b9001276    v...    STR      w22,[x19,#0x10]
        0x00003604:    1400005d    ]...    B        0x3778 ; __flsbuf + 932
        0x00003608:    91000680    ....    ADD      x0,x20,#1
        0x0000360c:    f9002660    `&..    STR      x0,[x19,#0x48]
        0x00003610:    f9000660    `...    STR      x0,[x19,#8]
        0x00003614:    b9403260    `2@.    LDR      w0,[x19,#0x30]
        0x00003618:    51000400    ...Q    SUB      w0,w0,#1
        0x0000361c:    b9001260    `...    STR      w0,[x19,#0x10]
        0x00003620:    32100020     ..2    ORR      w0,w1,#0x10000
        0x00003624:    b9001660    `...    STR      w0,[x19,#0x14]
        0x00003628:    2a1503e0    ...*    MOV      w0,w21
        0x0000362c:    39000295    ...9    STRB     w21,[x20,#0]
        0x00003630:    a94053f3    .S@.    LDP      x19,x20,[sp,#0]
        0x00003634:    a9415bf5    .[A.    LDP      x21,x22,[sp,#0x10]
        0x00003638:    a94263f7    .cB.    LDP      x23,x24,[sp,#0x20]
        0x0000363c:    a9437bfd    .{C.    LDP      x29,x30,[sp,#0x30]
        0x00003640:    910103ff    ....    ADD      sp,sp,#0x40
        0x00003644:    d65f03c0    .._.    RET      
        0x00003648:    12090001    ....    AND      w1,w0,#0x800000
        0x0000364c:    7100003f    ?..q    CMP      w1,#0
        0x00003650:    54000060    `..T    B.EQ     0x365c ; __flsbuf + 648
        0x00003654:    12100004    ....    AND      w4,w0,#0x10000
        0x00003658:    1400000c    ....    B        0x3688 ; __flsbuf + 692
        0x0000365c:    f9400660    `.@.    LDR      x0,[x19,#8]
        0x00003660:    aa0003e1    ....    MOV      x1,x0
        0x00003664:    91000421    !...    ADD      x1,x1,#1
        0x00003668:    f9000661    a...    STR      x1,[x19,#8]
        0x0000366c:    39000015    ...9    STRB     w21,[x0,#0]
        0x00003670:    b9401660    `.@.    LDR      w0,[x19,#0x14]
        0x00003674:    32100000    ...2    ORR      w0,w0,#0x10000
        0x00003678:    b9001660    `...    STR      w0,[x19,#0x14]
        0x0000367c:    52800140    @..R    MOV      w0,#0xa
        0x00003680:    6b37001f    ..7k    CMP      w0,w23,UXTB
        0x00003684:    1a9f17e4    ....    CSET     w4,EQ
        0x00003688:    f9402661    a&@.    LDR      x1,[x19,#0x48]
        0x0000368c:    f9400660    `.@.    LDR      x0,[x19,#8]
        0x00003690:    eb00003f    ?...    CMP      x1,x0
        0x00003694:    54000069    i..T    B.LS     0x36a0 ; __flsbuf + 716
        0x00003698:    aa0103e2    ....    MOV      x2,x1
        0x0000369c:    14000002    ....    B        0x36a4 ; __flsbuf + 720
        0x000036a0:    aa0003e2    ....    MOV      x2,x0
        0x000036a4:    cb140043    C...    SUB      x3,x2,x20
        0x000036a8:    b9401662    b.@.    LDR      w2,[x19,#0x14]
        0x000036ac:    12160042    B...    AND      w2,w2,#0x400
        0x000036b0:    7100005f    _..q    CMP      w2,#0
        0x000036b4:    540000c1    ...T    B.NE     0x36cc ; __flsbuf + 760
        0x000036b8:    b9403262    b2@.    LDR      w2,[x19,#0x30]
        0x000036bc:    6b03005f    _..k    CMP      w2,w3
        0x000036c0:    5400006d    m..T    B.LE     0x36cc ; __flsbuf + 760
        0x000036c4:    7100009f    ...q    CMP      w4,#0
        0x000036c8:    54000420     ..T    B.EQ     0x374c ; __flsbuf + 888
        0x000036cc:    eb00003f    ?...    CMP      x1,x0
        0x000036d0:    54000048    H..T    B.HI     0x36d8 ; __flsbuf + 772
        0x000036d4:    aa0003e1    ....    MOV      x1,x0
        0x000036d8:    cb000037    7...    SUB      x23,x1,x0
        0x000036dc:    f9002674    t&..    STR      x20,[x19,#0x48]
        0x000036e0:    f9000674    t...    STR      x20,[x19,#8]
        0x000036e4:    b9001276    v...    STR      w22,[x19,#0x10]
        0x000036e8:    7100007f    ...q    CMP      w3,#0
        0x000036ec:    540001cd    ...T    B.LE     0x3724 ; __flsbuf + 848
        0x000036f0:    aa1303e2    ....    MOV      x2,x19
        0x000036f4:    2a0303e1    ...*    MOV      w1,w3
        0x000036f8:    aa1403e0    ....    MOV      x0,x20
        0x000036fc:    94000285    ....    BL       _writebuf ; 0x4110
        0x00003700:    7100001f    ...q    CMP      w0,#0
        0x00003704:    54000100    ...T    B.EQ     0x3724 ; __flsbuf + 848
        0x00003708:    12800000    ....    MOV      w0,#0xffffffff
        0x0000370c:    a94053f3    .S@.    LDP      x19,x20,[sp,#0]
        0x00003710:    a9415bf5    .[A.    LDP      x21,x22,[sp,#0x10]
        0x00003714:    a94263f7    .cB.    LDP      x23,x24,[sp,#0x20]
        0x00003718:    a9437bfd    .{C.    LDP      x29,x30,[sp,#0x30]
        0x0000371c:    910103ff    ....    ADD      sp,sp,#0x40
        0x00003720:    d65f03c0    .._.    RET      
        0x00003724:    710002ff    ...q    CMP      w23,#0
        0x00003728:    54000120     ..T    B.EQ     0x374c ; __flsbuf + 888
        0x0000372c:    f9401660    `.@.    LDR      x0,[x19,#0x28]
        0x00003730:    cb37c000    ..7.    SUB      x0,x0,w23,SXTW
        0x00003734:    f9001660    `...    STR      x0,[x19,#0x28]
        0x00003738:    f9002674    t&..    STR      x20,[x19,#0x48]
        0x0000373c:    f9000674    t...    STR      x20,[x19,#8]
        0x00003740:    b9401660    `.@.    LDR      w0,[x19,#0x14]
        0x00003744:    321c0000    ...2    ORR      w0,w0,#0x10
        0x00003748:    b9001660    `...    STR      w0,[x19,#0x14]
        0x0000374c:    b9401660    `.@.    LDR      w0,[x19,#0x14]
        0x00003750:    12090000    ....    AND      w0,w0,#0x800000
        0x00003754:    7100001f    ...q    CMP      w0,#0
        0x00003758:    540001e0    ...T    B.EQ     0x3794 ; __flsbuf + 960
        0x0000375c:    f9401660    `.@.    LDR      x0,[x19,#0x28]
        0x00003760:    f9400661    a.@.    LDR      x1,[x19,#8]
        0x00003764:    cb140021    !...    SUB      x1,x1,x20
        0x00003768:    8b010000    ....    ADD      x0,x0,x1
        0x0000376c:    f9001660    `...    STR      x0,[x19,#0x28]
        0x00003770:    f9002674    t&..    STR      x20,[x19,#0x48]
        0x00003774:    f9000674    t...    STR      x20,[x19,#8]
        0x00003778:    12800020     ...    MOV      w0,#0xfffffffe
        0x0000377c:    a94053f3    .S@.    LDP      x19,x20,[sp,#0]
        0x00003780:    a9415bf5    .[A.    LDP      x21,x22,[sp,#0x10]
        0x00003784:    a94263f7    .cB.    LDP      x23,x24,[sp,#0x20]
        0x00003788:    a9437bfd    .{C.    LDP      x29,x30,[sp,#0x30]
        0x0000378c:    910103ff    ....    ADD      sp,sp,#0x40
        0x00003790:    d65f03c0    .._.    RET      
        0x00003794:    2a1503e0    ...*    MOV      w0,w21
        0x00003798:    a94053f3    .S@.    LDP      x19,x20,[sp,#0]
        0x0000379c:    a9415bf5    .[A.    LDP      x21,x22,[sp,#0x10]
        0x000037a0:    a94263f7    .cB.    LDP      x23,x24,[sp,#0x20]
        0x000037a4:    a9437bfd    .{C.    LDP      x29,x30,[sp,#0x30]
        0x000037a8:    910103ff    ....    ADD      sp,sp,#0x40
        0x000037ac:    d65f03c0    .._.    RET      
    .text
    setvbuf
        0x000037b0:    b9401405    ..@.    LDR      w5,[x0,#0x14]
        0x000037b4:    120004a4    ....    AND      w4,w5,#3
        0x000037b8:    7100009f    ...q    CMP      w4,#0
        0x000037bc:    54000220     ..T    B.EQ     0x3800 ; setvbuf + 80
        0x000037c0:    120a00a4    ....    AND      w4,w5,#0x400000
        0x000037c4:    7100009f    ...q    CMP      w4,#0
        0x000037c8:    540001c1    ...T    B.NE     0x3800 ; setvbuf + 80
        0x000037cc:    7104005f    _..q    CMP      w2,#0x100
        0x000037d0:    54000100    ...T    B.EQ     0x37f0 ; setvbuf + 64
        0x000037d4:    7108005f    _..q    CMP      w2,#0x200
        0x000037d8:    540000c0    ...T    B.EQ     0x37f0 ; setvbuf + 64
        0x000037dc:    7110005f    _..q    CMP      w2,#0x400
        0x000037e0:    54000101    ...T    B.NE     0x3800 ; setvbuf + 80
        0x000037e4:    9100e001    ....    ADD      x1,x0,#0x38
        0x000037e8:    d2800023    #...    MOV      x3,#1
        0x000037ec:    14000007    ....    B        0x3808 ; setvbuf + 88
        0x000037f0:    d1000464    d...    SUB      x4,x3,#1
        0x000037f4:    b2405fe6    ._@.    MOV      x6,#0xffffff
        0x000037f8:    eb06009f    ....    CMP      x4,x6
        0x000037fc:    54000063    c..T    B.CC     0x3808 ; setvbuf + 88
        0x00003800:    52800020     ..R    MOV      w0,#1
        0x00003804:    d65f03c0    .._.    RET      
        0x00003808:    f9000c01    ....    STR      x1,[x0,#0x18]
        0x0000380c:    f9000401    ....    STR      x1,[x0,#8]
        0x00003810:    b9003003    .0..    STR      w3,[x0,#0x30]
        0x00003814:    12146ca1    .l..    AND      w1,w5,#0xfffff0ff
        0x00003818:    2a020021    !..*    ORR      w1,w1,w2
        0x0000381c:    b9001401    ....    STR      w1,[x0,#0x14]
        0x00003820:    52800000    ...R    MOV      w0,#0
        0x00003824:    d65f03c0    .._.    RET      
    .text
    _freopen_locked
    freopen
        0x00003828:    d10103ff    ....    SUB      sp,sp,#0x40
        0x0000382c:    f9001bfe    ....    STR      x30,[sp,#0x30]
        0x00003830:    a90277f7    .w..    STP      x23,x29,[sp,#0x20]
        0x00003834:    9100a3fd    ....    ADD      x29,sp,#0x28
        0x00003838:    a9015bf5    .[..    STP      x21,x22,[sp,#0x10]
        0x0000383c:    a90053f3    .S..    STP      x19,x20,[sp,#0]
        0x00003840:    aa0003f7    ....    MOV      x23,x0
        0x00003844:    aa0103f3    ....    MOV      x19,x1
        0x00003848:    aa0203f4    ....    MOV      x20,x2
        0x0000384c:    aa1403e0    ....    MOV      x0,x20
        0x00003850:    9400007e    ~...    BL       _fclose_internal ; 0x3a48
        0x00003854:    39400261    a.@9    LDRB     w1,[x19,#0]
        0x00003858:    91000660    `...    ADD      x0,x19,#1
        0x0000385c:    d2800016    ....    MOV      x22,#0
        0x00003860:    7101843f    ?..q    CMP      w1,#0x61
        0x00003864:    54000180    ...T    B.EQ     0x3894 ; _freopen_locked + 108
        0x00003868:    7101c83f    ?..q    CMP      w1,#0x72
        0x0000386c:    54000080    ...T    B.EQ     0x387c ; _freopen_locked + 84
        0x00003870:    7101dc3f    ?..q    CMP      w1,#0x77
        0x00003874:    54000721    !..T    B.NE     0x3958 ; _freopen_locked + 304
        0x00003878:    14000004    ....    B        0x3888 ; _freopen_locked + 96
        0x0000387c:    52800035    5..R    MOV      w21,#1
        0x00003880:    52800013    ...R    MOV      w19,#0
        0x00003884:    14000006    ....    B        0x389c ; _freopen_locked + 116
        0x00003888:    52800055    U..R    MOV      w21,#2
        0x0000388c:    52800093    ...R    MOV      w19,#4
        0x00003890:    14000003    ....    B        0x389c ; _freopen_locked + 116
        0x00003894:    52900055    U..R    MOV      w21,#0x8002
        0x00003898:    52800113    ...R    MOV      w19,#8
        0x0000389c:    38401401    ..@8    LDRB     w1,[x0],#1
        0x000038a0:    7100ac3f    ?..q    CMP      w1,#0x2b
        0x000038a4:    54000100    ...T    B.EQ     0x38c4 ; _freopen_locked + 156
        0x000038a8:    7101883f    ?..q    CMP      w1,#0x62
        0x000038ac:    54000120     ..T    B.EQ     0x38d0 ; _freopen_locked + 168
        0x000038b0:    92800001    ....    MOV      x1,#-1
        0x000038b4:    38617800    .xa8    LDRB     w0,[x0,x1,LSL #0]
        0x000038b8:    7101d01f    ...q    CMP      w0,#0x74
        0x000038bc:    54000100    ...T    B.EQ     0x38dc ; _freopen_locked + 180
        0x000038c0:    14000008    ....    B        0x38e0 ; _freopen_locked + 184
        0x000038c4:    320006b5    ...2    ORR      w21,w21,#3
        0x000038c8:    321f0273    s..2    ORR      w19,w19,#2
        0x000038cc:    17fffff4    ....    B        0x389c ; _freopen_locked + 116
        0x000038d0:    321e02b5    ...2    ORR      w21,w21,#4
        0x000038d4:    32000273    s..2    ORR      w19,w19,#1
        0x000038d8:    17fffff1    ....    B        0x389c ; _freopen_locked + 116
        0x000038dc:    321c0273    s..2    ORR      w19,w19,#0x10
        0x000038e0:    2a1303e1    ...*    MOV      w1,w19
        0x000038e4:    aa1703e0    ....    MOV      x0,x23
        0x000038e8:    94000099    ....    BL       _sys_open ; 0x3b4c
        0x000038ec:    2a0003e1    ...*    MOV      w1,w0
        0x000038f0:    3100041f    ...1    CMN      w0,#1
        0x000038f4:    54000320     ..T    B.EQ     0x3958 ; _freopen_locked + 304
        0x000038f8:    aa1603e0    ....    MOV      x0,x22
        0x000038fc:    f9000e80    ....    STR      x0,[x20,#0x18]
        0x00003900:    f9000680    ....    STR      x0,[x20,#8]
        0x00003904:    52804000    .@.R    MOV      w0,#0x200
        0x00003908:    b9003280    .2..    STR      w0,[x20,#0x30]
        0x0000390c:    b9001695    ....    STR      w21,[x20,#0x14]
        0x00003910:    b9002281    ."..    STR      w1,[x20,#0x20]
        0x00003914:    121d0260    `...    AND      w0,w19,#8
        0x00003918:    7100001f    ...q    CMP      w0,#0
        0x0000391c:    540000a0    ...T    B.EQ     0x3930 ; _freopen_locked + 264
        0x00003920:    52800042    B..R    MOV      w2,#2
        0x00003924:    aa1603e1    ....    MOV      x1,x22
        0x00003928:    aa1403e0    ....    MOV      x0,x20
        0x0000392c:    94000170    p...    BL       _fseek ; 0x3eec
        0x00003930:    f9404280    .B@.    LDR      x0,[x20,#0x80]
        0x00003934:    b2400000    ..@.    ORR      x0,x0,#1
        0x00003938:    f9004280    .B..    STR      x0,[x20,#0x80]
        0x0000393c:    aa1403e0    ....    MOV      x0,x20
        0x00003940:    a94053f3    .S@.    LDP      x19,x20,[sp,#0]
        0x00003944:    a9415bf5    .[A.    LDP      x21,x22,[sp,#0x10]
        0x00003948:    a94277f7    .wB.    LDP      x23,x29,[sp,#0x20]
        0x0000394c:    f9401bfe    ..@.    LDR      x30,[sp,#0x30]
        0x00003950:    910103ff    ....    ADD      sp,sp,#0x40
        0x00003954:    d65f03c0    .._.    RET      
        0x00003958:    aa1603e0    ....    MOV      x0,x22
        0x0000395c:    a94053f3    .S@.    LDP      x19,x20,[sp,#0]
        0x00003960:    a9415bf5    .[A.    LDP      x21,x22,[sp,#0x10]
        0x00003964:    a94277f7    .wB.    LDP      x23,x29,[sp,#0x20]
        0x00003968:    f9401bfe    ..@.    LDR      x30,[sp,#0x30]
        0x0000396c:    910103ff    ....    ADD      sp,sp,#0x40
        0x00003970:    d65f03c0    .._.    RET      
    fopen
        0x00003974:    d10103ff    ....    SUB      sp,sp,#0x40
        0x00003978:    a9037bfd    .{..    STP      x29,x30,[sp,#0x30]
        0x0000397c:    9100c3fd    ....    ADD      x29,sp,#0x30
        0x00003980:    a90263f7    .c..    STP      x23,x24,[sp,#0x20]
        0x00003984:    a9015bf5    .[..    STP      x21,x22,[sp,#0x10]
        0x00003988:    a90053f3    .S..    STP      x19,x20,[sp,#0]
        0x0000398c:    aa0003f6    ....    MOV      x22,x0
        0x00003990:    aa0103f7    ....    MOV      x23,x1
        0x00003994:    58000573    s..X    LDR      x19,{pc}+0xac ; 0x3a40 ; [0x3a40] = 
        0x00003998:    d2800015    ....    MOV      x21,#0
        0x0000399c:    f9404260    `B@.    LDR      x0,[x19,#0x80]
        0x000039a0:    92400001    ..@.    AND      x1,x0,#1
        0x000039a4:    f100003f    ?...    CMP      x1,#0
        0x000039a8:    54000061    a..T    B.NE     0x39b4 ; fopen + 64
        0x000039ac:    aa1303e2    ....    MOV      x2,x19
        0x000039b0:    1400001c    ....    B        0x3a20 ; fopen + 172
        0x000039b4:    927ff800    ....    AND      x0,x0,#0xfffffffffffffffe
        0x000039b8:    f100001f    ....    CMP      x0,#0
        0x000039bc:    54000060    `..T    B.EQ     0x39c8 ; fopen + 84
        0x000039c0:    aa0003f3    ....    MOV      x19,x0
        0x000039c4:    17fffff6    ....    B        0x399c ; fopen + 40
        0x000039c8:    d2801118    ....    MOV      x24,#0x88
        0x000039cc:    aa1803e0    ....    MOV      x0,x24
        0x000039d0:    9400010f    ....    BL       malloc ; 0x3e0c
        0x000039d4:    aa0003f4    ....    MOV      x20,x0
        0x000039d8:    f100029f    ....    CMP      x20,#0
        0x000039dc:    54000101    ...T    B.NE     0x39fc ; fopen + 136
        0x000039e0:    aa1503e0    ....    MOV      x0,x21
        0x000039e4:    a94053f3    .S@.    LDP      x19,x20,[sp,#0]
        0x000039e8:    a9415bf5    .[A.    LDP      x21,x22,[sp,#0x10]
        0x000039ec:    a94263f7    .cB.    LDP      x23,x24,[sp,#0x20]
        0x000039f0:    a9437bfd    .{C.    LDP      x29,x30,[sp,#0x30]
        0x000039f4:    910103ff    ....    ADD      sp,sp,#0x40
        0x000039f8:    d65f03c0    .._.    RET      
        0x000039fc:    f9404260    `B@.    LDR      x0,[x19,#0x80]
        0x00003a00:    927ffa81    ....    AND      x1,x20,#0xfffffffffffffffe
        0x00003a04:    b2400021    !.@.    ORR      x1,x1,#1
        0x00003a08:    aa010000    ....    ORR      x0,x0,x1
        0x00003a0c:    f9004260    `B..    STR      x0,[x19,#0x80]
        0x00003a10:    aa1803e1    ....    MOV      x1,x24
        0x00003a14:    aa1403e0    ....    MOV      x0,x20
        0x00003a18:    97fff5f9    ....    BL       __aeabi_memclr4 ; 0x11fc
        0x00003a1c:    aa1403e2    ....    MOV      x2,x20
        0x00003a20:    aa1703e1    ....    MOV      x1,x23
        0x00003a24:    aa1603e0    ....    MOV      x0,x22
        0x00003a28:    a94053f3    .S@.    LDP      x19,x20,[sp,#0]
        0x00003a2c:    a9415bf5    .[A.    LDP      x21,x22,[sp,#0x10]
        0x00003a30:    a94263f7    .cB.    LDP      x23,x24,[sp,#0x20]
        0x00003a34:    a9437bfd    .{C.    LDP      x29,x30,[sp,#0x30]
        0x00003a38:    910103ff    ....    ADD      sp,sp,#0x40
        0x00003a3c:    17ffff7b    {...    B        _freopen_locked ; 0x3828
    $d
        0x00003a40:    04000020     ...    DCD    67108896
        0x00003a44:    00000000    ....    DCD    0
    $x
    .text
    _fclose_internal
    fclose
        0x00003a48:    d10103ff    ....    SUB      sp,sp,#0x40
        0x00003a4c:    f9001bfe    ....    STR      x30,[sp,#0x30]
        0x00003a50:    a90277f7    .w..    STP      x23,x29,[sp,#0x20]
        0x00003a54:    9100a3fd    ....    ADD      x29,sp,#0x28
        0x00003a58:    a9015bf5    .[..    STP      x21,x22,[sp,#0x10]
        0x00003a5c:    a90053f3    .S..    STP      x19,x20,[sp,#0]
        0x00003a60:    aa0003f3    ....    MOV      x19,x0
        0x00003a64:    b9402276    v"@.    LDR      w22,[x19,#0x20]
        0x00003a68:    f9400e74    t.@.    LDR      x20,[x19,#0x18]
        0x00003a6c:    b9401677    w.@.    LDR      w23,[x19,#0x14]
        0x00003a70:    52800015    ...R    MOV      w21,#0
        0x00003a74:    120006e0    ....    AND      w0,w23,#3
        0x00003a78:    7100001f    ...q    CMP      w0,#0
        0x00003a7c:    540000e0    ...T    B.EQ     0x3a98 ; _fclose_internal + 80
        0x00003a80:    aa1303e0    ....    MOV      x0,x19
        0x00003a84:    940001da    ....    BL       _fflush ; 0x41ec
        0x00003a88:    2a1603e0    ...*    MOV      w0,w22
        0x00003a8c:    9400003e    >...    BL       _sys_close ; 0x3b84
        0x00003a90:    7100001f    ...q    CMP      w0,#0
        0x00003a94:    5400010a    ...T    B.GE     0x3ab4 ; _fclose_internal + 108
        0x00003a98:    12800000    ....    MOV      w0,#0xffffffff
        0x00003a9c:    a94053f3    .S@.    LDP      x19,x20,[sp,#0]
        0x00003aa0:    a9415bf5    .[A.    LDP      x21,x22,[sp,#0x10]
        0x00003aa4:    a94277f7    .wB.    LDP      x23,x29,[sp,#0x20]
        0x00003aa8:    f9401bfe    ..@.    LDR      x30,[sp,#0x30]
        0x00003aac:    910103ff    ....    ADD      sp,sp,#0x40
        0x00003ab0:    d65f03c0    .._.    RET      
        0x00003ab4:    121502e0    ....    AND      w0,w23,#0x800
        0x00003ab8:    7100001f    ...q    CMP      w0,#0
        0x00003abc:    54000060    `..T    B.EQ     0x3ac8 ; _fclose_internal + 128
        0x00003ac0:    aa1403e0    ....    MOV      x0,x20
        0x00003ac4:    97fffabf    ....    BL       free ; 0x25c0
        0x00003ac8:    d2800f01    ....    MOV      x1,#0x78
        0x00003acc:    aa1303e0    ....    MOV      x0,x19
        0x00003ad0:    97fff5cb    ....    BL       __aeabi_memclr4 ; 0x11fc
        0x00003ad4:    f9404260    `B@.    LDR      x0,[x19,#0x80]
        0x00003ad8:    927ff800    ....    AND      x0,x0,#0xfffffffffffffffe
        0x00003adc:    f9004260    `B..    STR      x0,[x19,#0x80]
        0x00003ae0:    2a1503e0    ...*    MOV      w0,w21
        0x00003ae4:    a94053f3    .S@.    LDP      x19,x20,[sp,#0]
        0x00003ae8:    a9415bf5    .[A.    LDP      x21,x22,[sp,#0x10]
        0x00003aec:    a94277f7    .wB.    LDP      x23,x29,[sp,#0x20]
        0x00003af0:    f9401bfe    ..@.    LDR      x30,[sp,#0x30]
        0x00003af4:    910103ff    ....    ADD      sp,sp,#0x40
        0x00003af8:    d65f03c0    .._.    RET      
    .text
    exit
        0x00003afc:    d10083ff    ....    SUB      sp,sp,#0x20
        0x00003b00:    f9000bfe    ....    STR      x30,[sp,#0x10]
        0x00003b04:    a90077f3    .w..    STP      x19,x29,[sp,#0]
        0x00003b08:    910023fd    .#..    ADD      x29,sp,#8
        0x00003b0c:    2a0003f3    ...*    MOV      w19,w0
        0x00003b10:    d503201f    . ..    NOP      
        0x00003b14:    2a1303e0    ...*    MOV      w0,w19
        0x00003b18:    a94077f3    .w@.    LDP      x19,x29,[sp,#0]
        0x00003b1c:    f9400bfe    ..@.    LDR      x30,[sp,#0x10]
        0x00003b20:    910083ff    ....    ADD      sp,sp,#0x20
        0x00003b24:    17fff1d9    ....    B        __rt_exit ; 0x288
    .text
    __rt_SIGRTRED
        0x00003b28:    d10043ff    .C..    SUB      sp,sp,#0x10
        0x00003b2c:    a9007bfd    .{..    STP      x29,x30,[sp,#0]
        0x00003b30:    910003fd    ....    MOV      x29,sp
        0x00003b34:    940001fc    ....    BL       __rt_SIGRTRED_inner ; 0x4324
        0x00003b38:    a9407bfd    .{@.    LDP      x29,x30,[sp,#0]
        0x00003b3c:    910043ff    .C..    ADD      sp,sp,#0x10
        0x00003b40:    140001f5    ....    B        __sig_exit ; 0x4314
    .text
    __ieee_status
        0x00003b44:    52800000    ...R    MOV      w0,#0
        0x00003b48:    d65f03c0    .._.    RET      
    .text
    _sys_open
        0x00003b4c:    d100c3ff    ....    SUB      sp,sp,#0x30
        0x00003b50:    a9027bfd    .{..    STP      x29,x30,[sp,#0x20]
        0x00003b54:    910083fd    ....    ADD      x29,sp,#0x20
        0x00003b58:    f90003e0    ....    STR      x0,[sp,#0]
        0x00003b5c:    93407c21    !|@.    SXTW     x1,w1
        0x00003b60:    f90007e1    ....    STR      x1,[sp,#8]
        0x00003b64:    940002ab    ....    BL       strlen ; 0x4610
        0x00003b68:    f9000be0    ....    STR      x0,[sp,#0x10]
        0x00003b6c:    910003e1    ....    MOV      x1,sp
        0x00003b70:    52800020     ..R    MOV      w0,#1
        0x00003b74:    d45e0000    ..^.    HLT      #0xf000
        0x00003b78:    a9427bfd    .{B.    LDP      x29,x30,[sp,#0x20]
        0x00003b7c:    9100c3ff    ....    ADD      sp,sp,#0x30
        0x00003b80:    d65f03c0    .._.    RET      
    _sys_close
        0x00003b84:    d10083ff    ....    SUB      sp,sp,#0x20
        0x00003b88:    a9017bfd    .{..    STP      x29,x30,[sp,#0x10]
        0x00003b8c:    910043fd    .C..    ADD      x29,sp,#0x10
        0x00003b90:    93407c00    .|@.    SXTW     x0,w0
        0x00003b94:    f90003e0    ....    STR      x0,[sp,#0]
        0x00003b98:    910003e1    ....    MOV      x1,sp
        0x00003b9c:    52800040    @..R    MOV      w0,#2
        0x00003ba0:    d45e0000    ..^.    HLT      #0xf000
        0x00003ba4:    a9417bfd    .{A.    LDP      x29,x30,[sp,#0x10]
        0x00003ba8:    910083ff    ....    ADD      sp,sp,#0x20
        0x00003bac:    d65f03c0    .._.    RET      
    _sys_write
        0x00003bb0:    d100c3ff    ....    SUB      sp,sp,#0x30
        0x00003bb4:    a9027bfd    .{..    STP      x29,x30,[sp,#0x20]
        0x00003bb8:    910083fd    ....    ADD      x29,sp,#0x20
        0x00003bbc:    93407c00    .|@.    SXTW     x0,w0
        0x00003bc0:    f90003e0    ....    STR      x0,[sp,#0]
        0x00003bc4:    f90007e1    ....    STR      x1,[sp,#8]
        0x00003bc8:    d3407c40    @|@.    UBFX     x0,x2,#0,#32
        0x00003bcc:    f9000be0    ....    STR      x0,[sp,#0x10]
        0x00003bd0:    910003e1    ....    MOV      x1,sp
        0x00003bd4:    528000a0    ...R    MOV      w0,#5
        0x00003bd8:    d45e0000    ..^.    HLT      #0xf000
        0x00003bdc:    a9427bfd    .{B.    LDP      x29,x30,[sp,#0x20]
        0x00003be0:    9100c3ff    ....    ADD      sp,sp,#0x30
        0x00003be4:    d65f03c0    .._.    RET      
    _sys_read
        0x00003be8:    d100c3ff    ....    SUB      sp,sp,#0x30
        0x00003bec:    a9027bfd    .{..    STP      x29,x30,[sp,#0x20]
        0x00003bf0:    910083fd    ....    ADD      x29,sp,#0x20
        0x00003bf4:    93407c00    .|@.    SXTW     x0,w0
        0x00003bf8:    f90003e0    ....    STR      x0,[sp,#0]
        0x00003bfc:    f90007e1    ....    STR      x1,[sp,#8]
        0x00003c00:    d3407c40    @|@.    UBFX     x0,x2,#0,#32
        0x00003c04:    f9000be0    ....    STR      x0,[sp,#0x10]
        0x00003c08:    93407c60    `|@.    SXTW     x0,w3
        0x00003c0c:    f9000fe0    ....    STR      x0,[sp,#0x18]
        0x00003c10:    910003e1    ....    MOV      x1,sp
        0x00003c14:    528000c0    ...R    MOV      w0,#6
        0x00003c18:    d45e0000    ..^.    HLT      #0xf000
        0x00003c1c:    a9427bfd    .{B.    LDP      x29,x30,[sp,#0x20]
        0x00003c20:    9100c3ff    ....    ADD      sp,sp,#0x30
        0x00003c24:    d65f03c0    .._.    RET      
    _sys_istty
        0x00003c28:    d10083ff    ....    SUB      sp,sp,#0x20
        0x00003c2c:    a9017bfd    .{..    STP      x29,x30,[sp,#0x10]
        0x00003c30:    910043fd    .C..    ADD      x29,sp,#0x10
        0x00003c34:    93407c00    .|@.    SXTW     x0,w0
        0x00003c38:    f90003e0    ....    STR      x0,[sp,#0]
        0x00003c3c:    910003e1    ....    MOV      x1,sp
        0x00003c40:    52800120     ..R    MOV      w0,#9
        0x00003c44:    d45e0000    ..^.    HLT      #0xf000
        0x00003c48:    a9417bfd    .{A.    LDP      x29,x30,[sp,#0x10]
        0x00003c4c:    910083ff    ....    ADD      sp,sp,#0x20
        0x00003c50:    d65f03c0    .._.    RET      
    _sys_seek
        0x00003c54:    d10083ff    ....    SUB      sp,sp,#0x20
        0x00003c58:    a9017bfd    .{..    STP      x29,x30,[sp,#0x10]
        0x00003c5c:    910043fd    .C..    ADD      x29,sp,#0x10
        0x00003c60:    93407c00    .|@.    SXTW     x0,w0
        0x00003c64:    f90003e0    ....    STR      x0,[sp,#0]
        0x00003c68:    f90007e1    ....    STR      x1,[sp,#8]
        0x00003c6c:    910003e1    ....    MOV      x1,sp
        0x00003c70:    52800140    @..R    MOV      w0,#0xa
        0x00003c74:    d45e0000    ..^.    HLT      #0xf000
        0x00003c78:    a9417bfd    .{A.    LDP      x29,x30,[sp,#0x10]
        0x00003c7c:    910083ff    ....    ADD      sp,sp,#0x20
        0x00003c80:    d65f03c0    .._.    RET      
    _sys_ensure
        0x00003c84:    d65f03c0    .._.    RET      
    _sys_flen
        0x00003c88:    d10083ff    ....    SUB      sp,sp,#0x20
        0x00003c8c:    a9017bfd    .{..    STP      x29,x30,[sp,#0x10]
        0x00003c90:    910043fd    .C..    ADD      x29,sp,#0x10
        0x00003c94:    93407c00    .|@.    SXTW     x0,w0
        0x00003c98:    f90003e0    ....    STR      x0,[sp,#0]
        0x00003c9c:    910003e1    ....    MOV      x1,sp
        0x00003ca0:    52800180    ...R    MOV      w0,#0xc
        0x00003ca4:    d45e0000    ..^.    HLT      #0xf000
        0x00003ca8:    93407c00    .|@.    SXTW     x0,w0
        0x00003cac:    a9417bfd    .{A.    LDP      x29,x30,[sp,#0x10]
        0x00003cb0:    910083ff    ....    ADD      sp,sp,#0x20
        0x00003cb4:    d65f03c0    .._.    RET      
    .text
    __rt_heap_descriptor
        0x00003cb8:    58000040    @..X    LDR      x0,{pc}+8 ; 0x3cc0 ; [0x3cc0] = 
        0x00003cbc:    d65f03c0    .._.    RET      
    $d
        0x00003cc0:    040001e0    ....    DCD    67109344
        0x00003cc4:    00000000    ....    DCD    0
    $x
    .text
    __use_no_heap
        0x00003cc8:    d65f03c0    .._.    RET      
    __heap$guard
        0x00003ccc:    d65f03c0    .._.    RET      
    .text
    _terminate_user_alloc
        0x00003cd0:    d65f03c0    .._.    RET      
    _init_user_alloc
        0x00003cd4:    d65f03c0    .._.    RET      
    __Heap_Full
        0x00003cd8:    d100c3ff    ....    SUB      sp,sp,#0x30
        0x00003cdc:    f90013fe    ....    STR      x30,[sp,#0x20]
        0x00003ce0:    a90177f3    .w..    STP      x19,x29,[sp,#0x10]
        0x00003ce4:    910063fd    .c..    ADD      x29,sp,#0x18
        0x00003ce8:    aa0003f3    ....    MOV      x19,x0
        0x00003cec:    aa0103e2    ....    MOV      x2,x1
        0x00003cf0:    910003e1    ....    MOV      x1,sp
        0x00003cf4:    52800000    ...R    MOV      w0,#0
        0x00003cf8:    94000272    r...    BL       __rt_heap_expand ; 0x46c0
        0x00003cfc:    aa0003e2    ....    MOV      x2,x0
        0x00003d00:    f100005f    _...    CMP      x2,#0
        0x00003d04:    54000120     ..T    B.EQ     0x3d28 ; __Heap_Full + 80
        0x00003d08:    f94003e1    ..@.    LDR      x1,[sp,#0]
        0x00003d0c:    aa1303e0    ....    MOV      x0,x19
        0x00003d10:    940001dd    ....    BL       __Heap_ProvideMemory ; 0x4484
        0x00003d14:    52800020     ..R    MOV      w0,#1
        0x00003d18:    a94177f3    .wA.    LDP      x19,x29,[sp,#0x10]
        0x00003d1c:    f94013fe    ..@.    LDR      x30,[sp,#0x20]
        0x00003d20:    9100c3ff    ....    ADD      sp,sp,#0x30
        0x00003d24:    d65f03c0    .._.    RET      
        0x00003d28:    52800000    ...R    MOV      w0,#0
        0x00003d2c:    a94177f3    .wA.    LDP      x19,x29,[sp,#0x10]
        0x00003d30:    f94013fe    ..@.    LDR      x30,[sp,#0x20]
        0x00003d34:    9100c3ff    ....    ADD      sp,sp,#0x30
        0x00003d38:    d65f03c0    .._.    RET      
    __Heap_Broken
        0x00003d3c:    d2800020     ...    MOV      x0,#1
        0x00003d40:    1400022d    -...    B        __rt_SIGRTMEM ; 0x45f4
    _init_alloc
        0x00003d44:    d10103ff    ....    SUB      sp,sp,#0x40
        0x00003d48:    a9037bfd    .{..    STP      x29,x30,[sp,#0x30]
        0x00003d4c:    9100c3fd    ....    ADD      x29,sp,#0x30
        0x00003d50:    a9025bf5    .[..    STP      x21,x22,[sp,#0x20]
        0x00003d54:    a90153f3    .S..    STP      x19,x20,[sp,#0x10]
        0x00003d58:    94000250    P...    BL       __rt_heap_escrow ; 0x4698
        0x00003d5c:    aa0003f4    ....    MOV      x20,x0
        0x00003d60:    aa0103f3    ....    MOV      x19,x1
        0x00003d64:    52800000    ...R    MOV      w0,#0
        0x00003d68:    940001c5    ....    BL       __Heap_DescSize ; 0x447c
        0x00003d6c:    2a0003f6    ...*    MOV      w22,w0
        0x00003d70:    8b36c280    ..6.    ADD      x0,x20,w22,SXTW
        0x00003d74:    eb13001f    ....    CMP      x0,x19
        0x00003d78:    540001c9    ...T    B.LS     0x3db0 ; _init_alloc + 108
        0x00003d7c:    93407ec2    .~@.    SXTW     x2,w22
        0x00003d80:    910003e1    ....    MOV      x1,sp
        0x00003d84:    52800000    ...R    MOV      w0,#0
        0x00003d88:    9400024e    N...    BL       __rt_heap_expand ; 0x46c0
        0x00003d8c:    aa0003f5    ....    MOV      x21,x0
        0x00003d90:    d2800000    ....    MOV      x0,#0
        0x00003d94:    f10002bf    ....    CMP      x21,#0
        0x00003d98:    54000041    A..T    B.NE     0x3da0 ; _init_alloc + 92
        0x00003d9c:    94000216    ....    BL       __rt_SIGRTMEM ; 0x45f4
        0x00003da0:    f94003e0    ..@.    LDR      x0,[sp,#0]
        0x00003da4:    eb13001f    ....    CMP      x0,x19
        0x00003da8:    9a941014    ....    CSEL     x20,x0,x20,NE
        0x00003dac:    8b150013    ....    ADD      x19,x0,x21
        0x00003db0:    97ffffc2    ....    BL       __rt_heap_descriptor ; 0x3cb8
        0x00003db4:    aa0003f5    ....    MOV      x21,x0
        0x00003db8:    f90002b4    ....    STR      x20,[x21,#0]
        0x00003dbc:    11001ec0    ....    ADD      w0,w22,#7
        0x00003dc0:    121d7000    .p..    AND      w0,w0,#0xfffffff8
        0x00003dc4:    8b20c294    .. .    ADD      x20,x20,w0,SXTW
        0x00003dc8:    f94002a0    ..@.    LDR      x0,[x21,#0]
        0x00003dcc:    940001a6    ....    BL       __Heap_Initialize ; 0x4464
        0x00003dd0:    eb14027f    ....    CMP      x19,x20
        0x00003dd4:    54000120     ..T    B.EQ     0x3df8 ; _init_alloc + 180
        0x00003dd8:    f94002a0    ..@.    LDR      x0,[x21,#0]
        0x00003ddc:    cb140262    b...    SUB      x2,x19,x20
        0x00003de0:    aa1403e1    ....    MOV      x1,x20
        0x00003de4:    a94153f3    .SA.    LDP      x19,x20,[sp,#0x10]
        0x00003de8:    a9425bf5    .[B.    LDP      x21,x22,[sp,#0x20]
        0x00003dec:    a9437bfd    .{C.    LDP      x29,x30,[sp,#0x30]
        0x00003df0:    910103ff    ....    ADD      sp,sp,#0x40
        0x00003df4:    140001a4    ....    B        __Heap_ProvideMemory ; 0x4484
        0x00003df8:    a94153f3    .SA.    LDP      x19,x20,[sp,#0x10]
        0x00003dfc:    a9425bf5    .[B.    LDP      x21,x22,[sp,#0x20]
        0x00003e00:    a9437bfd    .{C.    LDP      x29,x30,[sp,#0x30]
        0x00003e04:    910103ff    ....    ADD      sp,sp,#0x40
        0x00003e08:    d65f03c0    .._.    RET      
    .text
    malloc
        0x00003e0c:    d100c3ff    ....    SUB      sp,sp,#0x30
        0x00003e10:    a9027bfd    .{..    STP      x29,x30,[sp,#0x20]
        0x00003e14:    910083fd    ....    ADD      x29,sp,#0x20
        0x00003e18:    a9015bf5    .[..    STP      x21,x22,[sp,#0x10]
        0x00003e1c:    a90053f3    .S..    STP      x19,x20,[sp,#0]
        0x00003e20:    aa0003f6    ....    MOV      x22,x0
        0x00003e24:    97ffffa5    ....    BL       __rt_heap_descriptor ; 0x3cb8
        0x00003e28:    f9400014    ..@.    LDR      x20,[x0,#0]
        0x00003e2c:    910022c0    ."..    ADD      x0,x22,#8
        0x00003e30:    91003c00    .<..    ADD      x0,x0,#0xf
        0x00003e34:    927cec13    ..|.    AND      x19,x0,#0xfffffffffffffff0
        0x00003e38:    d2800015    ....    MOV      x21,#0
        0x00003e3c:    eb16027f    ....    CMP      x19,x22
        0x00003e40:    540004a9    ...T    B.LS     0x3ed4 ; malloc + 200
        0x00003e44:    aa1403e3    ....    MOV      x3,x20
        0x00003e48:    f9400462    b.@.    LDR      x2,[x3,#8]
        0x00003e4c:    f100005f    _...    CMP      x2,#0
        0x00003e50:    54000380    ...T    B.EQ     0x3ec0 ; malloc + 180
        0x00003e54:    f9400040    @.@.    LDR      x0,[x2,#0]
        0x00003e58:    eb13001f    ....    CMP      x0,x19
        0x00003e5c:    540002a3    ...T    B.CC     0x3eb0 ; malloc + 164
        0x00003e60:    91004261    aB..    ADD      x1,x19,#0x10
        0x00003e64:    eb01001f    ....    CMP      x0,x1
        0x00003e68:    54000143    C..T    B.CC     0x3e90 ; malloc + 132
        0x00003e6c:    8b130040    @...    ADD      x0,x2,x19
        0x00003e70:    f9400441    A.@.    LDR      x1,[x2,#8]
        0x00003e74:    f9000401    ....    STR      x1,[x0,#8]
        0x00003e78:    f9400041    A.@.    LDR      x1,[x2,#0]
        0x00003e7c:    cb130021    !...    SUB      x1,x1,x19
        0x00003e80:    f9000001    ....    STR      x1,[x0,#0]
        0x00003e84:    f9000460    `...    STR      x0,[x3,#8]
        0x00003e88:    f9000053    S...    STR      x19,[x2,#0]
        0x00003e8c:    14000003    ....    B        0x3e98 ; malloc + 140
        0x00003e90:    f9400440    @.@.    LDR      x0,[x2,#8]
        0x00003e94:    f9000460    `...    STR      x0,[x3,#8]
        0x00003e98:    91002040    @ ..    ADD      x0,x2,#8
        0x00003e9c:    a94053f3    .S@.    LDP      x19,x20,[sp,#0]
        0x00003ea0:    a9415bf5    .[A.    LDP      x21,x22,[sp,#0x10]
        0x00003ea4:    a9427bfd    .{B.    LDP      x29,x30,[sp,#0x20]
        0x00003ea8:    9100c3ff    ....    ADD      sp,sp,#0x30
        0x00003eac:    d65f03c0    .._.    RET      
        0x00003eb0:    aa0203e3    ....    MOV      x3,x2
        0x00003eb4:    f9400462    b.@.    LDR      x2,[x3,#8]
        0x00003eb8:    f100005f    _...    CMP      x2,#0
        0x00003ebc:    54fffcc1    ...T    B.NE     0x3e54 ; malloc + 72
        0x00003ec0:    aa1303e1    ....    MOV      x1,x19
        0x00003ec4:    aa1403e0    ....    MOV      x0,x20
        0x00003ec8:    97ffff84    ....    BL       __Heap_Full ; 0x3cd8
        0x00003ecc:    7100001f    ...q    CMP      w0,#0
        0x00003ed0:    54fffba1    ...T    B.NE     0x3e44 ; malloc + 56
        0x00003ed4:    aa1503e0    ....    MOV      x0,x21
        0x00003ed8:    a94053f3    .S@.    LDP      x19,x20,[sp,#0]
        0x00003edc:    a9415bf5    .[A.    LDP      x21,x22,[sp,#0x10]
        0x00003ee0:    a9427bfd    .{B.    LDP      x29,x30,[sp,#0x20]
        0x00003ee4:    9100c3ff    ....    ADD      sp,sp,#0x30
        0x00003ee8:    d65f03c0    .._.    RET      
    .text
    _fseek
    fseek
        0x00003eec:    d100c3ff    ....    SUB      sp,sp,#0x30
        0x00003ef0:    a9027bfd    .{..    STP      x29,x30,[sp,#0x20]
        0x00003ef4:    910083fd    ....    ADD      x29,sp,#0x20
        0x00003ef8:    a9015bf5    .[..    STP      x21,x22,[sp,#0x10]
        0x00003efc:    a90053f3    .S..    STP      x19,x20,[sp,#0]
        0x00003f00:    aa0003f3    ....    MOV      x19,x0
        0x00003f04:    aa0103f4    ....    MOV      x20,x1
        0x00003f08:    2a0203f5    ...*    MOV      w21,w2
        0x00003f0c:    b9402276    v"@.    LDR      w22,[x19,#0x20]
        0x00003f10:    2a1603e0    ...*    MOV      w0,w22
        0x00003f14:    b9401661    a.@.    LDR      w1,[x19,#0x14]
        0x00003f18:    12000421    !...    AND      w1,w1,#3
        0x00003f1c:    7100003f    ?..q    CMP      w1,#0
        0x00003f20:    54000600    ...T    B.EQ     0x3fe0 ; _fseek + 244
        0x00003f24:    97ffff41    A...    BL       _sys_istty ; 0x3c28
        0x00003f28:    7100001f    ...q    CMP      w0,#0
        0x00003f2c:    540005a1    ...T    B.NE     0x3fe0 ; _fseek + 244
        0x00003f30:    710002bf    ...q    CMP      w21,#0
        0x00003f34:    54000520     ..T    B.EQ     0x3fd8 ; _fseek + 236
        0x00003f38:    710006bf    ...q    CMP      w21,#1
        0x00003f3c:    54000080    ...T    B.EQ     0x3f4c ; _fseek + 96
        0x00003f40:    71000abf    ...q    CMP      w21,#2
        0x00003f44:    540004e1    ...T    B.NE     0x3fe0 ; _fseek + 244
        0x00003f48:    14000005    ....    B        0x3f5c ; _fseek + 112
        0x00003f4c:    aa1303e0    ....    MOV      x0,x19
        0x00003f50:    94000161    a...    BL       _ftell_internal ; 0x44d4
        0x00003f54:    8b140014    ....    ADD      x20,x0,x20
        0x00003f58:    14000020     ...    B        0x3fd8 ; _fseek + 236
        0x00003f5c:    2a1603e0    ...*    MOV      w0,w22
        0x00003f60:    97ffff4a    J...    BL       _sys_flen ; 0x3c88
        0x00003f64:    b9401661    a.@.    LDR      w1,[x19,#0x14]
        0x00003f68:    321c0021    !..2    ORR      w1,w1,#0x10
        0x00003f6c:    b9001661    a...    STR      w1,[x19,#0x14]
        0x00003f70:    f100001f    ....    CMP      x0,#0
        0x00003f74:    5400012a    *..T    B.GE     0x3f98 ; _fseek + 172
        0x00003f78:    aa1303e0    ....    MOV      x0,x19
        0x00003f7c:    9400005d    ]...    BL       _seterr ; 0x40f0
        0x00003f80:    52800020     ..R    MOV      w0,#1
        0x00003f84:    a94053f3    .S@.    LDP      x19,x20,[sp,#0]
        0x00003f88:    a9415bf5    .[A.    LDP      x21,x22,[sp,#0x10]
        0x00003f8c:    a9427bfd    .{B.    LDP      x29,x30,[sp,#0x20]
        0x00003f90:    9100c3ff    ....    ADD      sp,sp,#0x30
        0x00003f94:    d65f03c0    .._.    RET      
        0x00003f98:    12100021    !...    AND      w1,w1,#0x10000
        0x00003f9c:    7100003f    ?..q    CMP      w1,#0
        0x00003fa0:    540001a0    ...T    B.EQ     0x3fd4 ; _fseek + 232
        0x00003fa4:    f9402661    a&@.    LDR      x1,[x19,#0x48]
        0x00003fa8:    f9400662    b.@.    LDR      x2,[x19,#8]
        0x00003fac:    eb02003f    ?...    CMP      x1,x2
        0x00003fb0:    54000048    H..T    B.HI     0x3fb8 ; _fseek + 204
        0x00003fb4:    aa0203e1    ....    MOV      x1,x2
        0x00003fb8:    f9401662    b.@.    LDR      x2,[x19,#0x28]
        0x00003fbc:    8b020021    !...    ADD      x1,x1,x2
        0x00003fc0:    f9400e62    b.@.    LDR      x2,[x19,#0x18]
        0x00003fc4:    cb020021    !...    SUB      x1,x1,x2
        0x00003fc8:    eb00003f    ?...    CMP      x1,x0
        0x00003fcc:    5400004d    M..T    B.LE     0x3fd4 ; _fseek + 232
        0x00003fd0:    aa0103e0    ....    MOV      x0,x1
        0x00003fd4:    8b000294    ....    ADD      x20,x20,x0
        0x00003fd8:    f100029f    ....    CMP      x20,#0
        0x00003fdc:    540000ea    ...T    B.GE     0x3ff8 ; _fseek + 268
        0x00003fe0:    52800040    @..R    MOV      w0,#2
        0x00003fe4:    a94053f3    .S@.    LDP      x19,x20,[sp,#0]
        0x00003fe8:    a9415bf5    .[A.    LDP      x21,x22,[sp,#0x10]
        0x00003fec:    a9427bfd    .{B.    LDP      x29,x30,[sp,#0x20]
        0x00003ff0:    9100c3ff    ....    ADD      sp,sp,#0x30
        0x00003ff4:    d65f03c0    .._.    RET      
        0x00003ff8:    b9401664    d.@.    LDR      w4,[x19,#0x14]
        0x00003ffc:    f9402661    a&@.    LDR      x1,[x19,#0x48]
        0x00004000:    f9400660    `.@.    LDR      x0,[x19,#8]
        0x00004004:    eb00003f    ?...    CMP      x1,x0
        0x00004008:    540000e2    ...T    B.CS     0x4024 ; _fseek + 312
        0x0000400c:    f9002660    `&..    STR      x0,[x19,#0x48]
        0x00004010:    120f0081    ....    AND      w1,w4,#0x20000
        0x00004014:    7100003f    ?..q    CMP      w1,#0
        0x00004018:    54000060    `..T    B.EQ     0x4024 ; _fseek + 312
        0x0000401c:    120e7881    .x..    AND      w1,w4,#0xfffdffff
        0x00004020:    321c0024    $..2    ORR      w4,w1,#0x10
        0x00004024:    f9401663    c.@.    LDR      x3,[x19,#0x28]
        0x00004028:    52800006    ...R    MOV      w6,#0
        0x0000402c:    eb14007f    ....    CMP      x3,x20
        0x00004030:    5400026c    l..T    B.GT     0x407c ; _fseek + 400
        0x00004034:    f9402661    a&@.    LDR      x1,[x19,#0x48]
        0x00004038:    eb00003f    ?...    CMP      x1,x0
        0x0000403c:    54000069    i..T    B.LS     0x4048 ; _fseek + 348
        0x00004040:    aa0103e2    ....    MOV      x2,x1
        0x00004044:    14000002    ....    B        0x404c ; _fseek + 352
        0x00004048:    aa0003e2    ....    MOV      x2,x0
        0x0000404c:    8b030045    E...    ADD      x5,x2,x3
        0x00004050:    f9400e62    b.@.    LDR      x2,[x19,#0x18]
        0x00004054:    cb0200a5    ....    SUB      x5,x5,x2
        0x00004058:    eb1400bf    ....    CMP      x5,x20
        0x0000405c:    5400010d    ...T    B.LE     0x407c ; _fseek + 400
        0x00004060:    eb00003f    ?...    CMP      x1,x0
        0x00004064:    54000069    i..T    B.LS     0x4070 ; _fseek + 388
        0x00004068:    aa0103e5    ....    MOV      x5,x1
        0x0000406c:    14000002    ....    B        0x4074 ; _fseek + 392
        0x00004070:    aa0003e5    ....    MOV      x5,x0
        0x00004074:    eb0200bf    ....    CMP      x5,x2
        0x00004078:    540000c1    ...T    B.NE     0x4090 ; _fseek + 420
        0x0000407c:    321b0080    ...2    ORR      w0,w4,#0x20
        0x00004080:    b9001266    f...    STR      w6,[x19,#0x10]
        0x00004084:    b9000266    f...    STR      w6,[x19,#0]
        0x00004088:    f9002274    t"..    STR      x20,[x19,#0x40]
        0x0000408c:    1400000e    ....    B        0x40c4 ; _fseek + 472
        0x00004090:    cb030283    ....    SUB      x3,x20,x3
        0x00004094:    b9403267    g2@.    LDR      w7,[x19,#0x30]
        0x00004098:    4b070065    e..K    SUB      w5,w3,w7
        0x0000409c:    b9001265    e...    STR      w5,[x19,#0x10]
        0x000040a0:    eb00003f    ?...    CMP      x1,x0
        0x000040a4:    54000049    I..T    B.LS     0x40ac ; _fseek + 448
        0x000040a8:    aa0103e0    ....    MOV      x0,x1
        0x000040ac:    cb020000    ....    SUB      x0,x0,x2
        0x000040b0:    4b000060    `..K    SUB      w0,w3,w0
        0x000040b4:    b9000260    `...    STR      w0,[x19,#0]
        0x000040b8:    8b030040    @...    ADD      x0,x2,x3
        0x000040bc:    f9000660    `...    STR      x0,[x19,#8]
        0x000040c0:    121a7880    .x..    AND      w0,w4,#0xffffffdf
        0x000040c4:    5299f7e1    ...R    MOV      w1,#0xcfbf
        0x000040c8:    72bffae1    ...r    MOVK     w1,#0xffd7,LSL #16
        0x000040cc:    0a010000    ....    AND      w0,w0,w1
        0x000040d0:    b9001660    `...    STR      w0,[x19,#0x14]
        0x000040d4:    3901c266    f..9    STRB     w6,[x19,#0x70]
        0x000040d8:    52800000    ...R    MOV      w0,#0
        0x000040dc:    a94053f3    .S@.    LDP      x19,x20,[sp,#0]
        0x000040e0:    a9415bf5    .[A.    LDP      x21,x22,[sp,#0x10]
        0x000040e4:    a9427bfd    .{B.    LDP      x29,x30,[sp,#0x20]
        0x000040e8:    9100c3ff    ....    ADD      sp,sp,#0x30
        0x000040ec:    d65f03c0    .._.    RET      
    .text
    _seterr
        0x000040f0:    b9401401    ..@.    LDR      w1,[x0,#0x14]
        0x000040f4:    120a7821    !x..    AND      w1,w1,#0xffdfffff
        0x000040f8:    32190021    !..2    ORR      w1,w1,#0x80
        0x000040fc:    b9001401    ....    STR      w1,[x0,#0x14]
        0x00004100:    52800001    ...R    MOV      w1,#0
        0x00004104:    b9001001    ....    STR      w1,[x0,#0x10]
        0x00004108:    b9000001    ....    STR      w1,[x0,#0]
        0x0000410c:    d65f03c0    .._.    RET      
    _writebuf
        0x00004110:    d10103ff    ....    SUB      sp,sp,#0x40
        0x00004114:    f9001bfe    ....    STR      x30,[sp,#0x30]
        0x00004118:    a90277f7    .w..    STP      x23,x29,[sp,#0x20]
        0x0000411c:    9100a3fd    ....    ADD      x29,sp,#0x28
        0x00004120:    a9015bf5    .[..    STP      x21,x22,[sp,#0x10]
        0x00004124:    a90053f3    .S..    STP      x19,x20,[sp,#0]
        0x00004128:    aa0003f7    ....    MOV      x23,x0
        0x0000412c:    2a0103f5    ...*    MOV      w21,w1
        0x00004130:    aa0203f3    ....    MOV      x19,x2
        0x00004134:    b9402276    v"@.    LDR      w22,[x19,#0x20]
        0x00004138:    b9401674    t.@.    LDR      w20,[x19,#0x14]
        0x0000413c:    52800200    ...R    MOV      w0,#0x10
        0x00004140:    72a00040    @..r    MOVK     w0,#2,LSL #16
        0x00004144:    0a000280    ....    AND      w0,w20,w0
        0x00004148:    7100001f    ...q    CMP      w0,#0
        0x0000414c:    54000140    @..T    B.EQ     0x4174 ; _writebuf + 100
        0x00004150:    f9401661    a.@.    LDR      x1,[x19,#0x28]
        0x00004154:    2a1603e0    ...*    MOV      w0,w22
        0x00004158:    97fffebf    ....    BL       _sys_seek ; 0x3c54
        0x0000415c:    7100001f    ...q    CMP      w0,#0
        0x00004160:    5400026b    k..T    B.LT     0x41ac ; _writebuf + 156
        0x00004164:    529ffde0    ...R    MOV      w0,#0xffef
        0x00004168:    72bfffa0    ...r    MOVK     w0,#0xfffd,LSL #16
        0x0000416c:    0a000294    ....    AND      w20,w20,w0
        0x00004170:    b9001674    t...    STR      w20,[x19,#0x14]
        0x00004174:    2a1403e3    ...*    MOV      w3,w20
        0x00004178:    2a1503e2    ...*    MOV      w2,w21
        0x0000417c:    aa1703e1    ....    MOV      x1,x23
        0x00004180:    2a1603e0    ...*    MOV      w0,w22
        0x00004184:    97fffe8b    ....    BL       _sys_write ; 0x3bb0
        0x00004188:    71000003    ...q    SUBS     w3,w0,#0
        0x0000418c:    f9401660    `.@.    LDR      x0,[x19,#0x28]
        0x00004190:    93407c61    a|@.    SXTW     x1,w3
        0x00004194:    92407821    !x@.    AND      x1,x1,#0x7fffffff
        0x00004198:    93407ea2    .~@.    SXTW     x2,w21
        0x0000419c:    cb010041    A...    SUB      x1,x2,x1
        0x000041a0:    8b010000    ....    ADD      x0,x0,x1
        0x000041a4:    f9001660    `...    STR      x0,[x19,#0x28]
        0x000041a8:    54000140    @..T    B.EQ     0x41d0 ; _writebuf + 192
        0x000041ac:    aa1303e0    ....    MOV      x0,x19
        0x000041b0:    97ffffd0    ....    BL       _seterr ; 0x40f0
        0x000041b4:    12800000    ....    MOV      w0,#0xffffffff
        0x000041b8:    a94053f3    .S@.    LDP      x19,x20,[sp,#0]
        0x000041bc:    a9415bf5    .[A.    LDP      x21,x22,[sp,#0x10]
        0x000041c0:    a94277f7    .wB.    LDP      x23,x29,[sp,#0x20]
        0x000041c4:    f9401bfe    ..@.    LDR      x30,[sp,#0x30]
        0x000041c8:    910103ff    ....    ADD      sp,sp,#0x40
        0x000041cc:    d65f03c0    .._.    RET      
        0x000041d0:    52800000    ...R    MOV      w0,#0
        0x000041d4:    a94053f3    .S@.    LDP      x19,x20,[sp,#0]
        0x000041d8:    a9415bf5    .[A.    LDP      x21,x22,[sp,#0x10]
        0x000041dc:    a94277f7    .wB.    LDP      x23,x29,[sp,#0x20]
        0x000041e0:    f9401bfe    ..@.    LDR      x30,[sp,#0x30]
        0x000041e4:    910103ff    ....    ADD      sp,sp,#0x40
        0x000041e8:    d65f03c0    .._.    RET      
    _fflush
        0x000041ec:    d10083ff    ....    SUB      sp,sp,#0x20
        0x000041f0:    a9017bfd    .{..    STP      x29,x30,[sp,#0x10]
        0x000041f4:    910043fd    .C..    ADD      x29,sp,#0x10
        0x000041f8:    a90053f3    .S..    STP      x19,x20,[sp,#0]
        0x000041fc:    aa0003f3    ....    MOV      x19,x0
        0x00004200:    f9400e74    t.@.    LDR      x20,[x19,#0x18]
        0x00004204:    f9402661    a&@.    LDR      x1,[x19,#0x48]
        0x00004208:    f9400660    `.@.    LDR      x0,[x19,#8]
        0x0000420c:    eb00003f    ?...    CMP      x1,x0
        0x00004210:    54000049    I..T    B.LS     0x4218 ; _fflush + 44
        0x00004214:    aa0103e0    ....    MOV      x0,x1
        0x00004218:    b9401661    a.@.    LDR      w1,[x19,#0x14]
        0x0000421c:    12a00502    ....    MOV      w2,#0xffd7ffff
        0x00004220:    0a020021    !...    AND      w1,w1,w2
        0x00004224:    b9001661    a...    STR      w1,[x19,#0x14]
        0x00004228:    12100021    !...    AND      w1,w1,#0x10000
        0x0000422c:    7100003f    ?..q    CMP      w1,#0
        0x00004230:    540002a0    ...T    B.EQ     0x4284 ; _fflush + 152
        0x00004234:    eb14001f    ....    CMP      x0,x20
        0x00004238:    54000180    ...T    B.EQ     0x4268 ; _fflush + 124
        0x0000423c:    cb140001    ....    SUB      x1,x0,x20
        0x00004240:    aa1303e2    ....    MOV      x2,x19
        0x00004244:    aa1403e0    ....    MOV      x0,x20
        0x00004248:    97ffffb2    ....    BL       _writebuf ; 0x4110
        0x0000424c:    7100001f    ...q    CMP      w0,#0
        0x00004250:    540000c0    ...T    B.EQ     0x4268 ; _fflush + 124
        0x00004254:    12800000    ....    MOV      w0,#0xffffffff
        0x00004258:    a94053f3    .S@.    LDP      x19,x20,[sp,#0]
        0x0000425c:    a9417bfd    .{A.    LDP      x29,x30,[sp,#0x10]
        0x00004260:    910083ff    ....    ADD      sp,sp,#0x20
        0x00004264:    d65f03c0    .._.    RET      
        0x00004268:    f9002674    t&..    STR      x20,[x19,#0x48]
        0x0000426c:    f9000674    t...    STR      x20,[x19,#8]
        0x00004270:    52800000    ...R    MOV      w0,#0
        0x00004274:    b9001260    `...    STR      w0,[x19,#0x10]
        0x00004278:    b9401660    `.@.    LDR      w0,[x19,#0x14]
        0x0000427c:    120f7800    .x..    AND      w0,w0,#0xfffeffff
        0x00004280:    b9001660    `...    STR      w0,[x19,#0x14]
        0x00004284:    52800000    ...R    MOV      w0,#0
        0x00004288:    a94053f3    .S@.    LDP      x19,x20,[sp,#0]
        0x0000428c:    a9417bfd    .{A.    LDP      x29,x30,[sp,#0x10]
        0x00004290:    910083ff    ....    ADD      sp,sp,#0x20
        0x00004294:    d65f03c0    .._.    RET      
    _deferredlazyseek
        0x00004298:    d10083ff    ....    SUB      sp,sp,#0x20
        0x0000429c:    f9000bfe    ....    STR      x30,[sp,#0x10]
        0x000042a0:    a90077f3    .w..    STP      x19,x29,[sp,#0]
        0x000042a4:    910023fd    .#..    ADD      x29,sp,#8
        0x000042a8:    aa0003f3    ....    MOV      x19,x0
        0x000042ac:    b9401660    `.@.    LDR      w0,[x19,#0x14]
        0x000042b0:    121a7800    .x..    AND      w0,w0,#0xffffffdf
        0x000042b4:    b9001660    `...    STR      w0,[x19,#0x14]
        0x000042b8:    f9401660    `.@.    LDR      x0,[x19,#0x28]
        0x000042bc:    f9402261    a"@.    LDR      x1,[x19,#0x40]
        0x000042c0:    eb01001f    ....    CMP      x0,x1
        0x000042c4:    54000180    ...T    B.EQ     0x42f4 ; _deferredlazyseek + 92
        0x000042c8:    aa1303e0    ....    MOV      x0,x19
        0x000042cc:    97ffffc8    ....    BL       _fflush ; 0x41ec
        0x000042d0:    b9401660    `.@.    LDR      w0,[x19,#0x14]
        0x000042d4:    12127400    .t..    AND      w0,w0,#0xffffcfff
        0x000042d8:    321c0000    ...2    ORR      w0,w0,#0x10
        0x000042dc:    b9001660    `...    STR      w0,[x19,#0x14]
        0x000042e0:    f9402260    `"@.    LDR      x0,[x19,#0x40]
        0x000042e4:    f9001660    `...    STR      x0,[x19,#0x28]
        0x000042e8:    f9400e60    `.@.    LDR      x0,[x19,#0x18]
        0x000042ec:    f9002660    `&..    STR      x0,[x19,#0x48]
        0x000042f0:    f9000660    `...    STR      x0,[x19,#8]
        0x000042f4:    b9401660    `.@.    LDR      w0,[x19,#0x14]
        0x000042f8:    12880801    ....    MOV      w1,#0xffffbfbf
        0x000042fc:    0a010000    ....    AND      w0,w0,w1
        0x00004300:    b9001660    `...    STR      w0,[x19,#0x14]
        0x00004304:    a94077f3    .w@.    LDP      x19,x29,[sp,#0]
        0x00004308:    f9400bfe    ..@.    LDR      x30,[sp,#0x10]
        0x0000430c:    910083ff    ....    ADD      sp,sp,#0x20
        0x00004310:    d65f03c0    .._.    RET      
    .text
    __sig_exit
        0x00004314:    7100001f    ...q    CMP      w0,#0
        0x00004318:    54000040    @..T    B.EQ     0x4320 ; __sig_exit + 12
        0x0000431c:    14000047    G...    B        _sys_exit ; 0x4438
        0x00004320:    d65f03c0    .._.    RET      
    .text
    __rt_SIGRTRED_inner
        0x00004324:    d10043ff    .C..    SUB      sp,sp,#0x10
        0x00004328:    a9007bfd    .{..    STP      x29,x30,[sp,#0]
        0x0000432c:    910003fd    ....    MOV      x29,sp
        0x00004330:    aa0003e1    ....    MOV      x1,x0
        0x00004334:    100000c0    ....    ADR      x0,{pc}+0x18 ; 0x434c
        0x00004338:    94000093    ....    BL       __default_signal_display ; 0x4584
        0x0000433c:    52800020     ..R    MOV      w0,#1
        0x00004340:    a9407bfd    .{@.    LDP      x29,x30,[sp,#0]
        0x00004344:    910043ff    .C..    ADD      sp,sp,#0x10
        0x00004348:    d65f03c0    .._.    RET      
    $d
        0x0000434c:    52474953    SIGR    DCD    1380403539
        0x00004350:    44455254    TRED    DCD    1145393748
        0x00004354:    6552203a    : Re    DCD    1699881018
        0x00004358:    65726964    dire    DCD    1701996900
        0x0000435c:    203a7463    ct:     DCD    540701795
        0x00004360:    276e6163    can'    DCD    661545315
        0x00004364:    706f2074    t op    DCD    1886330996
        0x00004368:    203a6e65    en:     DCD    540700261
        0x0000436c:    00000000    ....    DCD    0
    $x
    .text
    strcmp
        0x00004370:    2a010002    ...*    ORR      w2,w0,w1
        0x00004374:    12000442    B...    AND      w2,w2,#3
        0x00004378:    7100005f    _..q    CMP      w2,#0
        0x0000437c:    54000401    ...T    B.NE     0x43fc ; strcmp + 140
        0x00004380:    3200c3e5    ...2    MOV      w5,#0x1010101
        0x00004384:    b8404402    .D@.    LDR      w2,[x0],#4
        0x00004388:    b8404423    #D@.    LDR      w3,[x1],#4
        0x0000438c:    4b050044    D..K    SUB      w4,w2,w5
        0x00004390:    0a220084    ..".    BIC      w4,w4,w2
        0x00004394:    0a051c84    ....    AND      w4,w4,w5,LSL #7
        0x00004398:    7100009f    ...q    CMP      w4,#0
        0x0000439c:    54000061    a..T    B.NE     0x43a8 ; strcmp + 56
        0x000043a0:    6b03005f    _..k    CMP      w2,w3
        0x000043a4:    54ffff00    ...T    B.EQ     0x4384 ; strcmp + 20
        0x000043a8:    12001c40    @...    AND      w0,w2,#0xff
        0x000043ac:    12001c61    a...    AND      w1,w3,#0xff
        0x000043b0:    4b010000    ...K    SUB      w0,w0,w1
        0x000043b4:    2a046001    .`.*    ORR      w1,w0,w4,LSL #24
        0x000043b8:    7100003f    ?..q    CMP      w1,#0
        0x000043bc:    540001e1    ...T    B.NE     0x43f8 ; strcmp + 136
        0x000043c0:    12003c40    @<..    AND      w0,w2,#0xffff
        0x000043c4:    12003c61    a<..    AND      w1,w3,#0xffff
        0x000043c8:    4b010000    ...K    SUB      w0,w0,w1
        0x000043cc:    2a044001    .@.*    ORR      w1,w0,w4,LSL #16
        0x000043d0:    7100003f    ?..q    CMP      w1,#0
        0x000043d4:    54000121    !..T    B.NE     0x43f8 ; strcmp + 136
        0x000043d8:    12005c40    @\..    AND      w0,w2,#0xffffff
        0x000043dc:    12005c61    a\..    AND      w1,w3,#0xffffff
        0x000043e0:    4b010000    ...K    SUB      w0,w0,w1
        0x000043e4:    2a042001    . .*    ORR      w1,w0,w4,LSL #8
        0x000043e8:    7100003f    ?..q    CMP      w1,#0
        0x000043ec:    54000061    a..T    B.NE     0x43f8 ; strcmp + 136
        0x000043f0:    53187c40    @|.S    LSR      w0,w2,#24
        0x000043f4:    4b436000    .`CK    SUB      w0,w0,w3,LSR #24
        0x000043f8:    d65f03c0    .._.    RET      
        0x000043fc:    38401402    ..@8    LDRB     w2,[x0],#1
        0x00004400:    38401423    #.@8    LDRB     w3,[x1],#1
        0x00004404:    7100005f    _..q    CMP      w2,#0
        0x00004408:    54000120     ..T    B.EQ     0x442c ; strcmp + 188
        0x0000440c:    6b03005f    _..k    CMP      w2,w3
        0x00004410:    540000e1    ...T    B.NE     0x442c ; strcmp + 188
        0x00004414:    38401402    ..@8    LDRB     w2,[x0],#1
        0x00004418:    38401423    #.@8    LDRB     w3,[x1],#1
        0x0000441c:    7100005f    _..q    CMP      w2,#0
        0x00004420:    54000060    `..T    B.EQ     0x442c ; strcmp + 188
        0x00004424:    6b03005f    _..k    CMP      w2,w3
        0x00004428:    54fffea0    ...T    B.EQ     0x43fc ; strcmp + 140
        0x0000442c:    4b030040    @..K    SUB      w0,w2,w3
        0x00004430:    d65f03c0    .._.    RET      
    .text
    __ARM_argv_veneer
        0x00004434:    140000bd    ....    B        __ARM_get_argv ; 0x4728
    .text
    _sys_exit
        0x00004438:    d10043ff    .C..    SUB      sp,sp,#0x10
        0x0000443c:    d28004c1    ....    MOV      x1,#0x26
        0x00004440:    f2a00041    A...    MOVK     x1,#2,LSL #16
        0x00004444:    f90003e1    ....    STR      x1,[sp,#0]
        0x00004448:    93407c00    .|@.    SXTW     x0,w0
        0x0000444c:    f90007e0    ....    STR      x0,[sp,#8]
        0x00004450:    910003e1    ....    MOV      x1,sp
        0x00004454:    52800300    ...R    MOV      w0,#0x18
        0x00004458:    d45e0000    ..^.    HLT      #0xf000
        0x0000445c:    14000000    ....    B        0x445c ; _sys_exit + 36
    .text
    __I$use$semihosting
    __use_no_semihosting_swi
        0x00004460:    d65f03c0    .._.    RET      
    .text
    .text
    .text
    __Heap_Initialize
    __semihosting_library_function
    _maybe_terminate_alloc
        0x00004464:    d2800001    ....    MOV      x1,#0
        0x00004468:    f9000001    ....    STR      x1,[x0,#0]
        0x0000446c:    f9000401    ....    STR      x1,[x0,#8]
        0x00004470:    aa0003e1    ....    MOV      x1,x0
        0x00004474:    f9000801    ....    STR      x1,[x0,#0x10]
        0x00004478:    d65f03c0    .._.    RET      
    __Heap_DescSize
        0x0000447c:    52800400    ...R    MOV      w0,#0x20
        0x00004480:    d65f03c0    .._.    RET      
    .text
    __Heap_ProvideMemory
        0x00004484:    aa0103e4    ....    MOV      x4,x1
        0x00004488:    f9400403    ..@.    LDR      x3,[x0,#8]
        0x0000448c:    f100007f    ....    CMP      x3,#0
        0x00004490:    54000080    ...T    B.EQ     0x44a0 ; __Heap_ProvideMemory + 28
        0x00004494:    eb03009f    ....    CMP      x4,x3
        0x00004498:    9a808060    `...    CSEL     x0,x3,x0,HI
        0x0000449c:    54ffff68    h..T    B.HI     0x4488 ; __Heap_ProvideMemory + 4
        0x000044a0:    f9400003    ..@.    LDR      x3,[x0,#0]
        0x000044a4:    8b000060    `...    ADD      x0,x3,x0
        0x000044a8:    eb04001f    ....    CMP      x0,x4
        0x000044ac:    540000e0    ...T    B.EQ     0x44c8 ; __Heap_ProvideMemory + 68
        0x000044b0:    d1002020      ..    SUB      x0,x1,#8
        0x000044b4:    91003c00    .<..    ADD      x0,x0,#0xf
        0x000044b8:    927cec00    ..|.    AND      x0,x0,#0xfffffffffffffff0
        0x000044bc:    91002004    . ..    ADD      x4,x0,#8
        0x000044c0:    cb010080    ....    SUB      x0,x4,x1
        0x000044c4:    cb000042    B...    SUB      x2,x2,x0
        0x000044c8:    f9000082    ....    STR      x2,[x4,#0]
        0x000044cc:    91002080    . ..    ADD      x0,x4,#8
        0x000044d0:    17fff83c    <...    B        free ; 0x25c0
    .text
    _ftell_internal
    ftell
        0x000044d4:    d10083ff    ....    SUB      sp,sp,#0x20
        0x000044d8:    f9000bfe    ....    STR      x30,[sp,#0x10]
        0x000044dc:    a90077f3    .w..    STP      x19,x29,[sp,#0]
        0x000044e0:    910023fd    .#..    ADD      x29,sp,#8
        0x000044e4:    b9401403    ..@.    LDR      w3,[x0,#0x14]
        0x000044e8:    12000461    a...    AND      w1,w3,#3
        0x000044ec:    92800013    ....    MOV      x19,#-1
        0x000044f0:    7100003f    ?..q    CMP      w1,#0
        0x000044f4:    540000c0    ...T    B.EQ     0x450c ; _ftell_internal + 56
        0x000044f8:    121b0061    a...    AND      w1,w3,#0x20
        0x000044fc:    7100003f    ?..q    CMP      w1,#0
        0x00004500:    54000160    `..T    B.EQ     0x452c ; _ftell_internal + 88
        0x00004504:    f9402001    . @.    LDR      x1,[x0,#0x40]
        0x00004508:    1400000e    ....    B        0x4540 ; _ftell_internal + 108
        0x0000450c:    94000129    )...    BL       __aeabi_errno_addr ; 0x49b0
        0x00004510:    52800021    !..R    MOV      w1,#1
        0x00004514:    b9000001    ....    STR      w1,[x0,#0]
        0x00004518:    aa1303e0    ....    MOV      x0,x19
        0x0000451c:    a94077f3    .w@.    LDP      x19,x29,[sp,#0]
        0x00004520:    f9400bfe    ..@.    LDR      x30,[sp,#0x10]
        0x00004524:    910083ff    ....    ADD      sp,sp,#0x20
        0x00004528:    d65f03c0    .._.    RET      
        0x0000452c:    f9400401    ..@.    LDR      x1,[x0,#8]
        0x00004530:    f9401402    ..@.    LDR      x2,[x0,#0x28]
        0x00004534:    8b020021    !...    ADD      x1,x1,x2
        0x00004538:    f9400c02    ..@.    LDR      x2,[x0,#0x18]
        0x0000453c:    cb020021    !...    SUB      x1,x1,x2
        0x00004540:    3941c002    ..A9    LDRB     w2,[x0,#0x70]
        0x00004544:    7100005f    _..q    CMP      w2,#0
        0x00004548:    54000080    ...T    B.EQ     0x4558 ; _ftell_internal + 132
        0x0000454c:    3941c400    ..A9    LDRB     w0,[x0,#0x71]
        0x00004550:    cb204021    !@ .    SUB      x1,x1,w0,UXTW
        0x00004554:    14000007    ....    B        0x4570 ; _ftell_internal + 156
        0x00004558:    120d0060    `...    AND      w0,w3,#0x80000
        0x0000455c:    7100001f    ...q    CMP      w0,#0
        0x00004560:    54000080    ...T    B.EQ     0x4570 ; _ftell_internal + 156
        0x00004564:    f100003f    ?...    CMP      x1,#0
        0x00004568:    5400004d    M..T    B.LE     0x4570 ; _ftell_internal + 156
        0x0000456c:    d1000421    !...    SUB      x1,x1,#1
        0x00004570:    aa0103e0    ....    MOV      x0,x1
        0x00004574:    a94077f3    .w@.    LDP      x19,x29,[sp,#0]
        0x00004578:    f9400bfe    ..@.    LDR      x30,[sp,#0x10]
        0x0000457c:    910083ff    ....    ADD      sp,sp,#0x20
        0x00004580:    d65f03c0    .._.    RET      
    .text
    __default_signal_display
        0x00004584:    d10083ff    ....    SUB      sp,sp,#0x20
        0x00004588:    a9017bfd    .{..    STP      x29,x30,[sp,#0x10]
        0x0000458c:    910043fd    .C..    ADD      x29,sp,#0x10
        0x00004590:    a90053f3    .S..    STP      x19,x20,[sp,#0]
        0x00004594:    aa0003f4    ....    MOV      x20,x0
        0x00004598:    aa0103f3    ....    MOV      x19,x1
        0x0000459c:    52800140    @..R    MOV      w0,#0xa
        0x000045a0:    14000002    ....    B        0x45a8 ; __default_signal_display + 36
        0x000045a4:    91000694    ....    ADD      x20,x20,#1
        0x000045a8:    940000e1    ....    BL       _ttywrch ; 0x492c
        0x000045ac:    f100029f    ....    CMP      x20,#0
        0x000045b0:    540000e0    ...T    B.EQ     0x45cc ; __default_signal_display + 72
        0x000045b4:    39400280    ..@9    LDRB     w0,[x20,#0]
        0x000045b8:    7100001f    ...q    CMP      w0,#0
        0x000045bc:    54ffff41    A..T    B.NE     0x45a4 ; __default_signal_display + 32
        0x000045c0:    14000003    ....    B        0x45cc ; __default_signal_display + 72
        0x000045c4:    91000673    s...    ADD      x19,x19,#1
        0x000045c8:    940000d9    ....    BL       _ttywrch ; 0x492c
        0x000045cc:    f100027f    ....    CMP      x19,#0
        0x000045d0:    54000080    ...T    B.EQ     0x45e0 ; __default_signal_display + 92
        0x000045d4:    39400260    `.@9    LDRB     w0,[x19,#0]
        0x000045d8:    7100001f    ...q    CMP      w0,#0
        0x000045dc:    54ffff41    A..T    B.NE     0x45c4 ; __default_signal_display + 64
        0x000045e0:    52800140    @..R    MOV      w0,#0xa
        0x000045e4:    a94053f3    .S@.    LDP      x19,x20,[sp,#0]
        0x000045e8:    a9417bfd    .{A.    LDP      x29,x30,[sp,#0x10]
        0x000045ec:    910083ff    ....    ADD      sp,sp,#0x20
        0x000045f0:    140000cf    ....    B        _ttywrch ; 0x492c
    .text
    __rt_SIGRTMEM
        0x000045f4:    d10043ff    .C..    SUB      sp,sp,#0x10
        0x000045f8:    a9007bfd    .{..    STP      x29,x30,[sp,#0]
        0x000045fc:    910003fd    ....    MOV      x29,sp
        0x00004600:    940000f2    ....    BL       __rt_SIGRTMEM_inner ; 0x49c8
        0x00004604:    a9407bfd    .{@.    LDP      x29,x30,[sp,#0]
        0x00004608:    910043ff    .C..    ADD      sp,sp,#0x10
        0x0000460c:    17ffff42    B...    B        __sig_exit ; 0x4314
    .text
    strlen
        0x00004610:    91000402    ....    ADD      x2,x0,#1
        0x00004614:    14000004    ....    B        0x4624 ; strlen + 20
        0x00004618:    38401401    ..@8    LDRB     w1,[x0],#1
        0x0000461c:    7100003f    ?..q    CMP      w1,#0
        0x00004620:    54000220     ..T    B.EQ     0x4664 ; strlen + 84
        0x00004624:    12000401    ....    AND      w1,w0,#3
        0x00004628:    7100003f    ?..q    CMP      w1,#0
        0x0000462c:    54ffff61    a..T    B.NE     0x4618 ; strlen + 8
        0x00004630:    3200c3e3    ...2    MOV      w3,#0x1010101
        0x00004634:    b8404401    .D@.    LDR      w1,[x0],#4
        0x00004638:    4b030024    $..K    SUB      w4,w1,w3
        0x0000463c:    0a210081    ..!.    BIC      w1,w4,w1
        0x00004640:    0a031c21    !...    AND      w1,w1,w3,LSL #7
        0x00004644:    7100003f    ?..q    CMP      w1,#0
        0x00004648:    54ffff60    `..T    B.EQ     0x4634 ; strlen + 36
        0x0000464c:    cb020000    ....    SUB      x0,x0,x2
        0x00004650:    53081c22    "..S    LSL      w2,w1,#24
        0x00004654:    7100005f    _..q    CMP      w2,#0
        0x00004658:    540000a0    ...T    B.EQ     0x466c ; strlen + 92
        0x0000465c:    51000c00    ...Q    SUB      w0,w0,#3
        0x00004660:    1400000c    ....    B        0x4690 ; strlen + 128
        0x00004664:    cb020000    ....    SUB      x0,x0,x2
        0x00004668:    d65f03c0    .._.    RET      
        0x0000466c:    53103c22    "<.S    LSL      w2,w1,#16
        0x00004670:    7100005f    _..q    CMP      w2,#0
        0x00004674:    54000060    `..T    B.EQ     0x4680 ; strlen + 112
        0x00004678:    51000800    ...Q    SUB      w0,w0,#2
        0x0000467c:    14000005    ....    B        0x4690 ; strlen + 128
        0x00004680:    53185c21    !\.S    LSL      w1,w1,#8
        0x00004684:    7100003f    ?..q    CMP      w1,#0
        0x00004688:    54000040    @..T    B.EQ     0x4690 ; strlen + 128
        0x0000468c:    51000400    ...Q    SUB      w0,w0,#1
        0x00004690:    d3407c00    .|@.    UBFX     x0,x0,#0,#32
        0x00004694:    d65f03c0    .._.    RET      
    .text
    __rt_heap_escrow
        0x00004698:    910003e1    ....    MOV      x1,sp
        0x0000469c:    91400402    ..@.    ADD      x2,x0,#1,LSL #12
        0x000046a0:    58000403    ...X    LDR      x3,{pc}+0x80 ; 0x4720 ; [0x4720] = 
        0x000046a4:    aa0303e4    ....    MOV      x4,x3
        0x000046a8:    f9000062    b...    STR      x2,[x3,#0]
        0x000046ac:    eb01005f    _...    CMP      x2,x1
        0x000046b0:    54000049    I..T    B.LS     0x46b8 ; __rt_heap_escrow + 32
        0x000046b4:    f9000081    ....    STR      x1,[x4,#0]
        0x000046b8:    f9400061    a.@.    LDR      x1,[x3,#0]
        0x000046bc:    d65f03c0    .._.    RET      
    __rt_heap_expand
        0x000046c0:    58000305    ...X    LDR      x5,{pc}+0x60 ; 0x4720 ; [0x4720] = 
        0x000046c4:    f94000a3    ..@.    LDR      x3,[x5,#0]
        0x000046c8:    8b020062    b...    ADD      x2,x3,x2
        0x000046cc:    910003e4    ....    MOV      x4,sp
        0x000046d0:    d1400484    ..@.    SUB      x4,x4,#1,LSL #12
        0x000046d4:    eb04005f    _...    CMP      x2,x4
        0x000046d8:    540001e8    ...T    B.HI     0x4714 ; __rt_heap_expand + 84
        0x000046dc:    91400440    @.@.    ADD      x0,x2,#1,LSL #12
        0x000046e0:    cb020084    ....    SUB      x4,x4,x2
        0x000046e4:    d2800046    F...    MOV      x6,#2
        0x000046e8:    9ac60c84    ....    SDIV     x4,x4,x6
        0x000046ec:    8b020082    ....    ADD      x2,x4,x2
        0x000046f0:    eb02001f    ....    CMP      x0,x2
        0x000046f4:    54000049    I..T    B.LS     0x46fc ; __rt_heap_expand + 60
        0x000046f8:    aa0203e0    ....    MOV      x0,x2
        0x000046fc:    91001c00    ....    ADD      x0,x0,#7
        0x00004700:    927df002    ..}.    AND      x2,x0,#0xfffffffffffffff8
        0x00004704:    cb030040    @...    SUB      x0,x2,x3
        0x00004708:    f9000023    #...    STR      x3,[x1,#0]
        0x0000470c:    f90000a2    ....    STR      x2,[x5,#0]
        0x00004710:    d65f03c0    .._.    RET      
        0x00004714:    93407c00    .|@.    SXTW     x0,w0
        0x00004718:    d65f03c0    .._.    RET      
    $d
        0x0000471c:    00000000    ....    DCD    0
        0x00004720:    04000018    ....    DCD    67108888
        0x00004724:    00000000    ....    DCD    0
    $x
    .text
    __ARM_get_argv
        0x00004728:    d10203ff    ....    SUB      sp,sp,#0x80
        0x0000472c:    a9077bfd    .{..    STP      x29,x30,[sp,#0x70]
        0x00004730:    9101c3fd    ....    ADD      x29,sp,#0x70
        0x00004734:    a90673fb    .s..    STP      x27,x28,[sp,#0x60]
        0x00004738:    a9056bf9    .k..    STP      x25,x26,[sp,#0x50]
        0x0000473c:    a90463f7    .c..    STP      x23,x24,[sp,#0x40]
        0x00004740:    a9035bf5    .[..    STP      x21,x22,[sp,#0x30]
        0x00004744:    a90253f3    .S..    STP      x19,x20,[sp,#0x20]
        0x00004748:    52800016    ...R    MOV      w22,#0
        0x0000474c:    2a1603f7    ...*    MOV      w23,w22
        0x00004750:    2a1603f9    ...*    MOV      w25,w22
        0x00004754:    b90003f6    ....    STR      w22,[sp,#0]
        0x00004758:    d2802000    . ..    MOV      x0,#0x100
        0x0000475c:    97fffdac    ....    BL       malloc ; 0x3e0c
        0x00004760:    aa0003fa    ....    MOV      x26,x0
        0x00004764:    d280001b    ....    MOV      x27,#0
        0x00004768:    f100035f    _...    CMP      x26,#0
        0x0000476c:    54000061    a..T    B.NE     0x4778 ; __ARM_get_argv + 80
        0x00004770:    aa1b03e0    ....    MOV      x0,x27
        0x00004774:    97ffffa0    ....    BL       __rt_SIGRTMEM ; 0x45f4
        0x00004778:    52802001    . .R    MOV      w1,#0x100
        0x0000477c:    aa1a03e0    ....    MOV      x0,x26
        0x00004780:    94000075    u...    BL       _sys_command_string ; 0x4954
        0x00004784:    aa0003f4    ....    MOV      x20,x0
        0x00004788:    d2800024    $...    MOV      x4,#1
        0x0000478c:    f100029f    ....    CMP      x20,#0
        0x00004790:    540001e1    ...T    B.NE     0x47cc ; __ARM_get_argv + 164
        0x00004794:    aa1a03e1    ....    MOV      x1,x26
        0x00004798:    91004020     @..    ADD      x0,x1,#0x10
        0x0000479c:    f9000020     ...    STR      x0,[x1,#0]
        0x000047a0:    f900043b    ;...    STR      x27,[x1,#8]
        0x000047a4:    39004039    9@.9    STRB     w25,[x1,#0x10]
        0x000047a8:    aa0403e0    ....    MOV      x0,x4
        0x000047ac:    a94253f3    .SB.    LDP      x19,x20,[sp,#0x20]
        0x000047b0:    a9435bf5    .[C.    LDP      x21,x22,[sp,#0x30]
        0x000047b4:    a94463f7    .cD.    LDP      x23,x24,[sp,#0x40]
        0x000047b8:    a9456bf9    .kE.    LDP      x25,x26,[sp,#0x50]
        0x000047bc:    a94673fb    .sF.    LDP      x27,x28,[sp,#0x60]
        0x000047c0:    a9477bfd    .{G.    LDP      x29,x30,[sp,#0x70]
        0x000047c4:    910203ff    ....    ADD      sp,sp,#0x80
        0x000047c8:    d65f03c0    .._.    RET      
        0x000047cc:    52800038    8..R    MOV      w24,#1
        0x000047d0:    aa1a03f3    ....    MOV      x19,x26
        0x000047d4:    aa1303fc    ....    MOV      x28,x19
        0x000047d8:    38401695    ..@8    LDRB     w21,[x20],#1
        0x000047dc:    710002df    ...q    CMP      w22,#0
        0x000047e0:    54000080    ...T    B.EQ     0x47f0 ; __ARM_get_argv + 200
        0x000047e4:    710172bf    .r.q    CMP      w21,#0x5c
        0x000047e8:    54000120     ..T    B.EQ     0x480c ; __ARM_get_argv + 228
        0x000047ec:    1400000f    ....    B        0x4828 ; __ARM_get_argv + 256
        0x000047f0:    71008abf    ...q    CMP      w21,#0x22
        0x000047f4:    54000060    `..T    B.EQ     0x4800 ; __ARM_get_argv + 216
        0x000047f8:    71009ebf    ...q    CMP      w21,#0x27
        0x000047fc:    54000221    !..T    B.NE     0x4840 ; __ARM_get_argv + 280
        0x00004800:    2a1503f6    ...*    MOV      w22,w21
        0x00004804:    2a1603f7    ...*    MOV      w23,w22
        0x00004808:    14000028    (...    B        0x48a8 ; __ARM_get_argv + 384
        0x0000480c:    39400280    ..@9    LDRB     w0,[x20,#0]
        0x00004810:    7100881f    ...q    CMP      w0,#0x22
        0x00004814:    54000120     ..T    B.EQ     0x4838 ; __ARM_get_argv + 272
        0x00004818:    7101701f    .p.q    CMP      w0,#0x5c
        0x0000481c:    540000e0    ...T    B.EQ     0x4838 ; __ARM_get_argv + 272
        0x00004820:    71009c1f    ...q    CMP      w0,#0x27
        0x00004824:    540000a0    ...T    B.EQ     0x4838 ; __ARM_get_argv + 272
        0x00004828:    6b1602bf    ...k    CMP      w21,w22
        0x0000482c:    540000a1    ...T    B.NE     0x4840 ; __ARM_get_argv + 280
        0x00004830:    52800016    ...R    MOV      w22,#0
        0x00004834:    1400001d    ....    B        0x48a8 ; __ARM_get_argv + 384
        0x00004838:    2a0003f5    ...*    MOV      w21,w0
        0x0000483c:    91000694    ....    ADD      x20,x20,#1
        0x00004840:    710002bf    ...q    CMP      w21,#0
        0x00004844:    54000140    @..T    B.EQ     0x486c ; __ARM_get_argv + 324
        0x00004848:    710002df    ...q    CMP      w22,#0
        0x0000484c:    540000c1    ...T    B.NE     0x4864 ; __ARM_get_argv + 316
        0x00004850:    710082bf    ...q    CMP      w21,#0x20
        0x00004854:    540000c0    ...T    B.EQ     0x486c ; __ARM_get_argv + 324
        0x00004858:    510026a0    .&.Q    SUB      w0,w21,#9
        0x0000485c:    7100101f    ...q    CMP      w0,#4
        0x00004860:    54000069    i..T    B.LS     0x486c ; __ARM_get_argv + 324
        0x00004864:    38001675    u..8    STRB     w21,[x19],#1
        0x00004868:    17ffffdc    ....    B        0x47d8 ; __ARM_get_argv + 176
        0x0000486c:    eb1c027f    ....    CMP      x19,x28
        0x00004870:    54000061    a..T    B.NE     0x487c ; __ARM_get_argv + 340
        0x00004874:    710002ff    ...q    CMP      w23,#0
        0x00004878:    54000180    ...T    B.EQ     0x48a8 ; __ARM_get_argv + 384
        0x0000487c:    38001679    y..8    STRB     w25,[x19],#1
        0x00004880:    2a1703e2    ...*    MOV      w2,w23
        0x00004884:    aa1c03e1    ....    MOV      x1,x28
        0x00004888:    910003e0    ....    MOV      x0,sp
        0x0000488c:    d503201f    . ..    NOP      
        0x00004890:    b94003e0    ..@.    LDR      w0,[sp,#0]
        0x00004894:    7100001f    ...q    CMP      w0,#0
        0x00004898:    54000220     ..T    B.EQ     0x48dc ; __ARM_get_argv + 436
        0x0000489c:    aa1c03f3    ....    MOV      x19,x28
        0x000048a0:    52800017    ...R    MOV      w23,#0
        0x000048a4:    11000718    ....    ADD      w24,w24,#1
        0x000048a8:    710002bf    ...q    CMP      w21,#0
        0x000048ac:    54fff961    a..T    B.NE     0x47d8 ; __ARM_get_argv + 176
        0x000048b0:    93407f00    ..@.    SXTW     x0,w24
        0x000048b4:    d37df000    ..}.    LSL      x0,x0,#3
        0x000048b8:    97fffd55    U...    BL       malloc ; 0x3e0c
        0x000048bc:    aa0003f4    ....    MOV      x20,x0
        0x000048c0:    f100029f    ....    CMP      x20,#0
        0x000048c4:    54000061    a..T    B.NE     0x48d0 ; __ARM_get_argv + 424
        0x000048c8:    aa1b03e0    ....    MOV      x0,x27
        0x000048cc:    97ffff4a    J...    BL       __rt_SIGRTMEM ; 0x45f4
        0x000048d0:    f900029a    ....    STR      x26,[x20,#0]
        0x000048d4:    52800000    ...R    MOV      w0,#0
        0x000048d8:    14000008    ....    B        0x48f8 ; __ARM_get_argv + 464
        0x000048dc:    aa1303fc    ....    MOV      x28,x19
        0x000048e0:    17fffff0    ....    B        0x48a0 ; __ARM_get_argv + 376
        0x000048e4:    38401741    A.@8    LDRB     w1,[x26],#1
        0x000048e8:    7100003f    ?..q    CMP      w1,#0
        0x000048ec:    54000061    a..T    B.NE     0x48f8 ; __ARM_get_argv + 464
        0x000048f0:    11000400    ....    ADD      w0,w0,#1
        0x000048f4:    f820da9a    .. .    STR      x26,[x20,w0,SXTW #3]
        0x000048f8:    eb13035f    _...    CMP      x26,x19
        0x000048fc:    54ffff43    C..T    B.CC     0x48e4 ; __ARM_get_argv + 444
        0x00004900:    f820da9b    .. .    STR      x27,[x20,w0,SXTW #3]
        0x00004904:    93407c00    .|@.    SXTW     x0,w0
        0x00004908:    aa1403e1    ....    MOV      x1,x20
        0x0000490c:    a94253f3    .SB.    LDP      x19,x20,[sp,#0x20]
        0x00004910:    a9435bf5    .[C.    LDP      x21,x22,[sp,#0x30]
        0x00004914:    a94463f7    .cD.    LDP      x23,x24,[sp,#0x40]
        0x00004918:    a9456bf9    .kE.    LDP      x25,x26,[sp,#0x50]
        0x0000491c:    a94673fb    .sF.    LDP      x27,x28,[sp,#0x60]
        0x00004920:    a9477bfd    .{G.    LDP      x29,x30,[sp,#0x70]
        0x00004924:    910203ff    ....    ADD      sp,sp,#0x80
        0x00004928:    d65f03c0    .._.    RET      
    .text
    _ttywrch
        0x0000492c:    d10083ff    ....    SUB      sp,sp,#0x20
        0x00004930:    a9017bfd    .{..    STP      x29,x30,[sp,#0x10]
        0x00004934:    910043fd    .C..    ADD      x29,sp,#0x10
        0x00004938:    390003e0    ...9    STRB     w0,[sp,#0]
        0x0000493c:    910003e1    ....    MOV      x1,sp
        0x00004940:    52800060    `..R    MOV      w0,#3
        0x00004944:    d45e0000    ..^.    HLT      #0xf000
        0x00004948:    a9417bfd    .{A.    LDP      x29,x30,[sp,#0x10]
        0x0000494c:    910083ff    ....    ADD      sp,sp,#0x20
        0x00004950:    d65f03c0    .._.    RET      
    .text
    _sys_command_string
        0x00004954:    d100c3ff    ....    SUB      sp,sp,#0x30
        0x00004958:    f90013fe    ....    STR      x30,[sp,#0x20]
        0x0000495c:    a90177f3    .w..    STP      x19,x29,[sp,#0x10]
        0x00004960:    910063fd    .c..    ADD      x29,sp,#0x18
        0x00004964:    aa0003f3    ....    MOV      x19,x0
        0x00004968:    f90003f3    ....    STR      x19,[sp,#0]
        0x0000496c:    93407c21    !|@.    SXTW     x1,w1
        0x00004970:    f90007e1    ....    STR      x1,[sp,#8]
        0x00004974:    910003e1    ....    MOV      x1,sp
        0x00004978:    528002a0    ...R    MOV      w0,#0x15
        0x0000497c:    d45e0000    ..^.    HLT      #0xf000
        0x00004980:    7100001f    ...q    CMP      w0,#0
        0x00004984:    540000c0    ...T    B.EQ     0x499c ; _sys_command_string + 72
        0x00004988:    d2800000    ....    MOV      x0,#0
        0x0000498c:    a94177f3    .wA.    LDP      x19,x29,[sp,#0x10]
        0x00004990:    f94013fe    ..@.    LDR      x30,[sp,#0x20]
        0x00004994:    9100c3ff    ....    ADD      sp,sp,#0x30
        0x00004998:    d65f03c0    .._.    RET      
        0x0000499c:    aa1303e0    ....    MOV      x0,x19
        0x000049a0:    a94177f3    .wA.    LDP      x19,x29,[sp,#0x10]
        0x000049a4:    f94013fe    ..@.    LDR      x30,[sp,#0x20]
        0x000049a8:    9100c3ff    ....    ADD      sp,sp,#0x30
        0x000049ac:    d65f03c0    .._.    RET      
    .text
    __aeabi_errno_addr
    __errno
    __rt_errno_addr
        0x000049b0:    58000040    @..X    LDR      x0,{pc}+8 ; 0x49b8 ; [0x49b8] = 
        0x000049b4:    d65f03c0    .._.    RET      
    $d
        0x000049b8:    040001e8    ....    DCD    67109352
        0x000049bc:    00000000    ....    DCD    0
    $x
    .text
    __use_no_heap_region
        0x000049c0:    d65f03c0    .._.    RET      
    __heap_region$guard
        0x000049c4:    d65f03c0    .._.    RET      
    .text
    __rt_SIGRTMEM_inner
        0x000049c8:    d10043ff    .C..    SUB      sp,sp,#0x10
        0x000049cc:    a9007bfd    .{..    STP      x29,x30,[sp,#0]
        0x000049d0:    910003fd    ....    MOV      x29,sp
        0x000049d4:    f100041f    ....    CMP      x0,#1
        0x000049d8:    10000120     ...    ADR      x0,{pc}+0x24 ; 0x49fc
        0x000049dc:    d2800001    ....    MOV      x1,#0
        0x000049e0:    9a810001    ....    CSEL     x1,x0,x1,EQ
        0x000049e4:    10000180    ....    ADR      x0,{pc}+0x30 ; 0x4a14
        0x000049e8:    97fffee7    ....    BL       __default_signal_display ; 0x4584
        0x000049ec:    52800020     ..R    MOV      w0,#1
        0x000049f0:    a9407bfd    .{@.    LDP      x29,x30,[sp,#0]
        0x000049f4:    910043ff    .C..    ADD      sp,sp,#0x10
        0x000049f8:    d65f03c0    .._.    RET      
    $d
        0x000049fc:    6548203a    : He    DCD    1699225658
        0x00004a00:    6d207061    ap m    DCD    1830842465
        0x00004a04:    726f6d65    emor    DCD    1919905125
        0x00004a08:    6f632079    y co    DCD    1868767353
        0x00004a0c:    70757272    rrup    DCD    1886745202
        0x00004a10:    00646574    ted.    DCD    6579572
        0x00004a14:    52474953    SIGR    DCD    1380403539
        0x00004a18:    4d454d54    TMEM    DCD    1296387412
        0x00004a1c:    754f203a    : Ou    DCD    1968119866
        0x00004a20:    666f2074    t of    DCD    1718558836
        0x00004a24:    61656820     hea    DCD    1634035744
        0x00004a28:    656d2070    p me    DCD    1701650544
        0x00004a2c:    79726f6d    mory    DCD    2037542765
        0x00004a30:    00000000    ....    DCD    0
        0x00004a34:    00000000    ....    DCD    0
    $x
    .text
    __scatterload
    __scatterload_rt2
        0x00004a38:    58000280    ...X    LDR      x0,{pc}+0x50 ; 0x4a88 ; [0x4a88] = 
        0x00004a3c:    aa0003f3    ....    MOV      x19,x0
        0x00004a40:    d1000674    t...    SUB      x20,x19,#1
        0x00004a44:    58000275    u..X    LDR      x21,{pc}+0x4c ; 0x4a90 ; [0x4a90] = 
        0x00004a48:    eb15027f    ....    CMP      x19,x21
        0x00004a4c:    54000043    C..T    B.CC     0x4a54 ; __scatterload + 28
        0x00004a50:    97ffee06    ....    BL       __rt_entry ; 0x268
        0x00004a54:    f9400e63    c.@.    LDR      x3,[x19,#0x18]
        0x00004a58:    92400060    `.@.    AND      x0,x3,#1
        0x00004a5c:    f100001f    ....    CMP      x0,#0
        0x00004a60:    54000040    @..T    B.EQ     0x4a68 ; __scatterload + 48
        0x00004a64:    cb030283    ....    SUB      x3,x20,x3
        0x00004a68:    f9400260    `.@.    LDR      x0,[x19,#0]
        0x00004a6c:    f9400661    a.@.    LDR      x1,[x19,#8]
        0x00004a70:    f9400a62    b.@.    LDR      x2,[x19,#0x10]
        0x00004a74:    91008273    s...    ADD      x19,x19,#0x20
        0x00004a78:    d63f0060    `.?.    BLR      x3
        0x00004a7c:    17fffff3    ....    B        0x4a48 ; __scatterload + 16
    __scatterload_null
        0x00004a80:    d65f03c0    .._.    RET      
    $d
        0x00004a84:    00000000    ....    DCD    0
        0x00004a88:    00007dc8    .}..    DCD    32200
        0x00004a8c:    00000000    ....    DCD    0
        0x00004a90:    00007e08    .~..    DCD    32264
        0x00004a94:    00000000    ....    DCD    0
    $x
    .text
    __scatterload_copy
        0x00004a98:    14000004    ....    B        0x4aa8 ; __scatterload_copy + 16
        0x00004a9c:    b8404403    .D@.    LDR      w3,[x0],#4
        0x00004aa0:    b8004423    #D..    STR      w3,[x1],#4
        0x00004aa4:    d1001042    B...    SUB      x2,x2,#4
        0x00004aa8:    f100005f    _...    CMP      x2,#0
        0x00004aac:    54ffff81    ...T    B.NE     0x4a9c ; __scatterload_copy + 4
        0x00004ab0:    d65f03c0    .._.    RET      
    .text
    __scatterload_zeroinit
        0x00004ab4:    52800000    ...R    MOV      w0,#0
        0x00004ab8:    14000003    ....    B        0x4ac4 ; __scatterload_zeroinit + 16
        0x00004abc:    b8004420     D..    STR      w0,[x1],#4
        0x00004ac0:    d1001042    B...    SUB      x2,x2,#4
        0x00004ac4:    f100005f    _...    CMP      x2,#0
        0x00004ac8:    54ffffa1    ...T    B.NE     0x4abc ; __scatterload_zeroinit + 8
        0x00004acc:    d65f03c0    .._.    RET      
    $x.2
    __dsb
        0x00004ad0:    d5033f9f    .?..    DSB      SY
        0x00004ad4:    d65f03c0    .._.    RET      
    configureLPI
        0x00004ad8:    d100c3ff    ....    SUB      sp,sp,#0x30
        0x00004adc:    f90013fe    ....    STR      x30,[sp,#0x20]
        0x00004ae0:    321303e8    ...2    ORR      w8,wzr,#0x2000
        0x00004ae4:    9001ffe9    ....    ADRP     x9,{pc}+0x3ffc000 ; 0x4000ae4
        0x00004ae8:    91086129    )a..    ADD      x9,x9,#0x218
        0x00004aec:    b9001fe0    ....    STR      w0,[sp,#0x1c]
        0x00004af0:    b9001be1    ....    STR      w1,[sp,#0x18]
        0x00004af4:    b90017e2    ....    STR      w2,[sp,#0x14]
        0x00004af8:    b90013e3    ....    STR      w3,[sp,#0x10]
        0x00004afc:    b9401be0    ..@.    LDR      w0,[sp,#0x18]
        0x00004b00:    6b08001f    ...k    CMP      w0,w8
        0x00004b04:    1a9f27e8    .'..    CSET     w8,CC
        0x00004b08:    f90003e9    ....    STR      x9,[sp,#0]
        0x00004b0c:    37000048    H..7    TBNZ     w8,#0,0x4b14 ; configureLPI + 60
        0x00004b10:    14000002    ....    B        0x4b18 ; configureLPI + 64
        0x00004b14:    14000022    "...    B        0x4b9c ; configureLPI + 196
        0x00004b18:    321f03e8    ...2    ORR      w8,wzr,#2
        0x00004b1c:    321e13e9    ...2    ORR      w9,wzr,#0x7c
        0x00004b20:    320003ea    ...2    ORR      w10,wzr,#1
        0x00004b24:    b2748feb    ..t.    MOV      x11,#0xfffffffff000
        0x00004b28:    b26f03ec    ..o.    ORR      x12,xzr,#0x20000
        0x00004b2c:    f94003ed    ..@.    LDR      x13,[sp,#0]
        0x00004b30:    f94001ae    ..@.    LDR      x14,[x13,#0]
        0x00004b34:    b9401fef    ..@.    LDR      w15,[sp,#0x1c]
        0x00004b38:    2a0f03f0    ...*    MOV      w16,w15
        0x00004b3c:    d3407e10    .~@.    UBFX     x16,x16,#0,#32
        0x00004b40:    9b107d8c    .}..    MUL      x12,x12,x16
        0x00004b44:    8b0c01cc    ....    ADD      x12,x14,x12
        0x00004b48:    f940398c    .9@.    LDR      x12,[x12,#0x70]
        0x00004b4c:    8a0b018b    ....    AND      x11,x12,x11
        0x00004b50:    f90007eb    ....    STR      x11,[sp,#8]
        0x00004b54:    b94017ef    ..@.    LDR      w15,[sp,#0x14]
        0x00004b58:    0a0a01ea    ....    AND      w10,w15,w10
        0x00004b5c:    b90017ea    ....    STR      w10,[sp,#0x14]
        0x00004b60:    b94013ea    ..@.    LDR      w10,[sp,#0x10]
        0x00004b64:    0a090149    I...    AND      w9,w10,w9
        0x00004b68:    b90013e9    ....    STR      w9,[sp,#0x10]
        0x00004b6c:    b94017e9    ..@.    LDR      w9,[sp,#0x14]
        0x00004b70:    2a090108    ...*    ORR      w8,w8,w9
        0x00004b74:    b94013e9    ..@.    LDR      w9,[sp,#0x10]
        0x00004b78:    2a090108    ...*    ORR      w8,w8,w9
        0x00004b7c:    f94007eb    ..@.    LDR      x11,[sp,#8]
        0x00004b80:    b9401be9    ..@.    LDR      w9,[sp,#0x18]
        0x00004b84:    71400929    ).@q    SUBS     w9,w9,#2,LSL #12
        0x00004b88:    2a0903ec    ...*    MOV      w12,w9
        0x00004b8c:    d3407d8c    .}@.    UBFX     x12,x12,#0,#32
        0x00004b90:    8b0c016b    k...    ADD      x11,x11,x12
        0x00004b94:    39000168    h..9    STRB     w8,[x11,#0]
        0x00004b98:    97ffffce    ....    BL       __dsb ; 0x4ad0
        0x00004b9c:    f94013fe    ..@.    LDR      x30,[sp,#0x20]
        0x00004ba0:    9100c3ff    ....    ADD      sp,sp,#0x30
        0x00004ba4:    d65f03c0    .._.    RET      
    enableGIC
        0x00004ba8:    d10043ff    .C..    SUB      sp,sp,#0x10
        0x00004bac:    9001ffe8    ....    ADRP     x8,{pc}+0x3ffc000 ; 0x4000bac
        0x00004bb0:    9107d108    ....    ADD      x8,x8,#0x1f4
        0x00004bb4:    9001ffe9    ....    ADRP     x9,{pc}+0x3ffc000 ; 0x4000bb4
        0x00004bb8:    9107e129    )...    ADD      x9,x9,#0x1f8
        0x00004bbc:    b940010a    ..@.    LDR      w10,[x8,#0]
        0x00004bc0:    f90003e9    ....    STR      x9,[sp,#0]
        0x00004bc4:    3400004a    J..4    CBZ      w10,0x4bcc ; enableGIC + 36
        0x00004bc8:    14000004    ....    B        0x4bd8 ; enableGIC + 48
        0x00004bcc:    320003e8    ...2    ORR      w8,wzr,#1
        0x00004bd0:    b9000fe8    ....    STR      w8,[sp,#0xc]
        0x00004bd4:    14000009    ....    B        0x4bf8 ; enableGIC + 80
        0x00004bd8:    528006e8    ...R    MOV      w8,#0x37
        0x00004bdc:    321c07e9    ...2    ORR      w9,wzr,#0x30
        0x00004be0:    f94003ea    ..@.    LDR      x10,[sp,#0]
        0x00004be4:    f940014b    K.@.    LDR      x11,[x10,#0]
        0x00004be8:    b9000169    i...    STR      w9,[x11,#0]
        0x00004bec:    f940014b    K.@.    LDR      x11,[x10,#0]
        0x00004bf0:    b9000168    h...    STR      w8,[x11,#0]
        0x00004bf4:    b9000fff    ....    STR      wzr,[sp,#0xc]
        0x00004bf8:    b9400fe0    ..@.    LDR      w0,[sp,#0xc]
        0x00004bfc:    910043ff    .C..    ADD      sp,sp,#0x10
        0x00004c00:    d65f03c0    .._.    RET      
    enableITS
        0x00004c04:    9001ffe8    ....    ADRP     x8,{pc}+0x3ffc000 ; 0x4000c04
        0x00004c08:    91080108    ....    ADD      x8,x8,#0x200
        0x00004c0c:    320003e9    ...2    ORR      w9,wzr,#1
        0x00004c10:    f9400108    ..@.    LDR      x8,[x8,#0]
        0x00004c14:    b9000109    ....    STR      w9,[x8,#0]
        0x00004c18:    d65f03c0    .._.    RET      
    enableLPIs
        0x00004c1c:    d10083ff    ....    SUB      sp,sp,#0x20
        0x00004c20:    f9000bfe    ....    STR      x30,[sp,#0x10]
        0x00004c24:    9001ffe8    ....    ADRP     x8,{pc}+0x3ffc000 ; 0x4000c24
        0x00004c28:    91086108    .a..    ADD      x8,x8,#0x218
        0x00004c2c:    b26f03e9    ..o.    ORR      x9,xzr,#0x20000
        0x00004c30:    320003ea    ...2    ORR      w10,wzr,#1
        0x00004c34:    b9000fe0    ....    STR      w0,[sp,#0xc]
        0x00004c38:    f940010b    ..@.    LDR      x11,[x8,#0]
        0x00004c3c:    b9400fe0    ..@.    LDR      w0,[sp,#0xc]
        0x00004c40:    2a0003ec    ...*    MOV      w12,w0
        0x00004c44:    d3407d8c    .}@.    UBFX     x12,x12,#0,#32
        0x00004c48:    9b0c7d2c    ,}..    MUL      x12,x9,x12
        0x00004c4c:    8b0c016b    k...    ADD      x11,x11,x12
        0x00004c50:    b9400160    `.@.    LDR      w0,[x11,#0]
        0x00004c54:    2a0a000a    ...*    ORR      w10,w0,w10
        0x00004c58:    f9400108    ..@.    LDR      x8,[x8,#0]
        0x00004c5c:    b9400fe0    ..@.    LDR      w0,[sp,#0xc]
        0x00004c60:    2a0003eb    ...*    MOV      w11,w0
        0x00004c64:    d3407d6b    k}@.    UBFX     x11,x11,#0,#32
        0x00004c68:    9b0b7d29    )}..    MUL      x9,x9,x11
        0x00004c6c:    8b090108    ....    ADD      x8,x8,x9
        0x00004c70:    b900010a    ....    STR      w10,[x8,#0]
        0x00004c74:    97ffff97    ....    BL       __dsb ; 0x4ad0
        0x00004c78:    f9400bfe    ..@.    LDR      x30,[sp,#0x10]
        0x00004c7c:    910083ff    ....    ADD      sp,sp,#0x20
        0x00004c80:    d65f03c0    .._.    RET      
    fiqHandler
        0x00004c84:    d10143ff    .C..    SUB      sp,sp,#0x50
        0x00004c88:    f90023fe    .#..    STR      x30,[sp,#0x40]
        0x00004c8c:    f0000008    ....    ADRP     x8,{pc}+0x3000 ; 0x7c8c
        0x00004c90:    91360108    ..6.    ADD      x8,x8,#0xd80
        0x00004c94:    52840029    )..R    MOV      w9,#0x2001
        0x00004c98:    f000000a    ....    ADRP     x10,{pc}+0x3000 ; 0x7c98
        0x00004c9c:    9135754a    Ju5.    ADD      x10,x10,#0xd5d
        0x00004ca0:    f000000b    ....    ADRP     x11,{pc}+0x3000 ; 0x7ca0
        0x00004ca4:    9136a96b    k.6.    ADD      x11,x11,#0xdaa
        0x00004ca8:    f000000c    ....    ADRP     x12,{pc}+0x3000 ; 0x7ca8
        0x00004cac:    9134fd8c    ..4.    ADD      x12,x12,#0xd3f
        0x00004cb0:    9001ffed    ....    ADRP     x13,{pc}+0x3ffc000 ; 0x4000cb0
        0x00004cb4:    9107c1ad    ....    ADD      x13,x13,#0x1f0
        0x00004cb8:    f9001be8    ....    STR      x8,[sp,#0x30]
        0x00004cbc:    b9002fe9    ./..    STR      w9,[sp,#0x2c]
        0x00004cc0:    f90013ea    ....    STR      x10,[sp,#0x20]
        0x00004cc4:    f9000feb    ....    STR      x11,[sp,#0x18]
        0x00004cc8:    f9000bec    ....    STR      x12,[sp,#0x10]
        0x00004ccc:    f90007ed    ....    STR      x13,[sp,#8]
        0x00004cd0:    94000b42    B...    BL       readIARGrp0 ; 0x79d8
        0x00004cd4:    b9003fe0    .?..    STR      w0,[sp,#0x3c]
        0x00004cd8:    b9403fe1    .?@.    LDR      w1,[sp,#0x3c]
        0x00004cdc:    f9401be0    ..@.    LDR      x0,[sp,#0x30]
        0x00004ce0:    97ffed72    r...    BL       printf ; 0x2a8
        0x00004ce4:    b9403fe9    .?@.    LDR      w9,[sp,#0x3c]
        0x00004ce8:    b9402fe1    ./@.    LDR      w1,[sp,#0x2c]
        0x00004cec:    6b09003f    ?..k    CMP      w1,w9
        0x00004cf0:    1a9f17ee    ....    CSET     w14,EQ
        0x00004cf4:    b90007e9    ....    STR      w9,[sp,#4]
        0x00004cf8:    3700012e    ...7    TBNZ     w14,#0,0x4d1c ; fiqHandler + 152
        0x00004cfc:    14000001    ....    B        0x4d00 ; fiqHandler + 124
        0x00004d00:    320027e8    .'.2    ORR      w8,wzr,#0x3ff
        0x00004d04:    b94007e9    ..@.    LDR      w9,[sp,#4]
        0x00004d08:    6b09011f    ...k    CMP      w8,w9
        0x00004d0c:    1a9f17e8    ....    CSET     w8,EQ
        0x00004d10:    370000a8    ...7    TBNZ     w8,#0,0x4d24 ; fiqHandler + 160
        0x00004d14:    14000001    ....    B        0x4d18 ; fiqHandler + 148
        0x00004d18:    14000006    ....    B        0x4d30 ; fiqHandler + 172
        0x00004d1c:    f94013e0    ..@.    LDR      x0,[sp,#0x20]
        0x00004d20:    97ffed62    b...    BL       printf ; 0x2a8
        0x00004d24:    f9400fe0    ..@.    LDR      x0,[sp,#0x18]
        0x00004d28:    97ffed60    `...    BL       printf ; 0x2a8
        0x00004d2c:    14000009    ....    B        0x4d50 ; fiqHandler + 204
        0x00004d30:    f9400be0    ..@.    LDR      x0,[sp,#0x10]
        0x00004d34:    97ffed5d    ]...    BL       printf ; 0x2a8
        0x00004d38:    b9403fe0    .?@.    LDR      w0,[sp,#0x3c]
        0x00004d3c:    94000b29    )...    BL       writeEOIGrp0 ; 0x79e0
        0x00004d40:    f94007e8    ..@.    LDR      x8,[sp,#8]
        0x00004d44:    b9400100    ..@.    LDR      w0,[x8,#0]
        0x00004d48:    11000400    ....    ADD      w0,w0,#1
        0x00004d4c:    b9000100    ....    STR      w0,[x8,#0]
        0x00004d50:    f94023fe    .#@.    LDR      x30,[sp,#0x40]
        0x00004d54:    910143ff    .C..    ADD      sp,sp,#0x50
        0x00004d58:    d65f03c0    .._.    RET      
    getITSPTA
        0x00004d5c:    9001ffe8    ....    ADRP     x8,{pc}+0x3ffc000 ; 0x4000d5c
        0x00004d60:    91080108    ....    ADD      x8,x8,#0x200
        0x00004d64:    b24003e9    ..@.    ORR      x9,xzr,#1
        0x00004d68:    f9400108    ..@.    LDR      x8,[x8,#0]
        0x00004d6c:    f9400508    ..@.    LDR      x8,[x8,#8]
        0x00004d70:    d353fd08    ..S.    LSR      x8,x8,#19
        0x00004d74:    8a090108    ....    AND      x8,x8,x9
        0x00004d78:    2a0803ea    ...*    MOV      w10,w8
        0x00004d7c:    2a0a03e0    ...*    MOV      w0,w10
        0x00004d80:    d65f03c0    .._.    RET      
    getITSTableType
        0x00004d84:    d100c3ff    ....    SUB      sp,sp,#0x30
        0x00004d88:    32000be8    ...2    ORR      w8,wzr,#7
        0x00004d8c:    9001ffe9    ....    ADRP     x9,{pc}+0x3ffc000 ; 0x4000d8c
        0x00004d90:    91080129    )...    ADD      x9,x9,#0x200
        0x00004d94:    b90027e0    .'..    STR      w0,[sp,#0x24]
        0x00004d98:    f9000fe1    ....    STR      x1,[sp,#0x18]
        0x00004d9c:    f9000be2    ....    STR      x2,[sp,#0x10]
        0x00004da0:    b94027e0    .'@.    LDR      w0,[sp,#0x24]
        0x00004da4:    6b08001f    ...k    CMP      w0,w8
        0x00004da8:    1a9f97e8    ....    CSET     w8,HI
        0x00004dac:    f90007e9    ....    STR      x9,[sp,#8]
        0x00004db0:    37000048    H..7    TBNZ     w8,#0,0x4db8 ; getITSTableType + 52
        0x00004db4:    14000003    ....    B        0x4dc0 ; getITSTableType + 60
        0x00004db8:    f90017ff    ....    STR      xzr,[sp,#0x28]
        0x00004dbc:    14000022    "...    B        0x4e44 ; getITSTableType + 192
        0x00004dc0:    b24003e8    ..@.    ORR      x8,xzr,#1
        0x00004dc4:    b24013e9    ..@.    ORR      x9,xzr,#0x1f
        0x00004dc8:    b2400bea    ..@.    ORR      x10,xzr,#7
        0x00004dcc:    b27d03eb    ..}.    ORR      x11,xzr,#8
        0x00004dd0:    b27803ec    ..x.    ORR      x12,xzr,#0x100
        0x00004dd4:    f94007ed    ..@.    LDR      x13,[sp,#8]
        0x00004dd8:    f94001ae    ..@.    LDR      x14,[x13,#0]
        0x00004ddc:    8b0c01ce    ....    ADD      x14,x14,x12
        0x00004de0:    b94027ef    .'@.    LDR      w15,[sp,#0x24]
        0x00004de4:    2a0f03f0    ...*    MOV      w16,w15
        0x00004de8:    d3407e10    .~@.    UBFX     x16,x16,#0,#32
        0x00004dec:    9b107d70    p}..    MUL      x16,x11,x16
        0x00004df0:    8b1001ce    ....    ADD      x14,x14,x16
        0x00004df4:    f94001ce    ..@.    LDR      x14,[x14,#0]
        0x00004df8:    d378fdce    ..x.    LSR      x14,x14,#56
        0x00004dfc:    8a0e014a    J...    AND      x10,x10,x14
        0x00004e00:    2a0a03ef    ...*    MOV      w15,w10
        0x00004e04:    f9400fea    ..@.    LDR      x10,[sp,#0x18]
        0x00004e08:    b900014f    O...    STR      w15,[x10,#0]
        0x00004e0c:    f94001aa    ..@.    LDR      x10,[x13,#0]
        0x00004e10:    8b0c014a    J...    ADD      x10,x10,x12
        0x00004e14:    b94027ef    .'@.    LDR      w15,[sp,#0x24]
        0x00004e18:    2a0f03ec    ...*    MOV      w12,w15
        0x00004e1c:    d3407d8c    .}@.    UBFX     x12,x12,#0,#32
        0x00004e20:    9b0c7d6b    k}..    MUL      x11,x11,x12
        0x00004e24:    8b0b014a    J...    ADD      x10,x10,x11
        0x00004e28:    f940014a    J.@.    LDR      x10,[x10,#0]
        0x00004e2c:    d370fd4a    J.p.    LSR      x10,x10,#48
        0x00004e30:    8a0a0129    )...    AND      x9,x9,x10
        0x00004e34:    2a0903ef    ...*    MOV      w15,w9
        0x00004e38:    f9400be9    ..@.    LDR      x9,[sp,#0x10]
        0x00004e3c:    b900012f    /...    STR      w15,[x9,#0]
        0x00004e40:    f90017e8    ....    STR      x8,[sp,#0x28]
        0x00004e44:    f94017e0    ..@.    LDR      x0,[sp,#0x28]
        0x00004e48:    9100c3ff    ....    ADD      sp,sp,#0x30
        0x00004e4c:    d65f03c0    .._.    RET      
    getRdProcNumber
        0x00004e50:    d10043ff    .C..    SUB      sp,sp,#0x10
        0x00004e54:    9001ffe8    ....    ADRP     x8,{pc}+0x3ffc000 ; 0x4000e54
        0x00004e58:    91086108    .a..    ADD      x8,x8,#0x218
        0x00004e5c:    b26f03e9    ..o.    ORR      x9,xzr,#0x20000
        0x00004e60:    b27d03ea    ..}.    ORR      x10,xzr,#8
        0x00004e64:    321d03eb    ...2    ORR      w11,wzr,#8
        0x00004e68:    32003fec    .?.2    ORR      w12,wzr,#0xffff
        0x00004e6c:    b9000fe0    ....    STR      w0,[sp,#0xc]
        0x00004e70:    f9400108    ..@.    LDR      x8,[x8,#0]
        0x00004e74:    b9400fe0    ..@.    LDR      w0,[sp,#0xc]
        0x00004e78:    2a0003ed    ...*    MOV      w13,w0
        0x00004e7c:    d3407dad    .}@.    UBFX     x13,x13,#0,#32
        0x00004e80:    9b0d7d29    )}..    MUL      x9,x9,x13
        0x00004e84:    8b090108    ....    ADD      x8,x8,x9
        0x00004e88:    8b0a0108    ....    ADD      x8,x8,x10
        0x00004e8c:    b9400100    ..@.    LDR      w0,[x8,#0]
        0x00004e90:    1acb240b    .$..    LSR      w11,w0,w11
        0x00004e94:    0a0c0160    `...    AND      w0,w11,w12
        0x00004e98:    910043ff    .C..    ADD      sp,sp,#0x10
        0x00004e9c:    d65f03c0    .._.    RET      
    getRedistID
        0x00004ea0:    d10083ff    ....    SUB      sp,sp,#0x20
        0x00004ea4:    9001ffe8    ....    ADRP     x8,{pc}+0x3ffc000 ; 0x4000ea4
        0x00004ea8:    9107d108    ....    ADD      x8,x8,#0x1f4
        0x00004eac:    9001ffe9    ....    ADRP     x9,{pc}+0x3ffc000 ; 0x4000eac
        0x00004eb0:    91086129    )a..    ADD      x9,x9,#0x218
        0x00004eb4:    b9001be0    ....    STR      w0,[sp,#0x18]
        0x00004eb8:    b90017ff    ....    STR      wzr,[sp,#0x14]
        0x00004ebc:    b9400100    ..@.    LDR      w0,[x8,#0]
        0x00004ec0:    f90007e9    ....    STR      x9,[sp,#8]
        0x00004ec4:    34000040    @..4    CBZ      w0,0x4ecc ; getRedistID + 44
        0x00004ec8:    14000004    ....    B        0x4ed8 ; getRedistID + 56
        0x00004ecc:    12800008    ....    MOV      w8,#0xffffffff
        0x00004ed0:    b9001fe8    ....    STR      w8,[sp,#0x1c]
        0x00004ed4:    14000027    '...    B        0x4f70 ; getRedistID + 208
        0x00004ed8:    b27d03e8    ..}.    ORR      x8,xzr,#8
        0x00004edc:    b26f03e9    ..o.    ORR      x9,xzr,#0x20000
        0x00004ee0:    f94007ea    ..@.    LDR      x10,[sp,#8]
        0x00004ee4:    f940014b    K.@.    LDR      x11,[x10,#0]
        0x00004ee8:    b94017ec    ..@.    LDR      w12,[sp,#0x14]
        0x00004eec:    2a0c03ed    ...*    MOV      w13,w12
        0x00004ef0:    d3407dad    .}@.    UBFX     x13,x13,#0,#32
        0x00004ef4:    9b0d7d29    )}..    MUL      x9,x9,x13
        0x00004ef8:    8b090169    i...    ADD      x9,x11,x9
        0x00004efc:    8b080128    (...    ADD      x8,x9,x8
        0x00004f00:    b940050c    ..@.    LDR      w12,[x8,#4]
        0x00004f04:    b9401bee    ..@.    LDR      w14,[sp,#0x18]
        0x00004f08:    6b0e019f    ...k    CMP      w12,w14
        0x00004f0c:    1a9f17ec    ....    CSET     w12,EQ
        0x00004f10:    3700004c    L..7    TBNZ     w12,#0,0x4f18 ; getRedistID + 120
        0x00004f14:    14000004    ....    B        0x4f24 ; getRedistID + 132
        0x00004f18:    b94017e8    ..@.    LDR      w8,[sp,#0x14]
        0x00004f1c:    b9001fe8    ....    STR      w8,[sp,#0x1c]
        0x00004f20:    14000014    ....    B        0x4f70 ; getRedistID + 208
        0x00004f24:    b94017e8    ..@.    LDR      w8,[sp,#0x14]
        0x00004f28:    11000508    ....    ADD      w8,w8,#1
        0x00004f2c:    b90017e8    ....    STR      w8,[sp,#0x14]
        0x00004f30:    321c03e8    ...2    ORR      w8,wzr,#0x10
        0x00004f34:    b27d03e9    ..}.    ORR      x9,xzr,#8
        0x00004f38:    b26f03ea    ..o.    ORR      x10,xzr,#0x20000
        0x00004f3c:    f94007eb    ..@.    LDR      x11,[sp,#8]
        0x00004f40:    f940016c    l.@.    LDR      x12,[x11,#0]
        0x00004f44:    b94017ed    ..@.    LDR      w13,[sp,#0x14]
        0x00004f48:    2a0d03ee    ...*    MOV      w14,w13
        0x00004f4c:    d3407dce    .}@.    UBFX     x14,x14,#0,#32
        0x00004f50:    9b0e7d4a    J}..    MUL      x10,x10,x14
        0x00004f54:    8b0a018a    ....    ADD      x10,x12,x10
        0x00004f58:    8b090149    I...    ADD      x9,x10,x9
        0x00004f5c:    b940012d    -.@.    LDR      w13,[x9,#0]
        0x00004f60:    0a0801a8    ....    AND      w8,w13,w8
        0x00004f64:    34fffba8    ...4    CBZ      w8,0x4ed8 ; getRedistID + 56
        0x00004f68:    12800008    ....    MOV      w8,#0xffffffff
        0x00004f6c:    b9001fe8    ....    STR      w8,[sp,#0x1c]
        0x00004f70:    b9401fe0    ..@.    LDR      w0,[sp,#0x1c]
        0x00004f74:    910083ff    ....    ADD      sp,sp,#0x20
        0x00004f78:    d65f03c0    .._.    RET      
    initGIC
        0x00004f7c:    d10083ff    ....    SUB      sp,sp,#0x20
        0x00004f80:    f9000bfe    ....    STR      x30,[sp,#0x10]
        0x00004f84:    d2a5e008    ....    MOV      x8,#0x2f000000
        0x00004f88:    d2a5e209    ....    MOV      x9,#0x2f100000
        0x00004f8c:    32001fe0    ...2    ORR      w0,wzr,#0xff
        0x00004f90:    b9000be0    ....    STR      w0,[sp,#8]
        0x00004f94:    aa0803e0    ....    MOV      x0,x8
        0x00004f98:    aa0903e1    ....    MOV      x1,x9
        0x00004f9c:    9400033a    :...    BL       setGICAddr ; 0x5c84
        0x00004fa0:    97ffff02    ....    BL       enableGIC ; 0x4ba8
        0x00004fa4:    97ffec55    U...    BL       getAffinity ; 0xf8
        0x00004fa8:    97ffffbe    ....    BL       getRedistID ; 0x4ea0
        0x00004fac:    b9000fe0    ....    STR      w0,[sp,#0xc]
        0x00004fb0:    b9400fe0    ..@.    LDR      w0,[sp,#0xc]
        0x00004fb4:    94000463    c...    BL       wakeUpRedist ; 0x6140
        0x00004fb8:    b9400bea    ..@.    LDR      w10,[sp,#8]
        0x00004fbc:    2a0a03e0    ...*    MOV      w0,w10
        0x00004fc0:    94000a93    ....    BL       setPriorityMask ; 0x7a0c
        0x00004fc4:    94000a5d    ]...    BL       enableGroup0Ints ; 0x7938
        0x00004fc8:    94000a64    d...    BL       enableGroup1Ints ; 0x7958
        0x00004fcc:    b9400fe0    ..@.    LDR      w0,[sp,#0xc]
        0x00004fd0:    f9400bfe    ..@.    LDR      x30,[sp,#0x10]
        0x00004fd4:    910083ff    ....    ADD      sp,sp,#0x20
        0x00004fd8:    d65f03c0    .._.    RET      
    initITSCommandQueue
        0x00004fdc:    d10103ff    ....    SUB      sp,sp,#0x40
        0x00004fe0:    f9001bfe    ....    STR      x30,[sp,#0x30]
        0x00004fe4:    b2748fe8    ..t.    MOV      x8,#0xfffffffff000
        0x00004fe8:    d2818009    ....    MOV      x9,#0xc00
        0x00004fec:    f2ff0009    ....    MOVK     x9,#0xf800,LSL #48
        0x00004ff0:    b2401fea    ..@.    ORR      x10,xzr,#0xff
        0x00004ff4:    9001ffeb    ....    ADRP     x11,{pc}+0x3ffc000 ; 0x4000ff4
        0x00004ff8:    9108016b    k...    ADD      x11,x11,#0x200
        0x00004ffc:    f90017e0    ....    STR      x0,[sp,#0x28]
        0x00005000:    f90013e1    ....    STR      x1,[sp,#0x20]
        0x00005004:    f9000fe2    ....    STR      x2,[sp,#0x18]
        0x00005008:    f94017e0    ..@.    LDR      x0,[sp,#0x28]
        0x0000500c:    8a080008    ....    AND      x8,x0,x8
        0x00005010:    f90017e8    ....    STR      x8,[sp,#0x28]
        0x00005014:    f94013e8    ..@.    LDR      x8,[sp,#0x20]
        0x00005018:    8a090108    ....    AND      x8,x8,x9
        0x0000501c:    f90013e8    ....    STR      x8,[sp,#0x20]
        0x00005020:    f9400fe8    ..@.    LDR      x8,[sp,#0x18]
        0x00005024:    8a0a0108    ....    AND      x8,x8,x10
        0x00005028:    f9000fe8    ....    STR      x8,[sp,#0x18]
        0x0000502c:    f9400fe8    ..@.    LDR      x8,[sp,#0x18]
        0x00005030:    f90007eb    ....    STR      x11,[sp,#8]
        0x00005034:    b4000048    H...    CBZ      x8,0x503c ; initITSCommandQueue + 96
        0x00005038:    14000002    ....    B        0x5040 ; initITSCommandQueue + 100
        0x0000503c:    14000018    ....    B        0x509c ; initITSCommandQueue + 192
        0x00005040:    52800008    ...R    MOV      w8,#0
        0x00005044:    b27403e9    ..t.    ORR      x9,xzr,#0x1000
        0x00005048:    f9400fea    ..@.    LDR      x10,[sp,#0x18]
        0x0000504c:    9b097d49    I}..    MUL      x9,x10,x9
        0x00005050:    f9000be9    ....    STR      x9,[sp,#0x10]
        0x00005054:    f94017e9    ..@.    LDR      x9,[sp,#0x28]
        0x00005058:    f9400be2    ..@.    LDR      x2,[sp,#0x10]
        0x0000505c:    aa0903e0    ....    MOV      x0,x9
        0x00005060:    2a0803e1    ...*    MOV      w1,w8
        0x00005064:    97ffecb9    ....    BL       memset ; 0x348
        0x00005068:    f94017e9    ..@.    LDR      x9,[sp,#0x28]
        0x0000506c:    f94013ea    ..@.    LDR      x10,[sp,#0x20]
        0x00005070:    aa0a0129    )...    ORR      x9,x9,x10
        0x00005074:    f9400fea    ..@.    LDR      x10,[sp,#0x18]
        0x00005078:    f100054a    J...    SUBS     x10,x10,#1
        0x0000507c:    aa0a0129    )...    ORR      x9,x9,x10
        0x00005080:    f9000be9    ....    STR      x9,[sp,#0x10]
        0x00005084:    f9400be9    ..@.    LDR      x9,[sp,#0x10]
        0x00005088:    f94007ea    ..@.    LDR      x10,[sp,#8]
        0x0000508c:    f9400140    @.@.    LDR      x0,[x10,#0]
        0x00005090:    f9004009    .@..    STR      x9,[x0,#0x80]
        0x00005094:    f9400149    I.@.    LDR      x9,[x10,#0]
        0x00005098:    f900453f    ?E..    STR      xzr,[x9,#0x88]
        0x0000509c:    f9401bfe    ..@.    LDR      x30,[sp,#0x30]
        0x000050a0:    910103ff    ....    ADD      sp,sp,#0x40
        0x000050a4:    d65f03c0    .._.    RET      
    itsAddCommand
        0x000050a8:    d10143ff    .C..    SUB      sp,sp,#0x50
        0x000050ac:    f90023fe    .#..    STR      x30,[sp,#0x40]
        0x000050b0:    f001ffc8    ....    ADRP     x8,{pc}+0x3ffb000 ; 0x40000b0
        0x000050b4:    91080108    ....    ADD      x8,x8,#0x200
        0x000050b8:    b2401fe9    ..@.    ORR      x9,xzr,#0xff
        0x000050bc:    b27403ea    ..t.    ORR      x10,xzr,#0x1000
        0x000050c0:    b2748feb    ..t.    MOV      x11,#0xfffffffff000
        0x000050c4:    f9001fe0    ....    STR      x0,[sp,#0x38]
        0x000050c8:    f9400100    ..@.    LDR      x0,[x8,#0]
        0x000050cc:    f9404000    .@@.    LDR      x0,[x0,#0x80]
        0x000050d0:    8a090009    ....    AND      x9,x0,x9
        0x000050d4:    91000529    )...    ADD      x9,x9,#1
        0x000050d8:    9b0a7d29    )}..    MUL      x9,x9,x10
        0x000050dc:    2a0903ec    ...*    MOV      w12,w9
        0x000050e0:    b90033ec    .3..    STR      w12,[sp,#0x30]
        0x000050e4:    f9400109    ..@.    LDR      x9,[x8,#0]
        0x000050e8:    f9404129    )A@.    LDR      x9,[x9,#0x80]
        0x000050ec:    8a0b0129    )...    AND      x9,x9,x11
        0x000050f0:    f90013e9    ....    STR      x9,[sp,#0x20]
        0x000050f4:    f9400109    ..@.    LDR      x9,[x8,#0]
        0x000050f8:    f9404529    )E@.    LDR      x9,[x9,#0x88]
        0x000050fc:    f9000fe9    ....    STR      x9,[sp,#0x18]
        0x00005100:    f9400109    ..@.    LDR      x9,[x8,#0]
        0x00005104:    f9404929    )I@.    LDR      x9,[x9,#0x90]
        0x00005108:    f9000be9    ....    STR      x9,[sp,#0x10]
        0x0000510c:    f9400be9    ..@.    LDR      x9,[sp,#0x10]
        0x00005110:    f90003e8    ....    STR      x8,[sp,#0]
        0x00005114:    b4000049    I...    CBZ      x9,0x511c ; itsAddCommand + 116
        0x00005118:    14000007    ....    B        0x5134 ; itsAddCommand + 140
        0x0000511c:    b94033e8    .3@.    LDR      w8,[sp,#0x30]
        0x00005120:    71008108    ...q    SUBS     w8,w8,#0x20
        0x00005124:    2a0803e9    ...*    MOV      w9,w8
        0x00005128:    d3407d29    )}@.    UBFX     x9,x9,#0,#32
        0x0000512c:    f9000be9    ....    STR      x9,[sp,#0x10]
        0x00005130:    14000004    ....    B        0x5140 ; itsAddCommand + 152
        0x00005134:    f9400be8    ..@.    LDR      x8,[sp,#0x10]
        0x00005138:    f1008108    ....    SUBS     x8,x8,#0x20
        0x0000513c:    f9000be8    ....    STR      x8,[sp,#0x10]
        0x00005140:    f9400fe8    ..@.    LDR      x8,[sp,#0x18]
        0x00005144:    f9400be9    ..@.    LDR      x9,[sp,#0x10]
        0x00005148:    eb09011f    ....    CMP      x8,x9
        0x0000514c:    1a9f17ea    ....    CSET     w10,EQ
        0x00005150:    3700004a    J..7    TBNZ     w10,#0,0x5158 ; itsAddCommand + 176
        0x00005154:    14000002    ....    B        0x515c ; itsAddCommand + 180
        0x00005158:    17fffffa    ....    B        0x5140 ; itsAddCommand + 152
        0x0000515c:    f94013e8    ..@.    LDR      x8,[sp,#0x20]
        0x00005160:    f9400fe9    ..@.    LDR      x9,[sp,#0x18]
        0x00005164:    8b090108    ....    ADD      x8,x8,x9
        0x00005168:    f90007e8    ....    STR      x8,[sp,#8]
        0x0000516c:    b90037ff    .7..    STR      wzr,[sp,#0x34]
        0x00005170:    321b03e8    ...2    ORR      w8,wzr,#0x20
        0x00005174:    b94037e9    .7@.    LDR      w9,[sp,#0x34]
        0x00005178:    6b08013f    ?..k    CMP      w9,w8
        0x0000517c:    1a9f27e8    .'..    CSET     w8,CC
        0x00005180:    37000048    H..7    TBNZ     w8,#0,0x5188 ; itsAddCommand + 224
        0x00005184:    14000011    ....    B        0x51c8 ; itsAddCommand + 288
        0x00005188:    f9401fe8    ..@.    LDR      x8,[sp,#0x38]
        0x0000518c:    b94037e9    .7@.    LDR      w9,[sp,#0x34]
        0x00005190:    2a0903ea    ...*    MOV      w10,w9
        0x00005194:    d3407d4a    J}@.    UBFX     x10,x10,#0,#32
        0x00005198:    8b0a0108    ....    ADD      x8,x8,x10
        0x0000519c:    39400109    ..@9    LDRB     w9,[x8,#0]
        0x000051a0:    f94007e8    ..@.    LDR      x8,[sp,#8]
        0x000051a4:    b94037eb    .7@.    LDR      w11,[sp,#0x34]
        0x000051a8:    2a0b03ea    ...*    MOV      w10,w11
        0x000051ac:    d3407d4a    J}@.    UBFX     x10,x10,#0,#32
        0x000051b0:    8b0a0108    ....    ADD      x8,x8,x10
        0x000051b4:    39000109    ...9    STRB     w9,[x8,#0]
        0x000051b8:    b94037e8    .7@.    LDR      w8,[sp,#0x34]
        0x000051bc:    11000508    ....    ADD      w8,w8,#1
        0x000051c0:    b90037e8    .7..    STR      w8,[sp,#0x34]
        0x000051c4:    17ffffeb    ....    B        0x5170 ; itsAddCommand + 200
        0x000051c8:    97fffe42    B...    BL       __dsb ; 0x4ad0
        0x000051cc:    f9400fe8    ..@.    LDR      x8,[sp,#0x18]
        0x000051d0:    91008108    ....    ADD      x8,x8,#0x20
        0x000051d4:    f90017e8    ....    STR      x8,[sp,#0x28]
        0x000051d8:    f94017e8    ..@.    LDR      x8,[sp,#0x28]
        0x000051dc:    b94033e9    .3@.    LDR      w9,[sp,#0x30]
        0x000051e0:    2a0903ea    ...*    MOV      w10,w9
        0x000051e4:    d3407d4a    J}@.    UBFX     x10,x10,#0,#32
        0x000051e8:    eb0a011f    ....    CMP      x8,x10
        0x000051ec:    1a9f17e9    ....    CSET     w9,EQ
        0x000051f0:    37000049    I..7    TBNZ     w9,#0,0x51f8 ; itsAddCommand + 336
        0x000051f4:    14000002    ....    B        0x51fc ; itsAddCommand + 340
        0x000051f8:    f90017ff    ....    STR      xzr,[sp,#0x28]
        0x000051fc:    f94017e8    ..@.    LDR      x8,[sp,#0x28]
        0x00005200:    f94003e9    ..@.    LDR      x9,[sp,#0]
        0x00005204:    f940012a    *.@.    LDR      x10,[x9,#0]
        0x00005208:    f9004548    HE..    STR      x8,[x10,#0x88]
        0x0000520c:    f94023fe    .#@.    LDR      x30,[sp,#0x40]
        0x00005210:    910143ff    .C..    ADD      sp,sp,#0x50
        0x00005214:    d65f03c0    .._.    RET      
    itsINT
        0x00005218:    d10143ff    .C..    SUB      sp,sp,#0x50
        0x0000521c:    f90023fe    .#..    STR      x30,[sp,#0x40]
        0x00005220:    52800008    ...R    MOV      w8,#0
        0x00005224:    320007e9    ...2    ORR      w9,wzr,#3
        0x00005228:    b9003fe0    .?..    STR      w0,[sp,#0x3c]
        0x0000522c:    b9003be1    .;..    STR      w1,[sp,#0x38]
        0x00005230:    b90017ff    ....    STR      wzr,[sp,#0x14]
        0x00005234:    b90013e9    ....    STR      w9,[sp,#0x10]
        0x00005238:    b9000fe8    ....    STR      w8,[sp,#0xc]
        0x0000523c:    321b03e8    ...2    ORR      w8,wzr,#0x20
        0x00005240:    b94017e9    ..@.    LDR      w9,[sp,#0x14]
        0x00005244:    6b08013f    ?..k    CMP      w9,w8
        0x00005248:    1a9f27e8    .'..    CSET     w8,CC
        0x0000524c:    37000048    H..7    TBNZ     w8,#0,0x5254 ; itsINT + 60
        0x00005250:    1400000c    ....    B        0x5280 ; itsINT + 104
        0x00005254:    910063e8    .c..    ADD      x8,sp,#0x18
        0x00005258:    b94017e9    ..@.    LDR      w9,[sp,#0x14]
        0x0000525c:    2a0903ea    ...*    MOV      w10,w9
        0x00005260:    d3407d4a    J}@.    UBFX     x10,x10,#0,#32
        0x00005264:    8b0a0108    ....    ADD      x8,x8,x10
        0x00005268:    b9400fe9    ..@.    LDR      w9,[sp,#0xc]
        0x0000526c:    39000109    ...9    STRB     w9,[x8,#0]
        0x00005270:    b94017e8    ..@.    LDR      w8,[sp,#0x14]
        0x00005274:    11000508    ....    ADD      w8,w8,#1
        0x00005278:    b90017e8    ....    STR      w8,[sp,#0x14]
        0x0000527c:    17fffff0    ....    B        0x523c ; itsINT + 36
        0x00005280:    910063e8    .c..    ADD      x8,sp,#0x18
        0x00005284:    321d07e9    ...2    ORR      w9,wzr,#0x18
        0x00005288:    321c03ea    ...2    ORR      w10,wzr,#0x10
        0x0000528c:    321d03eb    ...2    ORR      w11,wzr,#8
        0x00005290:    32001fec    ...2    ORR      w12,wzr,#0xff
        0x00005294:    b94013ed    ..@.    LDR      w13,[sp,#0x10]
        0x00005298:    3900010d    ...9    STRB     w13,[x8,#0]
        0x0000529c:    b9400fee    ..@.    LDR      w14,[sp,#0xc]
        0x000052a0:    3900050e    ...9    STRB     w14,[x8,#1]
        0x000052a4:    b9403fef    .?@.    LDR      w15,[sp,#0x3c]
        0x000052a8:    0a0f018f    ....    AND      w15,w12,w15
        0x000052ac:    3900110f    ...9    STRB     w15,[x8,#4]
        0x000052b0:    b9403fef    .?@.    LDR      w15,[sp,#0x3c]
        0x000052b4:    1acb25ef    .%..    LSR      w15,w15,w11
        0x000052b8:    0a0f018f    ....    AND      w15,w12,w15
        0x000052bc:    3900150f    ...9    STRB     w15,[x8,#5]
        0x000052c0:    b9403fef    .?@.    LDR      w15,[sp,#0x3c]
        0x000052c4:    1aca25ef    .%..    LSR      w15,w15,w10
        0x000052c8:    0a0f018f    ....    AND      w15,w12,w15
        0x000052cc:    3900190f    ...9    STRB     w15,[x8,#6]
        0x000052d0:    b9403fef    .?@.    LDR      w15,[sp,#0x3c]
        0x000052d4:    1ac925ef    .%..    LSR      w15,w15,w9
        0x000052d8:    0a0f018f    ....    AND      w15,w12,w15
        0x000052dc:    39001d0f    ...9    STRB     w15,[x8,#7]
        0x000052e0:    b9403bef    .;@.    LDR      w15,[sp,#0x38]
        0x000052e4:    0a0f018f    ....    AND      w15,w12,w15
        0x000052e8:    3900210f    .!.9    STRB     w15,[x8,#8]
        0x000052ec:    b9403bef    .;@.    LDR      w15,[sp,#0x38]
        0x000052f0:    1acb25eb    .%..    LSR      w11,w15,w11
        0x000052f4:    0a0b018b    ....    AND      w11,w12,w11
        0x000052f8:    3900250b    .%.9    STRB     w11,[x8,#9]
        0x000052fc:    b9403beb    .;@.    LDR      w11,[sp,#0x38]
        0x00005300:    1aca256a    j%..    LSR      w10,w11,w10
        0x00005304:    0a0a018a    ....    AND      w10,w12,w10
        0x00005308:    3900290a    .).9    STRB     w10,[x8,#0xa]
        0x0000530c:    b9403bea    .;@.    LDR      w10,[sp,#0x38]
        0x00005310:    1ac92549    I%..    LSR      w9,w10,w9
        0x00005314:    0a090189    ....    AND      w9,w12,w9
        0x00005318:    39002d09    .-.9    STRB     w9,[x8,#0xb]
        0x0000531c:    aa0803e0    ....    MOV      x0,x8
        0x00005320:    97ffff62    b...    BL       itsAddCommand ; 0x50a8
        0x00005324:    f94023fe    .#@.    LDR      x30,[sp,#0x40]
        0x00005328:    910143ff    .C..    ADD      sp,sp,#0x50
        0x0000532c:    d65f03c0    .._.    RET      
    itsINV
        0x00005330:    d10143ff    .C..    SUB      sp,sp,#0x50
        0x00005334:    f90023fe    .#..    STR      x30,[sp,#0x40]
        0x00005338:    52800008    ...R    MOV      w8,#0
        0x0000533c:    321e07e9    ...2    ORR      w9,wzr,#0xc
        0x00005340:    b9003fe0    .?..    STR      w0,[sp,#0x3c]
        0x00005344:    b9003be1    .;..    STR      w1,[sp,#0x38]
        0x00005348:    b90017ff    ....    STR      wzr,[sp,#0x14]
        0x0000534c:    b90013e9    ....    STR      w9,[sp,#0x10]
        0x00005350:    b9000fe8    ....    STR      w8,[sp,#0xc]
        0x00005354:    321b03e8    ...2    ORR      w8,wzr,#0x20
        0x00005358:    b94017e9    ..@.    LDR      w9,[sp,#0x14]
        0x0000535c:    6b08013f    ?..k    CMP      w9,w8
        0x00005360:    1a9f27e8    .'..    CSET     w8,CC
        0x00005364:    37000048    H..7    TBNZ     w8,#0,0x536c ; itsINV + 60
        0x00005368:    1400000c    ....    B        0x5398 ; itsINV + 104
        0x0000536c:    910063e8    .c..    ADD      x8,sp,#0x18
        0x00005370:    b94017e9    ..@.    LDR      w9,[sp,#0x14]
        0x00005374:    2a0903ea    ...*    MOV      w10,w9
        0x00005378:    d3407d4a    J}@.    UBFX     x10,x10,#0,#32
        0x0000537c:    8b0a0108    ....    ADD      x8,x8,x10
        0x00005380:    b9400fe9    ..@.    LDR      w9,[sp,#0xc]
        0x00005384:    39000109    ...9    STRB     w9,[x8,#0]
        0x00005388:    b94017e8    ..@.    LDR      w8,[sp,#0x14]
        0x0000538c:    11000508    ....    ADD      w8,w8,#1
        0x00005390:    b90017e8    ....    STR      w8,[sp,#0x14]
        0x00005394:    17fffff0    ....    B        0x5354 ; itsINV + 36
        0x00005398:    910063e8    .c..    ADD      x8,sp,#0x18
        0x0000539c:    321d07e9    ...2    ORR      w9,wzr,#0x18
        0x000053a0:    321c03ea    ...2    ORR      w10,wzr,#0x10
        0x000053a4:    321d03eb    ...2    ORR      w11,wzr,#8
        0x000053a8:    32001fec    ...2    ORR      w12,wzr,#0xff
        0x000053ac:    b94013ed    ..@.    LDR      w13,[sp,#0x10]
        0x000053b0:    3900010d    ...9    STRB     w13,[x8,#0]
        0x000053b4:    b9400fee    ..@.    LDR      w14,[sp,#0xc]
        0x000053b8:    3900050e    ...9    STRB     w14,[x8,#1]
        0x000053bc:    b9403fef    .?@.    LDR      w15,[sp,#0x3c]
        0x000053c0:    0a0f018f    ....    AND      w15,w12,w15
        0x000053c4:    3900110f    ...9    STRB     w15,[x8,#4]
        0x000053c8:    b9403fef    .?@.    LDR      w15,[sp,#0x3c]
        0x000053cc:    1acb25ef    .%..    LSR      w15,w15,w11
        0x000053d0:    0a0f018f    ....    AND      w15,w12,w15
        0x000053d4:    3900150f    ...9    STRB     w15,[x8,#5]
        0x000053d8:    b9403fef    .?@.    LDR      w15,[sp,#0x3c]
        0x000053dc:    1aca25ef    .%..    LSR      w15,w15,w10
        0x000053e0:    0a0f018f    ....    AND      w15,w12,w15
        0x000053e4:    3900190f    ...9    STRB     w15,[x8,#6]
        0x000053e8:    b9403fef    .?@.    LDR      w15,[sp,#0x3c]
        0x000053ec:    1ac925ef    .%..    LSR      w15,w15,w9
        0x000053f0:    0a0f018f    ....    AND      w15,w12,w15
        0x000053f4:    39001d0f    ...9    STRB     w15,[x8,#7]
        0x000053f8:    b9403bef    .;@.    LDR      w15,[sp,#0x38]
        0x000053fc:    0a0f018f    ....    AND      w15,w12,w15
        0x00005400:    3900210f    .!.9    STRB     w15,[x8,#8]
        0x00005404:    b9403bef    .;@.    LDR      w15,[sp,#0x38]
        0x00005408:    1acb25eb    .%..    LSR      w11,w15,w11
        0x0000540c:    0a0b018b    ....    AND      w11,w12,w11
        0x00005410:    3900250b    .%.9    STRB     w11,[x8,#9]
        0x00005414:    b9403beb    .;@.    LDR      w11,[sp,#0x38]
        0x00005418:    1aca256a    j%..    LSR      w10,w11,w10
        0x0000541c:    0a0a018a    ....    AND      w10,w12,w10
        0x00005420:    3900290a    .).9    STRB     w10,[x8,#0xa]
        0x00005424:    b9403bea    .;@.    LDR      w10,[sp,#0x38]
        0x00005428:    1ac92549    I%..    LSR      w9,w10,w9
        0x0000542c:    0a090189    ....    AND      w9,w12,w9
        0x00005430:    39002d09    .-.9    STRB     w9,[x8,#0xb]
        0x00005434:    aa0803e0    ....    MOV      x0,x8
        0x00005438:    97ffff1c    ....    BL       itsAddCommand ; 0x50a8
        0x0000543c:    f94023fe    .#@.    LDR      x30,[sp,#0x40]
        0x00005440:    910143ff    .C..    ADD      sp,sp,#0x50
        0x00005444:    d65f03c0    .._.    RET      
    itsMAPC
        0x00005448:    d10143ff    .C..    SUB      sp,sp,#0x50
        0x0000544c:    f90023fe    .#..    STR      x30,[sp,#0x40]
        0x00005450:    52800008    ...R    MOV      w8,#0
        0x00005454:    52800129    )..R    MOV      w9,#9
        0x00005458:    321963ea    .c.2    ORR      w10,wzr,#0xffffff80
        0x0000545c:    f9001fe0    ....    STR      x0,[sp,#0x38]
        0x00005460:    b90037e1    .7..    STR      w1,[sp,#0x34]
        0x00005464:    b90013ff    ....    STR      wzr,[sp,#0x10]
        0x00005468:    b9000fea    ....    STR      w10,[sp,#0xc]
        0x0000546c:    b9000be9    ....    STR      w9,[sp,#8]
        0x00005470:    b90007e8    ....    STR      w8,[sp,#4]
        0x00005474:    321b03e8    ...2    ORR      w8,wzr,#0x20
        0x00005478:    b94013e9    ..@.    LDR      w9,[sp,#0x10]
        0x0000547c:    6b08013f    ?..k    CMP      w9,w8
        0x00005480:    1a9f27e8    .'..    CSET     w8,CC
        0x00005484:    37000048    H..7    TBNZ     w8,#0,0x548c ; itsMAPC + 68
        0x00005488:    1400000c    ....    B        0x54b8 ; itsMAPC + 112
        0x0000548c:    910053e8    .S..    ADD      x8,sp,#0x14
        0x00005490:    b94013e9    ..@.    LDR      w9,[sp,#0x10]
        0x00005494:    2a0903ea    ...*    MOV      w10,w9
        0x00005498:    d3407d4a    J}@.    UBFX     x10,x10,#0,#32
        0x0000549c:    8b0a0108    ....    ADD      x8,x8,x10
        0x000054a0:    b94007e9    ..@.    LDR      w9,[sp,#4]
        0x000054a4:    39000109    ...9    STRB     w9,[x8,#0]
        0x000054a8:    b94013e8    ..@.    LDR      w8,[sp,#0x10]
        0x000054ac:    11000508    ....    ADD      w8,w8,#1
        0x000054b0:    b90013e8    ....    STR      w8,[sp,#0x10]
        0x000054b4:    17fffff0    ....    B        0x5474 ; itsMAPC + 44
        0x000054b8:    910053e8    .S..    ADD      x8,sp,#0x14
        0x000054bc:    b2401fe9    ..@.    ORR      x9,xzr,#0xff
        0x000054c0:    321d03ea    ...2    ORR      w10,wzr,#8
        0x000054c4:    32001feb    ...2    ORR      w11,wzr,#0xff
        0x000054c8:    f9401fec    ..@.    LDR      x12,[sp,#0x38]
        0x000054cc:    d350fd8c    ..P.    LSR      x12,x12,#16
        0x000054d0:    f9001fec    ....    STR      x12,[sp,#0x38]
        0x000054d4:    b9400bed    ..@.    LDR      w13,[sp,#8]
        0x000054d8:    3900010d    ...9    STRB     w13,[x8,#0]
        0x000054dc:    b94007ee    ..@.    LDR      w14,[sp,#4]
        0x000054e0:    3900050e    ...9    STRB     w14,[x8,#1]
        0x000054e4:    b94037ef    .7@.    LDR      w15,[sp,#0x34]
        0x000054e8:    0a0f016f    o...    AND      w15,w11,w15
        0x000054ec:    3900410f    .A.9    STRB     w15,[x8,#0x10]
        0x000054f0:    b94037ef    .7@.    LDR      w15,[sp,#0x34]
        0x000054f4:    1aca25ea    .%..    LSR      w10,w15,w10
        0x000054f8:    0a0a016a    j...    AND      w10,w11,w10
        0x000054fc:    3900450a    .E.9    STRB     w10,[x8,#0x11]
        0x00005500:    f9401fec    ..@.    LDR      x12,[sp,#0x38]
        0x00005504:    8a0c012c    ,...    AND      x12,x9,x12
        0x00005508:    2a0c03ea    ...*    MOV      w10,w12
        0x0000550c:    3900490a    .I.9    STRB     w10,[x8,#0x12]
        0x00005510:    f9401fec    ..@.    LDR      x12,[sp,#0x38]
        0x00005514:    d348fd8c    ..H.    LSR      x12,x12,#8
        0x00005518:    8a0c012c    ,...    AND      x12,x9,x12
        0x0000551c:    2a0c03ea    ...*    MOV      w10,w12
        0x00005520:    39004d0a    .M.9    STRB     w10,[x8,#0x13]
        0x00005524:    f9401fec    ..@.    LDR      x12,[sp,#0x38]
        0x00005528:    d350fd8c    ..P.    LSR      x12,x12,#16
        0x0000552c:    8a0c012c    ,...    AND      x12,x9,x12
        0x00005530:    2a0c03ea    ...*    MOV      w10,w12
        0x00005534:    3900510a    .Q.9    STRB     w10,[x8,#0x14]
        0x00005538:    f9401fec    ..@.    LDR      x12,[sp,#0x38]
        0x0000553c:    d358fd8c    ..X.    LSR      x12,x12,#24
        0x00005540:    8a0c0129    )...    AND      x9,x9,x12
        0x00005544:    2a0903ea    ...*    MOV      w10,w9
        0x00005548:    3900550a    .U.9    STRB     w10,[x8,#0x15]
        0x0000554c:    b9400fea    ..@.    LDR      w10,[sp,#0xc]
        0x00005550:    39005d0a    .].9    STRB     w10,[x8,#0x17]
        0x00005554:    aa0803e0    ....    MOV      x0,x8
        0x00005558:    97fffed4    ....    BL       itsAddCommand ; 0x50a8
        0x0000555c:    f94023fe    .#@.    LDR      x30,[sp,#0x40]
        0x00005560:    910143ff    .C..    ADD      sp,sp,#0x50
        0x00005564:    d65f03c0    .._.    RET      
    itsMAPD
        0x00005568:    d10183ff    ....    SUB      sp,sp,#0x60
        0x0000556c:    f9002bfe    .+..    STR      x30,[sp,#0x50]
        0x00005570:    52800008    ...R    MOV      w8,#0
        0x00005574:    52800009    ...R    MOV      w9,#0
        0x00005578:    321d03ea    ...2    ORR      w10,wzr,#8
        0x0000557c:    321963eb    .c.2    ORR      w11,wzr,#0xffffff80
        0x00005580:    b9004fe0    .O..    STR      w0,[sp,#0x4c]
        0x00005584:    f90023e1    .#..    STR      x1,[sp,#0x40]
        0x00005588:    b9003fe2    .?..    STR      w2,[sp,#0x3c]
        0x0000558c:    b9403fe0    .?@.    LDR      w0,[sp,#0x3c]
        0x00005590:    6b08001f    ...k    CMP      w0,w8
        0x00005594:    1a9f97e8    ....    CSET     w8,HI
        0x00005598:    b90017eb    ....    STR      w11,[sp,#0x14]
        0x0000559c:    b90013ea    ....    STR      w10,[sp,#0x10]
        0x000055a0:    b9000fe9    ....    STR      w9,[sp,#0xc]
        0x000055a4:    37000048    H..7    TBNZ     w8,#0,0x55ac ; itsMAPD + 68
        0x000055a8:    14000006    ....    B        0x55c0 ; itsMAPD + 88
        0x000055ac:    12800008    ....    MOV      w8,#0xffffffff
        0x000055b0:    b9403fe9    .?@.    LDR      w9,[sp,#0x3c]
        0x000055b4:    0b080128    (...    ADD      w8,w9,w8
        0x000055b8:    b9003fe8    .?..    STR      w8,[sp,#0x3c]
        0x000055bc:    14000002    ....    B        0x55c4 ; itsMAPD + 92
        0x000055c0:    1400004f    O...    B        0x56fc ; itsMAPD + 404
        0x000055c4:    b9001bff    ....    STR      wzr,[sp,#0x18]
        0x000055c8:    321b03e8    ...2    ORR      w8,wzr,#0x20
        0x000055cc:    b9401be9    ..@.    LDR      w9,[sp,#0x18]
        0x000055d0:    6b08013f    ?..k    CMP      w9,w8
        0x000055d4:    1a9f27e8    .'..    CSET     w8,CC
        0x000055d8:    37000048    H..7    TBNZ     w8,#0,0x55e0 ; itsMAPD + 120
        0x000055dc:    1400000c    ....    B        0x560c ; itsMAPD + 164
        0x000055e0:    910073e8    .s..    ADD      x8,sp,#0x1c
        0x000055e4:    b9401be9    ..@.    LDR      w9,[sp,#0x18]
        0x000055e8:    2a0903ea    ...*    MOV      w10,w9
        0x000055ec:    d3407d4a    J}@.    UBFX     x10,x10,#0,#32
        0x000055f0:    8b0a0108    ....    ADD      x8,x8,x10
        0x000055f4:    b9400fe9    ..@.    LDR      w9,[sp,#0xc]
        0x000055f8:    39000109    ...9    STRB     w9,[x8,#0]
        0x000055fc:    b9401be8    ..@.    LDR      w8,[sp,#0x18]
        0x00005600:    11000508    ....    ADD      w8,w8,#1
        0x00005604:    b9001be8    ....    STR      w8,[sp,#0x18]
        0x00005608:    17fffff0    ....    B        0x55c8 ; itsMAPD + 96
        0x0000560c:    910073e8    .s..    ADD      x8,sp,#0x1c
        0x00005610:    b2401fe9    ..@.    ORR      x9,xzr,#0xff
        0x00005614:    320017ea    ...2    ORR      w10,wzr,#0x3f
        0x00005618:    321d07eb    ...2    ORR      w11,wzr,#0x18
        0x0000561c:    321c03ec    ...2    ORR      w12,wzr,#0x10
        0x00005620:    321d03ed    ...2    ORR      w13,wzr,#8
        0x00005624:    32001fee    ...2    ORR      w14,wzr,#0xff
        0x00005628:    f94023ef    .#@.    LDR      x15,[sp,#0x40]
        0x0000562c:    d348fdef    ..H.    LSR      x15,x15,#8
        0x00005630:    f90023ef    .#..    STR      x15,[sp,#0x40]
        0x00005634:    b94013f0    ..@.    LDR      w16,[sp,#0x10]
        0x00005638:    39000110    ...9    STRB     w16,[x8,#0]
        0x0000563c:    b9400ff1    ..@.    LDR      w17,[sp,#0xc]
        0x00005640:    39000511    ...9    STRB     w17,[x8,#1]
        0x00005644:    b9404ff2    .O@.    LDR      w18,[sp,#0x4c]
        0x00005648:    0a1201d2    ....    AND      w18,w14,w18
        0x0000564c:    39001112    ...9    STRB     w18,[x8,#4]
        0x00005650:    b9404ff2    .O@.    LDR      w18,[sp,#0x4c]
        0x00005654:    1acd264d    M&..    LSR      w13,w18,w13
        0x00005658:    0a0d01cd    ....    AND      w13,w14,w13
        0x0000565c:    3900150d    ...9    STRB     w13,[x8,#5]
        0x00005660:    b9404fed    .O@.    LDR      w13,[sp,#0x4c]
        0x00005664:    1acc25ac    .%..    LSR      w12,w13,w12
        0x00005668:    0a0c01cc    ....    AND      w12,w14,w12
        0x0000566c:    3900190c    ...9    STRB     w12,[x8,#6]
        0x00005670:    b9404fec    .O@.    LDR      w12,[sp,#0x4c]
        0x00005674:    1acb258b    .%..    LSR      w11,w12,w11
        0x00005678:    0a0b01cb    ....    AND      w11,w14,w11
        0x0000567c:    39001d0b    ...9    STRB     w11,[x8,#7]
        0x00005680:    b9403feb    .?@.    LDR      w11,[sp,#0x3c]
        0x00005684:    0a0b014a    J...    AND      w10,w10,w11
        0x00005688:    3900210a    .!.9    STRB     w10,[x8,#8]
        0x0000568c:    f94023ef    .#@.    LDR      x15,[sp,#0x40]
        0x00005690:    8a0f012f    /...    AND      x15,x9,x15
        0x00005694:    2a0f03ea    ...*    MOV      w10,w15
        0x00005698:    3900450a    .E.9    STRB     w10,[x8,#0x11]
        0x0000569c:    f94023ef    .#@.    LDR      x15,[sp,#0x40]
        0x000056a0:    d348fdef    ..H.    LSR      x15,x15,#8
        0x000056a4:    8a0f012f    /...    AND      x15,x9,x15
        0x000056a8:    2a0f03ea    ...*    MOV      w10,w15
        0x000056ac:    3900490a    .I.9    STRB     w10,[x8,#0x12]
        0x000056b0:    f94023ef    .#@.    LDR      x15,[sp,#0x40]
        0x000056b4:    d350fdef    ..P.    LSR      x15,x15,#16
        0x000056b8:    8a0f012f    /...    AND      x15,x9,x15
        0x000056bc:    2a0f03ea    ...*    MOV      w10,w15
        0x000056c0:    39004d0a    .M.9    STRB     w10,[x8,#0x13]
        0x000056c4:    f94023ef    .#@.    LDR      x15,[sp,#0x40]
        0x000056c8:    d358fdef    ..X.    LSR      x15,x15,#24
        0x000056cc:    8a0f012f    /...    AND      x15,x9,x15
        0x000056d0:    2a0f03ea    ...*    MOV      w10,w15
        0x000056d4:    3900510a    .Q.9    STRB     w10,[x8,#0x14]
        0x000056d8:    f94023ef    .#@.    LDR      x15,[sp,#0x40]
        0x000056dc:    d360fdef    ..`.    LSR      x15,x15,#32
        0x000056e0:    8a0f0129    )...    AND      x9,x9,x15
        0x000056e4:    2a0903ea    ...*    MOV      w10,w9
        0x000056e8:    3900550a    .U.9    STRB     w10,[x8,#0x15]
        0x000056ec:    b94017ea    ..@.    LDR      w10,[sp,#0x14]
        0x000056f0:    39005d0a    .].9    STRB     w10,[x8,#0x17]
        0x000056f4:    aa0803e0    ....    MOV      x0,x8
        0x000056f8:    97fffe6c    l...    BL       itsAddCommand ; 0x50a8
        0x000056fc:    f9402bfe    .+@.    LDR      x30,[sp,#0x50]
        0x00005700:    910183ff    ....    ADD      sp,sp,#0x60
        0x00005704:    d65f03c0    .._.    RET      
    itsMAPTI
        0x00005708:    d10143ff    .C..    SUB      sp,sp,#0x50
        0x0000570c:    f90023fe    .#..    STR      x30,[sp,#0x40]
        0x00005710:    52800008    ...R    MOV      w8,#0
        0x00005714:    52800149    I..R    MOV      w9,#0xa
        0x00005718:    b9003fe0    .?..    STR      w0,[sp,#0x3c]
        0x0000571c:    b9003be1    .;..    STR      w1,[sp,#0x38]
        0x00005720:    b90037e2    .7..    STR      w2,[sp,#0x34]
        0x00005724:    b90033e3    .3..    STR      w3,[sp,#0x30]
        0x00005728:    b9000fff    ....    STR      wzr,[sp,#0xc]
        0x0000572c:    b9000be9    ....    STR      w9,[sp,#8]
        0x00005730:    b90007e8    ....    STR      w8,[sp,#4]
        0x00005734:    321b03e8    ...2    ORR      w8,wzr,#0x20
        0x00005738:    b9400fe9    ..@.    LDR      w9,[sp,#0xc]
        0x0000573c:    6b08013f    ?..k    CMP      w9,w8
        0x00005740:    1a9f27e8    .'..    CSET     w8,CC
        0x00005744:    37000048    H..7    TBNZ     w8,#0,0x574c ; itsMAPTI + 68
        0x00005748:    1400000c    ....    B        0x5778 ; itsMAPTI + 112
        0x0000574c:    910043e8    .C..    ADD      x8,sp,#0x10
        0x00005750:    b9400fe9    ..@.    LDR      w9,[sp,#0xc]
        0x00005754:    2a0903ea    ...*    MOV      w10,w9
        0x00005758:    d3407d4a    J}@.    UBFX     x10,x10,#0,#32
        0x0000575c:    8b0a0108    ....    ADD      x8,x8,x10
        0x00005760:    b94007e9    ..@.    LDR      w9,[sp,#4]
        0x00005764:    39000109    ...9    STRB     w9,[x8,#0]
        0x00005768:    b9400fe8    ..@.    LDR      w8,[sp,#0xc]
        0x0000576c:    11000508    ....    ADD      w8,w8,#1
        0x00005770:    b9000fe8    ....    STR      w8,[sp,#0xc]
        0x00005774:    17fffff0    ....    B        0x5734 ; itsMAPTI + 44
        0x00005778:    910043e8    .C..    ADD      x8,sp,#0x10
        0x0000577c:    321d07e9    ...2    ORR      w9,wzr,#0x18
        0x00005780:    321c03ea    ...2    ORR      w10,wzr,#0x10
        0x00005784:    321d03eb    ...2    ORR      w11,wzr,#8
        0x00005788:    32001fec    ...2    ORR      w12,wzr,#0xff
        0x0000578c:    b9400bed    ..@.    LDR      w13,[sp,#8]
        0x00005790:    3900010d    ...9    STRB     w13,[x8,#0]
        0x00005794:    b94007ee    ..@.    LDR      w14,[sp,#4]
        0x00005798:    3900050e    ...9    STRB     w14,[x8,#1]
        0x0000579c:    b9403fef    .?@.    LDR      w15,[sp,#0x3c]
        0x000057a0:    0a0f018f    ....    AND      w15,w12,w15
        0x000057a4:    3900110f    ...9    STRB     w15,[x8,#4]
        0x000057a8:    b9403fef    .?@.    LDR      w15,[sp,#0x3c]
        0x000057ac:    1acb25ef    .%..    LSR      w15,w15,w11
        0x000057b0:    0a0f018f    ....    AND      w15,w12,w15
        0x000057b4:    3900150f    ...9    STRB     w15,[x8,#5]
        0x000057b8:    b9403fef    .?@.    LDR      w15,[sp,#0x3c]
        0x000057bc:    1aca25ef    .%..    LSR      w15,w15,w10
        0x000057c0:    0a0f018f    ....    AND      w15,w12,w15
        0x000057c4:    3900190f    ...9    STRB     w15,[x8,#6]
        0x000057c8:    b9403fef    .?@.    LDR      w15,[sp,#0x3c]
        0x000057cc:    1ac925ef    .%..    LSR      w15,w15,w9
        0x000057d0:    0a0f018f    ....    AND      w15,w12,w15
        0x000057d4:    39001d0f    ...9    STRB     w15,[x8,#7]
        0x000057d8:    b9403bef    .;@.    LDR      w15,[sp,#0x38]
        0x000057dc:    0a0f018f    ....    AND      w15,w12,w15
        0x000057e0:    3900210f    .!.9    STRB     w15,[x8,#8]
        0x000057e4:    b9403bef    .;@.    LDR      w15,[sp,#0x38]
        0x000057e8:    1acb25ef    .%..    LSR      w15,w15,w11
        0x000057ec:    0a0f018f    ....    AND      w15,w12,w15
        0x000057f0:    3900250f    .%.9    STRB     w15,[x8,#9]
        0x000057f4:    b9403bef    .;@.    LDR      w15,[sp,#0x38]
        0x000057f8:    1aca25ef    .%..    LSR      w15,w15,w10
        0x000057fc:    0a0f018f    ....    AND      w15,w12,w15
        0x00005800:    3900290f    .).9    STRB     w15,[x8,#0xa]
        0x00005804:    b9403bef    .;@.    LDR      w15,[sp,#0x38]
        0x00005808:    1ac925ef    .%..    LSR      w15,w15,w9
        0x0000580c:    0a0f018f    ....    AND      w15,w12,w15
        0x00005810:    39002d0f    .-.9    STRB     w15,[x8,#0xb]
        0x00005814:    b94037ef    .7@.    LDR      w15,[sp,#0x34]
        0x00005818:    0a0f018f    ....    AND      w15,w12,w15
        0x0000581c:    3900310f    .1.9    STRB     w15,[x8,#0xc]
        0x00005820:    b94037ef    .7@.    LDR      w15,[sp,#0x34]
        0x00005824:    1acb25ef    .%..    LSR      w15,w15,w11
        0x00005828:    0a0f018f    ....    AND      w15,w12,w15
        0x0000582c:    3900350f    .5.9    STRB     w15,[x8,#0xd]
        0x00005830:    b94037ef    .7@.    LDR      w15,[sp,#0x34]
        0x00005834:    1aca25ea    .%..    LSR      w10,w15,w10
        0x00005838:    0a0a018a    ....    AND      w10,w12,w10
        0x0000583c:    3900390a    .9.9    STRB     w10,[x8,#0xe]
        0x00005840:    b94037ea    .7@.    LDR      w10,[sp,#0x34]
        0x00005844:    1ac92549    I%..    LSR      w9,w10,w9
        0x00005848:    0a090189    ....    AND      w9,w12,w9
        0x0000584c:    39003d09    .=.9    STRB     w9,[x8,#0xf]
        0x00005850:    b94033e9    .3@.    LDR      w9,[sp,#0x30]
        0x00005854:    0a090189    ....    AND      w9,w12,w9
        0x00005858:    39004109    .A.9    STRB     w9,[x8,#0x10]
        0x0000585c:    b94033e9    .3@.    LDR      w9,[sp,#0x30]
        0x00005860:    1acb2529    )%..    LSR      w9,w9,w11
        0x00005864:    0a090189    ....    AND      w9,w12,w9
        0x00005868:    39004509    .E.9    STRB     w9,[x8,#0x11]
        0x0000586c:    aa0803e0    ....    MOV      x0,x8
        0x00005870:    97fffe0e    ....    BL       itsAddCommand ; 0x50a8
        0x00005874:    f94023fe    .#@.    LDR      x30,[sp,#0x40]
        0x00005878:    910143ff    .C..    ADD      sp,sp,#0x50
        0x0000587c:    d65f03c0    .._.    RET      
    itsSYNC
        0x00005880:    d10143ff    .C..    SUB      sp,sp,#0x50
        0x00005884:    f90023fe    .#..    STR      x30,[sp,#0x40]
        0x00005888:    52800008    ...R    MOV      w8,#0
        0x0000588c:    528000a9    ...R    MOV      w9,#5
        0x00005890:    f9001fe0    ....    STR      x0,[sp,#0x38]
        0x00005894:    b90017ff    ....    STR      wzr,[sp,#0x14]
        0x00005898:    b90013e9    ....    STR      w9,[sp,#0x10]
        0x0000589c:    b9000fe8    ....    STR      w8,[sp,#0xc]
        0x000058a0:    321b03e8    ...2    ORR      w8,wzr,#0x20
        0x000058a4:    b94017e9    ..@.    LDR      w9,[sp,#0x14]
        0x000058a8:    6b08013f    ?..k    CMP      w9,w8
        0x000058ac:    1a9f27e8    .'..    CSET     w8,CC
        0x000058b0:    37000048    H..7    TBNZ     w8,#0,0x58b8 ; itsSYNC + 56
        0x000058b4:    1400000c    ....    B        0x58e4 ; itsSYNC + 100
        0x000058b8:    910063e8    .c..    ADD      x8,sp,#0x18
        0x000058bc:    b94017e9    ..@.    LDR      w9,[sp,#0x14]
        0x000058c0:    2a0903ea    ...*    MOV      w10,w9
        0x000058c4:    d3407d4a    J}@.    UBFX     x10,x10,#0,#32
        0x000058c8:    8b0a0108    ....    ADD      x8,x8,x10
        0x000058cc:    b9400fe9    ..@.    LDR      w9,[sp,#0xc]
        0x000058d0:    39000109    ...9    STRB     w9,[x8,#0]
        0x000058d4:    b94017e8    ..@.    LDR      w8,[sp,#0x14]
        0x000058d8:    11000508    ....    ADD      w8,w8,#1
        0x000058dc:    b90017e8    ....    STR      w8,[sp,#0x14]
        0x000058e0:    17fffff0    ....    B        0x58a0 ; itsSYNC + 32
        0x000058e4:    910063e8    .c..    ADD      x8,sp,#0x18
        0x000058e8:    b2401fe9    ..@.    ORR      x9,xzr,#0xff
        0x000058ec:    f9401fea    ..@.    LDR      x10,[sp,#0x38]
        0x000058f0:    d350fd4a    J.P.    LSR      x10,x10,#16
        0x000058f4:    f9001fea    ....    STR      x10,[sp,#0x38]
        0x000058f8:    b94013eb    ..@.    LDR      w11,[sp,#0x10]
        0x000058fc:    3900010b    ...9    STRB     w11,[x8,#0]
        0x00005900:    b9400fec    ..@.    LDR      w12,[sp,#0xc]
        0x00005904:    3900050c    ...9    STRB     w12,[x8,#1]
        0x00005908:    f9401fea    ..@.    LDR      x10,[sp,#0x38]
        0x0000590c:    8a0a012a    *...    AND      x10,x9,x10
        0x00005910:    2a0a03ed    ...*    MOV      w13,w10
        0x00005914:    3900490d    .I.9    STRB     w13,[x8,#0x12]
        0x00005918:    f9401fea    ..@.    LDR      x10,[sp,#0x38]
        0x0000591c:    d348fd4a    J.H.    LSR      x10,x10,#8
        0x00005920:    8a0a012a    *...    AND      x10,x9,x10
        0x00005924:    2a0a03ed    ...*    MOV      w13,w10
        0x00005928:    39004d0d    .M.9    STRB     w13,[x8,#0x13]
        0x0000592c:    f9401fea    ..@.    LDR      x10,[sp,#0x38]
        0x00005930:    d350fd4a    J.P.    LSR      x10,x10,#16
        0x00005934:    8a0a012a    *...    AND      x10,x9,x10
        0x00005938:    2a0a03ed    ...*    MOV      w13,w10
        0x0000593c:    3900510d    .Q.9    STRB     w13,[x8,#0x14]
        0x00005940:    f9401fea    ..@.    LDR      x10,[sp,#0x38]
        0x00005944:    d358fd4a    J.X.    LSR      x10,x10,#24
        0x00005948:    8a0a0129    )...    AND      x9,x9,x10
        0x0000594c:    2a0903ed    ...*    MOV      w13,w9
        0x00005950:    3900550d    .U.9    STRB     w13,[x8,#0x15]
        0x00005954:    aa0803e0    ....    MOV      x0,x8
        0x00005958:    97fffdd4    ....    BL       itsAddCommand ; 0x50a8
        0x0000595c:    f94023fe    .#@.    LDR      x30,[sp,#0x40]
        0x00005960:    910143ff    .C..    ADD      sp,sp,#0x50
        0x00005964:    d65f03c0    .._.    RET      
    main
        0x00005968:    d103c3ff    ....    SUB      sp,sp,#0xf0
        0x0000596c:    f90073fe    .s..    STR      x30,[sp,#0xe0]
        0x00005970:    52800000    ...R    MOV      w0,#0
        0x00005974:    d2b00061    a...    MOV      x1,#0x80030000
        0x00005978:    d2800008    ....    MOV      x8,#0
        0x0000597c:    32000fe9    ...2    ORR      w9,wzr,#0xf
        0x00005980:    d2b0004a    J...    MOV      x10,#0x80020000
        0x00005984:    d2a5e04b    K...    MOV      x11,#0x2f020000
        0x00005988:    d2b0008c    ....    MOV      x12,#0x80040000
        0x0000598c:    b24103ed    ..A.    ORR      x13,xzr,#0x8000000000000000
        0x00005990:    b24003e2    ..@.    ORR      x2,xzr,#1
        0x00005994:    320003ee    ...2    ORR      w14,wzr,#1
        0x00005998:    d000000f    ....    ADRP     x15,{pc}+0x2000 ; 0x7998
        0x0000599c:    913061ef    .a0.    ADD      x15,x15,#0xc18
        0x000059a0:    d0000010    ....    ADRP     x16,{pc}+0x2000 ; 0x79a0
        0x000059a4:    9131fa10    ..1.    ADD      x16,x16,#0xc7e
        0x000059a8:    d0000011    ....    ADRP     x17,{pc}+0x2000 ; 0x79a8
        0x000059ac:    91339231    1.3.    ADD      x17,x17,#0xce4
        0x000059b0:    d0000012    ....    ADRP     x18,{pc}+0x2000 ; 0x79b0
        0x000059b4:    91349652    R.4.    ADD      x18,x18,#0xd25
        0x000059b8:    f001ffc3    ....    ADRP     x3,{pc}+0x3ffb000 ; 0x40009b8
        0x000059bc:    9107c063    c...    ADD      x3,x3,#0x1f0
        0x000059c0:    d0000004    ....    ADRP     x4,{pc}+0x2000 ; 0x79c0
        0x000059c4:    91366084    .`6.    ADD      x4,x4,#0xd98
        0x000059c8:    910363e5    .c..    ADD      x5,sp,#0xd8
        0x000059cc:    910353e6    .S..    ADD      x6,sp,#0xd4
        0x000059d0:    b900dfff    ....    STR      wzr,[sp,#0xdc]
        0x000059d4:    b900cbe0    ....    STR      w0,[sp,#0xc8]
        0x000059d8:    f90063e1    .c..    STR      x1,[sp,#0xc0]
        0x000059dc:    f9005fe8    ._..    STR      x8,[sp,#0xb8]
        0x000059e0:    b900b7e9    ....    STR      w9,[sp,#0xb4]
        0x000059e4:    f90057ea    .W..    STR      x10,[sp,#0xa8]
        0x000059e8:    f90053eb    .S..    STR      x11,[sp,#0xa0]
        0x000059ec:    f9004fec    .O..    STR      x12,[sp,#0x98]
        0x000059f0:    f9004bed    .K..    STR      x13,[sp,#0x90]
        0x000059f4:    f90047e2    .G..    STR      x2,[sp,#0x88]
        0x000059f8:    b90087ee    ....    STR      w14,[sp,#0x84]
        0x000059fc:    f9003fef    .?..    STR      x15,[sp,#0x78]
        0x00005a00:    f9003bf0    .;..    STR      x16,[sp,#0x70]
        0x00005a04:    f90037f1    .7..    STR      x17,[sp,#0x68]
        0x00005a08:    f90033f2    .3..    STR      x18,[sp,#0x60]
        0x00005a0c:    f9002fe3    ./..    STR      x3,[sp,#0x58]
        0x00005a10:    f9002be4    .+..    STR      x4,[sp,#0x50]
        0x00005a14:    f90027e5    .'..    STR      x5,[sp,#0x48]
        0x00005a18:    f90023e6    .#..    STR      x6,[sp,#0x40]
        0x00005a1c:    97fffd58    X...    BL       initGIC ; 0x4f7c
        0x00005a20:    b900d3e0    ....    STR      w0,[sp,#0xd0]
        0x00005a24:    b940d3e0    ..@.    LDR      w0,[sp,#0xd0]
        0x00005a28:    f94063e1    .c@.    LDR      x1,[sp,#0xc0]
        0x00005a2c:    f9405fe2    ._@.    LDR      x2,[sp,#0xb8]
        0x00005a30:    b940b7e3    ..@.    LDR      w3,[sp,#0xb4]
        0x00005a34:    94000133    3...    BL       setLPIConfigTableAddr ; 0x5f00
        0x00005a38:    b940d3e0    ..@.    LDR      w0,[sp,#0xd0]
        0x00005a3c:    f94057e1    .W@.    LDR      x1,[sp,#0xa8]
        0x00005a40:    f9405fe2    ._@.    LDR      x2,[sp,#0xb8]
        0x00005a44:    b940b7e3    ..@.    LDR      w3,[sp,#0xb4]
        0x00005a48:    9400017d    }...    BL       setLPIPendingTableAddr ; 0x603c
        0x00005a4c:    b940d3e0    ..@.    LDR      w0,[sp,#0xd0]
        0x00005a50:    97fffc73    s...    BL       enableLPIs ; 0x4c1c
        0x00005a54:    f94053e0    .S@.    LDR      x0,[sp,#0xa0]
        0x00005a58:    940000b5    ....    BL       setITSBaseAddress ; 0x5d2c
        0x00005a5c:    f9404fe0    .O@.    LDR      x0,[sp,#0x98]
        0x00005a60:    f9404be1    .K@.    LDR      x1,[sp,#0x90]
        0x00005a64:    f94047e2    .G@.    LDR      x2,[sp,#0x88]
        0x00005a68:    97fffd5d    ]...    BL       initITSCommandQueue ; 0x4fdc
        0x00005a6c:    b940cbe0    ..@.    LDR      w0,[sp,#0xc8]
        0x00005a70:    f94027e1    .'@.    LDR      x1,[sp,#0x48]
        0x00005a74:    f94023e2    .#@.    LDR      x2,[sp,#0x40]
        0x00005a78:    97fffcc3    ....    BL       getITSTableType ; 0x4d84
        0x00005a7c:    b940dbe9    ..@.    LDR      w9,[sp,#0xd8]
        0x00005a80:    b94087ee    ..@.    LDR      w14,[sp,#0x84]
        0x00005a84:    6b0e013f    ?..k    CMP      w9,w14
        0x00005a88:    1a9f17e9    ....    CSET     w9,EQ
        0x00005a8c:    37000049    I..7    TBNZ     w9,#0,0x5a94 ; main + 300
        0x00005a90:    14000009    ....    B        0x5ab4 ; main + 332
        0x00005a94:    321c03e4    ...2    ORR      w4,wzr,#0x10
        0x00005a98:    d2b000a1    ....    MOV      x1,#0x80050000
        0x00005a9c:    b24103e2    ..A.    ORR      x2,xzr,#0x8000000000000000
        0x00005aa0:    52800008    ...R    MOV      w8,#0
        0x00005aa4:    2a0803e0    ...*    MOV      w0,w8
        0x00005aa8:    2a0803e3    ...*    MOV      w3,w8
        0x00005aac:    940000ae    ....    BL       setITSTableAddr ; 0x5d64
        0x00005ab0:    1400000a    ....    B        0x5ad8 ; main + 368
        0x00005ab4:    320003e8    ...2    ORR      w8,wzr,#1
        0x00005ab8:    b940dbe1    ..@.    LDR      w1,[sp,#0xd8]
        0x00005abc:    f9403fe0    .?@.    LDR      x0,[sp,#0x78]
        0x00005ac0:    2a0803e2    ...*    MOV      w2,w8
        0x00005ac4:    b9003fe8    .?..    STR      w8,[sp,#0x3c]
        0x00005ac8:    97ffe9f8    ....    BL       printf ; 0x2a8
        0x00005acc:    b9403fe8    .?@.    LDR      w8,[sp,#0x3c]
        0x00005ad0:    b900dfe8    ....    STR      w8,[sp,#0xdc]
        0x00005ad4:    14000068    h...    B        0x5c74 ; main + 780
        0x00005ad8:    910353e2    .S..    ADD      x2,sp,#0xd4
        0x00005adc:    910363e1    .c..    ADD      x1,sp,#0xd8
        0x00005ae0:    321e03e8    ...2    ORR      w8,wzr,#4
        0x00005ae4:    320003e0    ...2    ORR      w0,wzr,#1
        0x00005ae8:    b9003be8    .;..    STR      w8,[sp,#0x38]
        0x00005aec:    97fffca6    ....    BL       getITSTableType ; 0x4d84
        0x00005af0:    b940dbe8    ..@.    LDR      w8,[sp,#0xd8]
        0x00005af4:    b9403be9    .;@.    LDR      w9,[sp,#0x38]
        0x00005af8:    6b09011f    ...k    CMP      w8,w9
        0x00005afc:    1a9f17e8    ....    CSET     w8,EQ
        0x00005b00:    37000048    H..7    TBNZ     w8,#0,0x5b08 ; main + 416
        0x00005b04:    14000008    ....    B        0x5b24 ; main + 444
        0x00005b08:    d2b000c1    ....    MOV      x1,#0x80060000
        0x00005b0c:    321c03e4    ...2    ORR      w4,wzr,#0x10
        0x00005b10:    320003e0    ...2    ORR      w0,wzr,#1
        0x00005b14:    b24103e2    ..A.    ORR      x2,xzr,#0x8000000000000000
        0x00005b18:    52800003    ...R    MOV      w3,#0
        0x00005b1c:    94000092    ....    BL       setITSTableAddr ; 0x5d64
        0x00005b20:    1400000a    ....    B        0x5b48 ; main + 480
        0x00005b24:    321e03e2    ...2    ORR      w2,wzr,#4
        0x00005b28:    320003e8    ...2    ORR      w8,wzr,#1
        0x00005b2c:    b940dbe1    ..@.    LDR      w1,[sp,#0xd8]
        0x00005b30:    f9403be0    .;@.    LDR      x0,[sp,#0x70]
        0x00005b34:    b90037e8    .7..    STR      w8,[sp,#0x34]
        0x00005b38:    97ffe9dc    ....    BL       printf ; 0x2a8
        0x00005b3c:    b94037e8    .7@.    LDR      w8,[sp,#0x34]
        0x00005b40:    b900dfe8    ....    STR      w8,[sp,#0xdc]
        0x00005b44:    1400004c    L...    B        0x5c74 ; main + 780
        0x00005b48:    320003e8    ...2    ORR      w8,wzr,#1
        0x00005b4c:    b90033e8    .3..    STR      w8,[sp,#0x30]
        0x00005b50:    97fffc2d    -...    BL       enableITS ; 0x4c04
        0x00005b54:    97fffc82    ....    BL       getITSPTA ; 0x4d5c
        0x00005b58:    b94033e8    .3@.    LDR      w8,[sp,#0x30]
        0x00005b5c:    6b08001f    ...k    CMP      w0,w8
        0x00005b60:    1a9f17e0    ....    CSET     w0,EQ
        0x00005b64:    37000040    @..7    TBNZ     w0,#0,0x5b6c ; main + 516
        0x00005b68:    14000008    ....    B        0x5b88 ; main + 544
        0x00005b6c:    320003e8    ...2    ORR      w8,wzr,#1
        0x00005b70:    f94037e0    .7@.    LDR      x0,[sp,#0x68]
        0x00005b74:    b9002fe8    ./..    STR      w8,[sp,#0x2c]
        0x00005b78:    97ffe9cc    ....    BL       printf ; 0x2a8
        0x00005b7c:    b9402fe8    ./@.    LDR      w8,[sp,#0x2c]
        0x00005b80:    b900dfe8    ....    STR      w8,[sp,#0xdc]
        0x00005b84:    1400003c    <...    B        0x5c74 ; main + 780
        0x00005b88:    52840028    (..R    MOV      w8,#0x2001
        0x00005b8c:    321f03e2    ...2    ORR      w2,wzr,#2
        0x00005b90:    d2b000e1    ....    MOV      x1,#0x80070000
        0x00005b94:    320003e9    ...2    ORR      w9,wzr,#1
        0x00005b98:    5280000a    ...R    MOV      w10,#0
        0x00005b9c:    b940d3e0    ..@.    LDR      w0,[sp,#0xd0]
        0x00005ba0:    b9002be8    .+..    STR      w8,[sp,#0x28]
        0x00005ba4:    b90027e2    .'..    STR      w2,[sp,#0x24]
        0x00005ba8:    f9000fe1    ....    STR      x1,[sp,#0x18]
        0x00005bac:    b90017e9    ....    STR      w9,[sp,#0x14]
        0x00005bb0:    b90013ea    ....    STR      w10,[sp,#0x10]
        0x00005bb4:    97fffca7    ....    BL       getRdProcNumber ; 0x4e50
        0x00005bb8:    b900cfe0    ....    STR      w0,[sp,#0xcc]
        0x00005bbc:    b94013e0    ..@.    LDR      w0,[sp,#0x10]
        0x00005bc0:    f9400fe1    ..@.    LDR      x1,[sp,#0x18]
        0x00005bc4:    b94027e2    .'@.    LDR      w2,[sp,#0x24]
        0x00005bc8:    97fffe68    h...    BL       itsMAPD ; 0x5568
        0x00005bcc:    b94013e0    ..@.    LDR      w0,[sp,#0x10]
        0x00005bd0:    b94013e1    ..@.    LDR      w1,[sp,#0x10]
        0x00005bd4:    b9402be2    .+@.    LDR      w2,[sp,#0x28]
        0x00005bd8:    b94013e3    ..@.    LDR      w3,[sp,#0x10]
        0x00005bdc:    97fffecb    ....    BL       itsMAPTI ; 0x5708
        0x00005be0:    b940cfe8    ..@.    LDR      w8,[sp,#0xcc]
        0x00005be4:    2a0803eb    ...*    MOV      w11,w8
        0x00005be8:    d3407d60    `}@.    UBFX     x0,x11,#0,#32
        0x00005bec:    b94013e1    ..@.    LDR      w1,[sp,#0x10]
        0x00005bf0:    97fffe16    ....    BL       itsMAPC ; 0x5448
        0x00005bf4:    b940cfe8    ..@.    LDR      w8,[sp,#0xcc]
        0x00005bf8:    2a0803eb    ...*    MOV      w11,w8
        0x00005bfc:    d3407d60    `}@.    UBFX     x0,x11,#0,#32
        0x00005c00:    97ffff20     ...    BL       itsSYNC ; 0x5880
        0x00005c04:    b940d3e0    ..@.    LDR      w0,[sp,#0xd0]
        0x00005c08:    b9402be1    .+@.    LDR      w1,[sp,#0x28]
        0x00005c0c:    b94017e2    ..@.    LDR      w2,[sp,#0x14]
        0x00005c10:    b94013e3    ..@.    LDR      w3,[sp,#0x10]
        0x00005c14:    97fffbb1    ....    BL       configureLPI ; 0x4ad8
        0x00005c18:    f94033e0    .3@.    LDR      x0,[sp,#0x60]
        0x00005c1c:    97ffe9a3    ....    BL       printf ; 0x2a8
        0x00005c20:    b94013e8    ..@.    LDR      w8,[sp,#0x10]
        0x00005c24:    2a0803e0    ...*    MOV      w0,w8
        0x00005c28:    2a0803e1    ...*    MOV      w1,w8
        0x00005c2c:    97fffdc1    ....    BL       itsINV ; 0x5330
        0x00005c30:    b94013e0    ..@.    LDR      w0,[sp,#0x10]
        0x00005c34:    b94013e1    ..@.    LDR      w1,[sp,#0x10]
        0x00005c38:    97fffd78    x...    BL       itsINT ; 0x5218
        0x00005c3c:    320003e8    ...2    ORR      w8,wzr,#1
        0x00005c40:    f9402fe9    ./@.    LDR      x9,[sp,#0x58]
        0x00005c44:    b940012a    *.@.    LDR      w10,[x9,#0]
        0x00005c48:    6b08015f    _..k    CMP      w10,w8
        0x00005c4c:    1a9f27e8    .'..    CSET     w8,CC
        0x00005c50:    37000048    H..7    TBNZ     w8,#0,0x5c58 ; main + 752
        0x00005c54:    14000002    ....    B        0x5c5c ; main + 756
        0x00005c58:    17fffff9    ....    B        0x5c3c ; main + 724
        0x00005c5c:    320003e8    ...2    ORR      w8,wzr,#1
        0x00005c60:    f9402be0    .+@.    LDR      x0,[sp,#0x50]
        0x00005c64:    b9000fe8    ....    STR      w8,[sp,#0xc]
        0x00005c68:    97ffe990    ....    BL       printf ; 0x2a8
        0x00005c6c:    b9400fe8    ..@.    LDR      w8,[sp,#0xc]
        0x00005c70:    b900dfe8    ....    STR      w8,[sp,#0xdc]
        0x00005c74:    b940dfe0    ..@.    LDR      w0,[sp,#0xdc]
        0x00005c78:    f94073fe    .s@.    LDR      x30,[sp,#0xe0]
        0x00005c7c:    9103c3ff    ....    ADD      sp,sp,#0xf0
        0x00005c80:    d65f03c0    .._.    RET      
    setGICAddr
        0x00005c84:    d100c3ff    ....    SUB      sp,sp,#0x30
        0x00005c88:    f001ffc8    ....    ADRP     x8,{pc}+0x3ffb000 ; 0x4000c88
        0x00005c8c:    9107e108    ....    ADD      x8,x8,#0x1f8
        0x00005c90:    f001ffc9    ....    ADRP     x9,{pc}+0x3ffb000 ; 0x4000c90
        0x00005c94:    91086129    )a..    ADD      x9,x9,#0x218
        0x00005c98:    320003ea    ...2    ORR      w10,wzr,#1
        0x00005c9c:    f001ffcb    ....    ADRP     x11,{pc}+0x3ffb000 ; 0x4000c9c
        0x00005ca0:    9107d16b    k...    ADD      x11,x11,#0x1f4
        0x00005ca4:    f001ffcc    ....    ADRP     x12,{pc}+0x3ffb000 ; 0x4000ca4
        0x00005ca8:    9108418c    .A..    ADD      x12,x12,#0x210
        0x00005cac:    f90017e0    ....    STR      x0,[sp,#0x28]
        0x00005cb0:    f90013e1    ....    STR      x1,[sp,#0x20]
        0x00005cb4:    b9001fff    ....    STR      wzr,[sp,#0x1c]
        0x00005cb8:    f94017e0    ..@.    LDR      x0,[sp,#0x28]
        0x00005cbc:    f9000100    ....    STR      x0,[x8,#0]
        0x00005cc0:    f94013e8    ..@.    LDR      x8,[sp,#0x20]
        0x00005cc4:    f9000128    (...    STR      x8,[x9,#0]
        0x00005cc8:    b900016a    j...    STR      w10,[x11,#0]
        0x00005ccc:    f9000bec    ....    STR      x12,[sp,#0x10]
        0x00005cd0:    f90007e9    ....    STR      x9,[sp,#8]
        0x00005cd4:    b9401fe8    ..@.    LDR      w8,[sp,#0x1c]
        0x00005cd8:    11000508    ....    ADD      w8,w8,#1
        0x00005cdc:    b9001fe8    ....    STR      w8,[sp,#0x1c]
        0x00005ce0:    321c03e8    ...2    ORR      w8,wzr,#0x10
        0x00005ce4:    b27d03e9    ..}.    ORR      x9,xzr,#8
        0x00005ce8:    b26f03ea    ..o.    ORR      x10,xzr,#0x20000
        0x00005cec:    f94007eb    ..@.    LDR      x11,[sp,#8]
        0x00005cf0:    f940016c    l.@.    LDR      x12,[x11,#0]
        0x00005cf4:    b9401fed    ..@.    LDR      w13,[sp,#0x1c]
        0x00005cf8:    2a0d03ee    ...*    MOV      w14,w13
        0x00005cfc:    d3407dce    .}@.    UBFX     x14,x14,#0,#32
        0x00005d00:    9b0e7d4a    J}..    MUL      x10,x10,x14
        0x00005d04:    8b0a018a    ....    ADD      x10,x12,x10
        0x00005d08:    8b090149    I...    ADD      x9,x10,x9
        0x00005d0c:    b940012d    -.@.    LDR      w13,[x9,#0]
        0x00005d10:    0a0801a8    ....    AND      w8,w13,w8
        0x00005d14:    34fffe08    ...4    CBZ      w8,0x5cd4 ; setGICAddr + 80
        0x00005d18:    b9401fe8    ..@.    LDR      w8,[sp,#0x1c]
        0x00005d1c:    f9400be9    ..@.    LDR      x9,[sp,#0x10]
        0x00005d20:    b9000128    (...    STR      w8,[x9,#0]
        0x00005d24:    9100c3ff    ....    ADD      sp,sp,#0x30
        0x00005d28:    d65f03c0    .._.    RET      
    setITSBaseAddress
        0x00005d2c:    d10043ff    .C..    SUB      sp,sp,#0x10
        0x00005d30:    f001ffc8    ....    ADRP     x8,{pc}+0x3ffb000 ; 0x4000d30
        0x00005d34:    91080108    ....    ADD      x8,x8,#0x200
        0x00005d38:    b27003e9    ..p.    ORR      x9,xzr,#0x10000
        0x00005d3c:    f001ffca    ....    ADRP     x10,{pc}+0x3ffb000 ; 0x4000d3c
        0x00005d40:    9108214a    J!..    ADD      x10,x10,#0x208
        0x00005d44:    f90007e0    ....    STR      x0,[sp,#8]
        0x00005d48:    f94007e0    ..@.    LDR      x0,[sp,#8]
        0x00005d4c:    f9000100    ....    STR      x0,[x8,#0]
        0x00005d50:    f94007e8    ..@.    LDR      x8,[sp,#8]
        0x00005d54:    8b090108    ....    ADD      x8,x8,x9
        0x00005d58:    f9000148    H...    STR      x8,[x10,#0]
        0x00005d5c:    910043ff    .C..    ADD      sp,sp,#0x10
        0x00005d60:    d65f03c0    .._.    RET      
    setITSTableAddr
        0x00005d64:    d10103ff    ....    SUB      sp,sp,#0x40
        0x00005d68:    f9001bfe    ....    STR      x30,[sp,#0x30]
        0x00005d6c:    32000be8    ...2    ORR      w8,wzr,#7
        0x00005d70:    f001ffc9    ....    ADRP     x9,{pc}+0x3ffb000 ; 0x4000d70
        0x00005d74:    91080129    )...    ADD      x9,x9,#0x200
        0x00005d78:    b9002fe0    ./..    STR      w0,[sp,#0x2c]
        0x00005d7c:    f90013e1    ....    STR      x1,[sp,#0x20]
        0x00005d80:    f9000fe2    ....    STR      x2,[sp,#0x18]
        0x00005d84:    b90017e3    ....    STR      w3,[sp,#0x14]
        0x00005d88:    b90013e4    ....    STR      w4,[sp,#0x10]
        0x00005d8c:    b9402fe0    ./@.    LDR      w0,[sp,#0x2c]
        0x00005d90:    6b08001f    ...k    CMP      w0,w8
        0x00005d94:    1a9f97e8    ....    CSET     w8,HI
        0x00005d98:    f90003e9    ....    STR      x9,[sp,#0]
        0x00005d9c:    37000088    ...7    TBNZ     w8,#0,0x5dac ; setITSTableAddr + 72
        0x00005da0:    b94013e8    ..@.    LDR      w8,[sp,#0x10]
        0x00005da4:    34000048    H..4    CBZ      w8,0x5dac ; setITSTableAddr + 72
        0x00005da8:    14000002    ....    B        0x5db0 ; setITSTableAddr + 76
        0x00005dac:    14000052    R...    B        0x5ef4 ; setITSTableAddr + 400
        0x00005db0:    b27d03e8    ..}.    ORR      x8,xzr,#8
        0x00005db4:    b27803e9    ..x.    ORR      x9,xzr,#0x100
        0x00005db8:    d281800a    ....    MOV      x10,#0xc00
        0x00005dbc:    f2ff000a    ....    MOVK     x10,#0xf800,LSL #48
        0x00005dc0:    b2748feb    ..t.    MOV      x11,#0xfffffffff000
        0x00005dc4:    321807ec    ...2    ORR      w12,wzr,#0x300
        0x00005dc8:    32001fed    ...2    ORR      w13,wzr,#0xff
        0x00005dcc:    b94013ee    ..@.    LDR      w14,[sp,#0x10]
        0x00005dd0:    710005ce    ...q    SUBS     w14,w14,#1
        0x00005dd4:    0a0d01cd    ....    AND      w13,w14,w13
        0x00005dd8:    2a0d03ef    ...*    MOV      w15,w13
        0x00005ddc:    d3407def    .}@.    UBFX     x15,x15,#0,#32
        0x00005de0:    f90007ef    ....    STR      x15,[sp,#8]
        0x00005de4:    f94007ef    ..@.    LDR      x15,[sp,#8]
        0x00005de8:    b94017ed    ..@.    LDR      w13,[sp,#0x14]
        0x00005dec:    0a0c01ac    ....    AND      w12,w13,w12
        0x00005df0:    2a0c03f0    ...*    MOV      w16,w12
        0x00005df4:    d3407e10    .~@.    UBFX     x16,x16,#0,#32
        0x00005df8:    aa1001ef    ....    ORR      x15,x15,x16
        0x00005dfc:    f90007ef    ....    STR      x15,[sp,#8]
        0x00005e00:    f94007ef    ..@.    LDR      x15,[sp,#8]
        0x00005e04:    f94013f0    ..@.    LDR      x16,[sp,#0x20]
        0x00005e08:    8a0b020b    ....    AND      x11,x16,x11
        0x00005e0c:    aa0b01eb    ....    ORR      x11,x15,x11
        0x00005e10:    f90007eb    ....    STR      x11,[sp,#8]
        0x00005e14:    f94007eb    ..@.    LDR      x11,[sp,#8]
        0x00005e18:    f9400fef    ..@.    LDR      x15,[sp,#0x18]
        0x00005e1c:    8a0a01ea    ....    AND      x10,x15,x10
        0x00005e20:    aa0a016a    j...    ORR      x10,x11,x10
        0x00005e24:    f90007ea    ....    STR      x10,[sp,#8]
        0x00005e28:    f94007ea    ..@.    LDR      x10,[sp,#8]
        0x00005e2c:    f94003eb    ..@.    LDR      x11,[sp,#0]
        0x00005e30:    f940016f    o.@.    LDR      x15,[x11,#0]
        0x00005e34:    8b0901e9    ....    ADD      x9,x15,x9
        0x00005e38:    b9402fec    ./@.    LDR      w12,[sp,#0x2c]
        0x00005e3c:    2a0c03ef    ...*    MOV      w15,w12
        0x00005e40:    d3407def    .}@.    UBFX     x15,x15,#0,#32
        0x00005e44:    9b0f7d08    .}..    MUL      x8,x8,x15
        0x00005e48:    8b080128    (...    ADD      x8,x9,x8
        0x00005e4c:    f900010a    ....    STR      x10,[x8,#0]
        0x00005e50:    b94017ec    ..@.    LDR      w12,[sp,#0x14]
        0x00005e54:    3400004c    L..4    CBZ      w12,0x5e5c ; setITSTableAddr + 248
        0x00005e58:    14000008    ....    B        0x5e78 ; setITSTableAddr + 276
        0x00005e5c:    321403e8    ...2    ORR      w8,wzr,#0x1000
        0x00005e60:    b94013e9    ..@.    LDR      w9,[sp,#0x10]
        0x00005e64:    1b097d08    .}..    MUL      w8,w8,w9
        0x00005e68:    2a0803ea    ...*    MOV      w10,w8
        0x00005e6c:    d3407d4a    J}@.    UBFX     x10,x10,#0,#32
        0x00005e70:    f90007ea    ....    STR      x10,[sp,#8]
        0x00005e74:    1400001a    ....    B        0x5edc ; setITSTableAddr + 376
        0x00005e78:    320003e8    ...2    ORR      w8,wzr,#1
        0x00005e7c:    b94017e9    ..@.    LDR      w9,[sp,#0x14]
        0x00005e80:    6b08013f    ?..k    CMP      w9,w8
        0x00005e84:    1a9f17e8    ....    CSET     w8,EQ
        0x00005e88:    37000048    H..7    TBNZ     w8,#0,0x5e90 ; setITSTableAddr + 300
        0x00005e8c:    14000008    ....    B        0x5eac ; setITSTableAddr + 328
        0x00005e90:    321203e8    ...2    ORR      w8,wzr,#0x4000
        0x00005e94:    b94013e9    ..@.    LDR      w9,[sp,#0x10]
        0x00005e98:    1b097d08    .}..    MUL      w8,w8,w9
        0x00005e9c:    2a0803ea    ...*    MOV      w10,w8
        0x00005ea0:    d3407d4a    J}@.    UBFX     x10,x10,#0,#32
        0x00005ea4:    f90007ea    ....    STR      x10,[sp,#8]
        0x00005ea8:    1400000d    ....    B        0x5edc ; setITSTableAddr + 376
        0x00005eac:    321f03e8    ...2    ORR      w8,wzr,#2
        0x00005eb0:    b94017e9    ..@.    LDR      w9,[sp,#0x14]
        0x00005eb4:    6b08013f    ?..k    CMP      w9,w8
        0x00005eb8:    1a9f17e8    ....    CSET     w8,EQ
        0x00005ebc:    37000048    H..7    TBNZ     w8,#0,0x5ec4 ; setITSTableAddr + 352
        0x00005ec0:    14000007    ....    B        0x5edc ; setITSTableAddr + 376
        0x00005ec4:    321003e8    ...2    ORR      w8,wzr,#0x10000
        0x00005ec8:    b94013e9    ..@.    LDR      w9,[sp,#0x10]
        0x00005ecc:    1b097d08    .}..    MUL      w8,w8,w9
        0x00005ed0:    2a0803ea    ...*    MOV      w10,w8
        0x00005ed4:    d3407d4a    J}@.    UBFX     x10,x10,#0,#32
        0x00005ed8:    f90007ea    ....    STR      x10,[sp,#8]
        0x00005edc:    52800008    ...R    MOV      w8,#0
        0x00005ee0:    f94013e9    ..@.    LDR      x9,[sp,#0x20]
        0x00005ee4:    f94007e2    ..@.    LDR      x2,[sp,#8]
        0x00005ee8:    aa0903e0    ....    MOV      x0,x9
        0x00005eec:    2a0803e1    ...*    MOV      w1,w8
        0x00005ef0:    97ffe916    ....    BL       memset ; 0x348
        0x00005ef4:    f9401bfe    ..@.    LDR      x30,[sp,#0x30]
        0x00005ef8:    910103ff    ....    ADD      sp,sp,#0x40
        0x00005efc:    d65f03c0    .._.    RET      
    setLPIConfigTableAddr
        0x00005f00:    d10183ff    ....    SUB      sp,sp,#0x60
        0x00005f04:    f9002bfe    .+..    STR      x30,[sp,#0x50]
        0x00005f08:    321f0be8    ...2    ORR      w8,wzr,#0xe
        0x00005f0c:    f001ffc9    ....    ADRP     x9,{pc}+0x3ffb000 ; 0x4000f0c
        0x00005f10:    91086129    )a..    ADD      x9,x9,#0x218
        0x00005f14:    b9004fe0    .O..    STR      w0,[sp,#0x4c]
        0x00005f18:    f90023e1    .#..    STR      x1,[sp,#0x40]
        0x00005f1c:    f9001fe2    ....    STR      x2,[sp,#0x38]
        0x00005f20:    b90037e3    .7..    STR      w3,[sp,#0x34]
        0x00005f24:    f90017ff    ....    STR      xzr,[sp,#0x28]
        0x00005f28:    b94037e0    .7@.    LDR      w0,[sp,#0x34]
        0x00005f2c:    6b08001f    ...k    CMP      w0,w8
        0x00005f30:    1a9f27e8    .'..    CSET     w8,CC
        0x00005f34:    f90013e9    ....    STR      x9,[sp,#0x20]
        0x00005f38:    370000e8    ...7    TBNZ     w8,#0,0x5f54 ; setLPIConfigTableAddr + 84
        0x00005f3c:    321b03e8    ...2    ORR      w8,wzr,#0x20
        0x00005f40:    b94037e9    .7@.    LDR      w9,[sp,#0x34]
        0x00005f44:    6b08013f    ?..k    CMP      w9,w8
        0x00005f48:    1a9f97e8    ....    CSET     w8,HI
        0x00005f4c:    37000048    H..7    TBNZ     w8,#0,0x5f54 ; setLPIConfigTableAddr + 84
        0x00005f50:    14000002    ....    B        0x5f58 ; setLPIConfigTableAddr + 88
        0x00005f54:    14000037    7...    B        0x6030 ; setLPIConfigTableAddr + 304
        0x00005f58:    b26f03e8    ..o.    ORR      x8,xzr,#0x20000
        0x00005f5c:    320013e9    ...2    ORR      w9,wzr,#0x1f
        0x00005f60:    d281f00a    ....    MOV      x10,#0xf80
        0x00005f64:    f2e0e00a    ....    MOVK     x10,#0x700,LSL #48
        0x00005f68:    b2748feb    ..t.    MOV      x11,#0xfffffffff000
        0x00005f6c:    5280000c    ...R    MOV      w12,#0
        0x00005f70:    320003ed    ...2    ORR      w13,wzr,#1
        0x00005f74:    b94037ee    .7@.    LDR      w14,[sp,#0x34]
        0x00005f78:    1ace21ad    .!..    LSL      w13,w13,w14
        0x00005f7c:    714009ad    ..@q    SUBS     w13,w13,#2,LSL #12
        0x00005f80:    2a0d03ef    ...*    MOV      w15,w13
        0x00005f84:    93407def    .}@.    SXTW     x15,w15
        0x00005f88:    f90017ef    ....    STR      x15,[sp,#0x28]
        0x00005f8c:    b94037ed    .7@.    LDR      w13,[sp,#0x34]
        0x00005f90:    710005ad    ...q    SUBS     w13,w13,#1
        0x00005f94:    b90037ed    .7..    STR      w13,[sp,#0x34]
        0x00005f98:    f94023ef    .#@.    LDR      x15,[sp,#0x40]
        0x00005f9c:    f94017e2    ..@.    LDR      x2,[sp,#0x28]
        0x00005fa0:    aa0f03e0    ....    MOV      x0,x15
        0x00005fa4:    2a0c03e1    ...*    MOV      w1,w12
        0x00005fa8:    f9000fe8    ....    STR      x8,[sp,#0x18]
        0x00005fac:    b90017e9    ....    STR      w9,[sp,#0x14]
        0x00005fb0:    f90007ea    ....    STR      x10,[sp,#8]
        0x00005fb4:    f90003eb    ....    STR      x11,[sp,#0]
        0x00005fb8:    97ffe8e4    ....    BL       memset ; 0x348
        0x00005fbc:    97fffac5    ....    BL       __dsb ; 0x4ad0
        0x00005fc0:    f94023e8    .#@.    LDR      x8,[sp,#0x40]
        0x00005fc4:    f94003ea    ..@.    LDR      x10,[sp,#0]
        0x00005fc8:    8a0a0108    ....    AND      x8,x8,x10
        0x00005fcc:    f90023e8    .#..    STR      x8,[sp,#0x40]
        0x00005fd0:    f94023e8    .#@.    LDR      x8,[sp,#0x40]
        0x00005fd4:    f9401feb    ..@.    LDR      x11,[sp,#0x38]
        0x00005fd8:    f94007ef    ..@.    LDR      x15,[sp,#8]
        0x00005fdc:    8a0f016b    k...    AND      x11,x11,x15
        0x00005fe0:    aa0b0108    ....    ORR      x8,x8,x11
        0x00005fe4:    f90017e8    ....    STR      x8,[sp,#0x28]
        0x00005fe8:    f94017e8    ..@.    LDR      x8,[sp,#0x28]
        0x00005fec:    b94037e9    .7@.    LDR      w9,[sp,#0x34]
        0x00005ff0:    b94017ec    ..@.    LDR      w12,[sp,#0x14]
        0x00005ff4:    0a0c0129    )...    AND      w9,w9,w12
        0x00005ff8:    2a0903eb    ...*    MOV      w11,w9
        0x00005ffc:    d3407d6b    k}@.    UBFX     x11,x11,#0,#32
        0x00006000:    aa0b0108    ....    ORR      x8,x8,x11
        0x00006004:    f90017e8    ....    STR      x8,[sp,#0x28]
        0x00006008:    f94017e8    ..@.    LDR      x8,[sp,#0x28]
        0x0000600c:    f94013eb    ..@.    LDR      x11,[sp,#0x20]
        0x00006010:    f9400160    `.@.    LDR      x0,[x11,#0]
        0x00006014:    b9404fe9    .O@.    LDR      w9,[sp,#0x4c]
        0x00006018:    2a0903e2    ...*    MOV      w2,w9
        0x0000601c:    d3407c42    B|@.    UBFX     x2,x2,#0,#32
        0x00006020:    f9400ff0    ..@.    LDR      x16,[sp,#0x18]
        0x00006024:    9b027e02    .~..    MUL      x2,x16,x2
        0x00006028:    8b020000    ....    ADD      x0,x0,x2
        0x0000602c:    f9003808    .8..    STR      x8,[x0,#0x70]
        0x00006030:    f9402bfe    .+@.    LDR      x30,[sp,#0x50]
        0x00006034:    910183ff    ....    ADD      sp,sp,#0x60
        0x00006038:    d65f03c0    .._.    RET      
    setLPIPendingTableAddr
        0x0000603c:    d10183ff    ....    SUB      sp,sp,#0x60
        0x00006040:    f9002bfe    .+..    STR      x30,[sp,#0x50]
        0x00006044:    321f0be8    ...2    ORR      w8,wzr,#0xe
        0x00006048:    d001ffc9    ....    ADRP     x9,{pc}+0x3ffa000 ; 0x4000048
        0x0000604c:    91086129    )a..    ADD      x9,x9,#0x218
        0x00006050:    b9004fe0    .O..    STR      w0,[sp,#0x4c]
        0x00006054:    f90023e1    .#..    STR      x1,[sp,#0x40]
        0x00006058:    f9001fe2    ....    STR      x2,[sp,#0x38]
        0x0000605c:    b90037e3    .7..    STR      w3,[sp,#0x34]
        0x00006060:    f90017ff    ....    STR      xzr,[sp,#0x28]
        0x00006064:    b94037e0    .7@.    LDR      w0,[sp,#0x34]
        0x00006068:    6b08001f    ...k    CMP      w0,w8
        0x0000606c:    1a9f27e8    .'..    CSET     w8,CC
        0x00006070:    f90013e9    ....    STR      x9,[sp,#0x20]
        0x00006074:    370000e8    ...7    TBNZ     w8,#0,0x6090 ; setLPIPendingTableAddr + 84
        0x00006078:    321b03e8    ...2    ORR      w8,wzr,#0x20
        0x0000607c:    b94037e9    .7@.    LDR      w9,[sp,#0x34]
        0x00006080:    6b08013f    ?..k    CMP      w9,w8
        0x00006084:    1a9f97e8    ....    CSET     w8,HI
        0x00006088:    37000048    H..7    TBNZ     w8,#0,0x6090 ; setLPIPendingTableAddr + 84
        0x0000608c:    14000002    ....    B        0x6094 ; setLPIPendingTableAddr + 88
        0x00006090:    14000029    )...    B        0x6134 ; setLPIPendingTableAddr + 248
        0x00006094:    b26f03e8    ..o.    ORR      x8,xzr,#0x20000
        0x00006098:    d281f009    ....    MOV      x9,#0xf80
        0x0000609c:    f2e0e009    ....    MOVK     x9,#0x700,LSL #48
        0x000060a0:    b2707fea    ..p.    MOV      x10,#0xffffffff0000
        0x000060a4:    5280000b    ...R    MOV      w11,#0
        0x000060a8:    320003ec    ...2    ORR      w12,wzr,#1
        0x000060ac:    b94037ed    .7@.    LDR      w13,[sp,#0x34]
        0x000060b0:    1acd218c    .!..    LSL      w12,w12,w13
        0x000060b4:    2a0c03ee    ...*    MOV      w14,w12
        0x000060b8:    93407dce    .}@.    SXTW     x14,w14
        0x000060bc:    f90017ee    ....    STR      x14,[sp,#0x28]
        0x000060c0:    f94023ee    .#@.    LDR      x14,[sp,#0x40]
        0x000060c4:    f94017e2    ..@.    LDR      x2,[sp,#0x28]
        0x000060c8:    aa0e03e0    ....    MOV      x0,x14
        0x000060cc:    2a0b03e1    ...*    MOV      w1,w11
        0x000060d0:    f9000fe8    ....    STR      x8,[sp,#0x18]
        0x000060d4:    f9000be9    ....    STR      x9,[sp,#0x10]
        0x000060d8:    f90007ea    ....    STR      x10,[sp,#8]
        0x000060dc:    97ffe89b    ....    BL       memset ; 0x348
        0x000060e0:    97fffa7c    |...    BL       __dsb ; 0x4ad0
        0x000060e4:    f94023e8    .#@.    LDR      x8,[sp,#0x40]
        0x000060e8:    f94007e9    ..@.    LDR      x9,[sp,#8]
        0x000060ec:    8a090108    ....    AND      x8,x8,x9
        0x000060f0:    f90023e8    .#..    STR      x8,[sp,#0x40]
        0x000060f4:    f94023e8    .#@.    LDR      x8,[sp,#0x40]
        0x000060f8:    f9401fea    ..@.    LDR      x10,[sp,#0x38]
        0x000060fc:    f9400bee    ..@.    LDR      x14,[sp,#0x10]
        0x00006100:    8a0e014a    J...    AND      x10,x10,x14
        0x00006104:    aa0a0108    ....    ORR      x8,x8,x10
        0x00006108:    f90017e8    ....    STR      x8,[sp,#0x28]
        0x0000610c:    f94017e8    ..@.    LDR      x8,[sp,#0x28]
        0x00006110:    f94013ea    ..@.    LDR      x10,[sp,#0x20]
        0x00006114:    f9400140    @.@.    LDR      x0,[x10,#0]
        0x00006118:    b9404feb    .O@.    LDR      w11,[sp,#0x4c]
        0x0000611c:    2a0b03e2    ...*    MOV      w2,w11
        0x00006120:    d3407c42    B|@.    UBFX     x2,x2,#0,#32
        0x00006124:    f9400fef    ..@.    LDR      x15,[sp,#0x18]
        0x00006128:    9b027de2    .}..    MUL      x2,x15,x2
        0x0000612c:    8b020000    ....    ADD      x0,x0,x2
        0x00006130:    f9003c08    .<..    STR      x8,[x0,#0x78]
        0x00006134:    f9402bfe    .+@.    LDR      x30,[sp,#0x50]
        0x00006138:    910183ff    ....    ADD      sp,sp,#0x60
        0x0000613c:    d65f03c0    .._.    RET      
    wakeUpRedist
        0x00006140:    d10083ff    ....    SUB      sp,sp,#0x20
        0x00006144:    d001ffc8    ....    ADRP     x8,{pc}+0x3ffa000 ; 0x4000144
        0x00006148:    9107d108    ....    ADD      x8,x8,#0x1f4
        0x0000614c:    d001ffc9    ....    ADRP     x9,{pc}+0x3ffa000 ; 0x400014c
        0x00006150:    91086129    )a..    ADD      x9,x9,#0x218
        0x00006154:    b9001be0    ....    STR      w0,[sp,#0x18]
        0x00006158:    b9400100    ..@.    LDR      w0,[x8,#0]
        0x0000615c:    f90007e9    ....    STR      x9,[sp,#8]
        0x00006160:    34000040    @..4    CBZ      w0,0x6168 ; wakeUpRedist + 40
        0x00006164:    14000004    ....    B        0x6174 ; wakeUpRedist + 52
        0x00006168:    320003e8    ...2    ORR      w8,wzr,#1
        0x0000616c:    b9001fe8    ....    STR      w8,[sp,#0x1c]
        0x00006170:    14000026    &...    B        0x6208 ; wakeUpRedist + 200
        0x00006174:    321e7be8    .{.2    ORR      w8,wzr,#0xfffffffd
        0x00006178:    b26f03e9    ..o.    ORR      x9,xzr,#0x20000
        0x0000617c:    f94007ea    ..@.    LDR      x10,[sp,#8]
        0x00006180:    f940014b    K.@.    LDR      x11,[x10,#0]
        0x00006184:    b9401bec    ..@.    LDR      w12,[sp,#0x18]
        0x00006188:    2a0c03ed    ...*    MOV      w13,w12
        0x0000618c:    d3407dad    .}@.    UBFX     x13,x13,#0,#32
        0x00006190:    9b0d7d2d    -}..    MUL      x13,x9,x13
        0x00006194:    8b0d016b    k...    ADD      x11,x11,x13
        0x00006198:    b940156c    l.@.    LDR      w12,[x11,#0x14]
        0x0000619c:    b90017ec    ....    STR      w12,[sp,#0x14]
        0x000061a0:    b94017ec    ..@.    LDR      w12,[sp,#0x14]
        0x000061a4:    0a080188    ....    AND      w8,w12,w8
        0x000061a8:    b90017e8    ....    STR      w8,[sp,#0x14]
        0x000061ac:    b94017e8    ..@.    LDR      w8,[sp,#0x14]
        0x000061b0:    f940014b    K.@.    LDR      x11,[x10,#0]
        0x000061b4:    b9401bec    ..@.    LDR      w12,[sp,#0x18]
        0x000061b8:    2a0c03ed    ...*    MOV      w13,w12
        0x000061bc:    d3407dad    .}@.    UBFX     x13,x13,#0,#32
        0x000061c0:    9b0d7d29    )}..    MUL      x9,x9,x13
        0x000061c4:    8b090169    i...    ADD      x9,x11,x9
        0x000061c8:    b9001528    (...    STR      w8,[x9,#0x14]
        0x000061cc:    b26f03e8    ..o.    ORR      x8,xzr,#0x20000
        0x000061d0:    f94007e9    ..@.    LDR      x9,[sp,#8]
        0x000061d4:    f940012a    *.@.    LDR      x10,[x9,#0]
        0x000061d8:    b9401beb    ..@.    LDR      w11,[sp,#0x18]
        0x000061dc:    2a0b03ec    ...*    MOV      w12,w11
        0x000061e0:    d3407d8c    .}@.    UBFX     x12,x12,#0,#32
        0x000061e4:    9b0c7d08    .}..    MUL      x8,x8,x12
        0x000061e8:    8b080148    H...    ADD      x8,x10,x8
        0x000061ec:    b940150b    ..@.    LDR      w11,[x8,#0x14]
        0x000061f0:    b90017eb    ....    STR      w11,[sp,#0x14]
        0x000061f4:    321e03e8    ...2    ORR      w8,wzr,#4
        0x000061f8:    b94017e9    ..@.    LDR      w9,[sp,#0x14]
        0x000061fc:    0a080128    (...    AND      w8,w9,w8
        0x00006200:    35fffe68    h..5    CBNZ     w8,0x61cc ; wakeUpRedist + 140
        0x00006204:    b9001fff    ....    STR      wzr,[sp,#0x1c]
        0x00006208:    b9401fe0    ..@.    LDR      w0,[sp,#0x1c]
        0x0000620c:    910083ff    ....    ADD      sp,sp,#0x20
        0x00006210:    d65f03c0    .._.    RET      
        0x00006214:    00000000    ....    DCI      0x00000000 ; ? Undefined
        0x00006218:    00000000    ....    DCI      0x00000000 ; ? Undefined
        0x0000621c:    00000000    ....    DCI      0x00000000 ; ? Undefined
        0x00006220:    00000000    ....    DCI      0x00000000 ; ? Undefined
        0x00006224:    00000000    ....    DCI      0x00000000 ; ? Undefined
        0x00006228:    00000000    ....    DCI      0x00000000 ; ? Undefined
        0x0000622c:    00000000    ....    DCI      0x00000000 ; ? Undefined
        0x00006230:    00000000    ....    DCI      0x00000000 ; ? Undefined
        0x00006234:    00000000    ....    DCI      0x00000000 ; ? Undefined
        0x00006238:    00000000    ....    DCI      0x00000000 ; ? Undefined
        0x0000623c:    00000000    ....    DCI      0x00000000 ; ? Undefined
        0x00006240:    00000000    ....    DCI      0x00000000 ; ? Undefined
        0x00006244:    00000000    ....    DCI      0x00000000 ; ? Undefined
        0x00006248:    00000000    ....    DCI      0x00000000 ; ? Undefined
        0x0000624c:    00000000    ....    DCI      0x00000000 ; ? Undefined
        0x00006250:    00000000    ....    DCI      0x00000000 ; ? Undefined
        0x00006254:    00000000    ....    DCI      0x00000000 ; ? Undefined
        0x00006258:    00000000    ....    DCI      0x00000000 ; ? Undefined
        0x0000625c:    00000000    ....    DCI      0x00000000 ; ? Undefined
        0x00006260:    00000000    ....    DCI      0x00000000 ; ? Undefined
        0x00006264:    00000000    ....    DCI      0x00000000 ; ? Undefined
        0x00006268:    00000000    ....    DCI      0x00000000 ; ? Undefined
        0x0000626c:    00000000    ....    DCI      0x00000000 ; ? Undefined
        0x00006270:    00000000    ....    DCI      0x00000000 ; ? Undefined
        0x00006274:    00000000    ....    DCI      0x00000000 ; ? Undefined
        0x00006278:    00000000    ....    DCI      0x00000000 ; ? Undefined
        0x0000627c:    00000000    ....    DCI      0x00000000 ; ? Undefined
        0x00006280:    00000000    ....    DCI      0x00000000 ; ? Undefined
        0x00006284:    00000000    ....    DCI      0x00000000 ; ? Undefined
        0x00006288:    00000000    ....    DCI      0x00000000 ; ? Undefined
        0x0000628c:    00000000    ....    DCI      0x00000000 ; ? Undefined
        0x00006290:    00000000    ....    DCI      0x00000000 ; ? Undefined
        0x00006294:    00000000    ....    DCI      0x00000000 ; ? Undefined
        0x00006298:    00000000    ....    DCI      0x00000000 ; ? Undefined
        0x0000629c:    00000000    ....    DCI      0x00000000 ; ? Undefined
        0x000062a0:    00000000    ....    DCI      0x00000000 ; ? Undefined
        0x000062a4:    00000000    ....    DCI      0x00000000 ; ? Undefined
        0x000062a8:    00000000    ....    DCI      0x00000000 ; ? Undefined
        0x000062ac:    00000000    ....    DCI      0x00000000 ; ? Undefined
        0x000062b0:    00000000    ....    DCI      0x00000000 ; ? Undefined
        0x000062b4:    00000000    ....    DCI      0x00000000 ; ? Undefined
        0x000062b8:    00000000    ....    DCI      0x00000000 ; ? Undefined
        0x000062bc:    00000000    ....    DCI      0x00000000 ; ? Undefined
        0x000062c0:    00000000    ....    DCI      0x00000000 ; ? Undefined
        0x000062c4:    00000000    ....    DCI      0x00000000 ; ? Undefined
        0x000062c8:    00000000    ....    DCI      0x00000000 ; ? Undefined
        0x000062cc:    00000000    ....    DCI      0x00000000 ; ? Undefined
        0x000062d0:    00000000    ....    DCI      0x00000000 ; ? Undefined
        0x000062d4:    00000000    ....    DCI      0x00000000 ; ? Undefined
        0x000062d8:    00000000    ....    DCI      0x00000000 ; ? Undefined
        0x000062dc:    00000000    ....    DCI      0x00000000 ; ? Undefined
        0x000062e0:    00000000    ....    DCI      0x00000000 ; ? Undefined
        0x000062e4:    00000000    ....    DCI      0x00000000 ; ? Undefined
        0x000062e8:    00000000    ....    DCI      0x00000000 ; ? Undefined
        0x000062ec:    00000000    ....    DCI      0x00000000 ; ? Undefined
        0x000062f0:    00000000    ....    DCI      0x00000000 ; ? Undefined
        0x000062f4:    00000000    ....    DCI      0x00000000 ; ? Undefined
        0x000062f8:    00000000    ....    DCI      0x00000000 ; ? Undefined
        0x000062fc:    00000000    ....    DCI      0x00000000 ; ? Undefined
        0x00006300:    00000000    ....    DCI      0x00000000 ; ? Undefined
        0x00006304:    00000000    ....    DCI      0x00000000 ; ? Undefined
        0x00006308:    00000000    ....    DCI      0x00000000 ; ? Undefined
        0x0000630c:    00000000    ....    DCI      0x00000000 ; ? Undefined
        0x00006310:    00000000    ....    DCI      0x00000000 ; ? Undefined
        0x00006314:    00000000    ....    DCI      0x00000000 ; ? Undefined
        0x00006318:    00000000    ....    DCI      0x00000000 ; ? Undefined
        0x0000631c:    00000000    ....    DCI      0x00000000 ; ? Undefined
        0x00006320:    00000000    ....    DCI      0x00000000 ; ? Undefined
        0x00006324:    00000000    ....    DCI      0x00000000 ; ? Undefined
        0x00006328:    00000000    ....    DCI      0x00000000 ; ? Undefined
        0x0000632c:    00000000    ....    DCI      0x00000000 ; ? Undefined
        0x00006330:    00000000    ....    DCI      0x00000000 ; ? Undefined
        0x00006334:    00000000    ....    DCI      0x00000000 ; ? Undefined
        0x00006338:    00000000    ....    DCI      0x00000000 ; ? Undefined
        0x0000633c:    00000000    ....    DCI      0x00000000 ; ? Undefined
        0x00006340:    00000000    ....    DCI      0x00000000 ; ? Undefined
        0x00006344:    00000000    ....    DCI      0x00000000 ; ? Undefined
        0x00006348:    00000000    ....    DCI      0x00000000 ; ? Undefined
        0x0000634c:    00000000    ....    DCI      0x00000000 ; ? Undefined
        0x00006350:    00000000    ....    DCI      0x00000000 ; ? Undefined
        0x00006354:    00000000    ....    DCI      0x00000000 ; ? Undefined
        0x00006358:    00000000    ....    DCI      0x00000000 ; ? Undefined
        0x0000635c:    00000000    ....    DCI      0x00000000 ; ? Undefined
        0x00006360:    00000000    ....    DCI      0x00000000 ; ? Undefined
        0x00006364:    00000000    ....    DCI      0x00000000 ; ? Undefined
        0x00006368:    00000000    ....    DCI      0x00000000 ; ? Undefined
        0x0000636c:    00000000    ....    DCI      0x00000000 ; ? Undefined
        0x00006370:    00000000    ....    DCI      0x00000000 ; ? Undefined
        0x00006374:    00000000    ....    DCI      0x00000000 ; ? Undefined
        0x00006378:    00000000    ....    DCI      0x00000000 ; ? Undefined
        0x0000637c:    00000000    ....    DCI      0x00000000 ; ? Undefined
        0x00006380:    00000000    ....    DCI      0x00000000 ; ? Undefined
        0x00006384:    00000000    ....    DCI      0x00000000 ; ? Undefined
        0x00006388:    00000000    ....    DCI      0x00000000 ; ? Undefined
        0x0000638c:    00000000    ....    DCI      0x00000000 ; ? Undefined
        0x00006390:    00000000    ....    DCI      0x00000000 ; ? Undefined
        0x00006394:    00000000    ....    DCI      0x00000000 ; ? Undefined
        0x00006398:    00000000    ....    DCI      0x00000000 ; ? Undefined
        0x0000639c:    00000000    ....    DCI      0x00000000 ; ? Undefined
        0x000063a0:    00000000    ....    DCI      0x00000000 ; ? Undefined
        0x000063a4:    00000000    ....    DCI      0x00000000 ; ? Undefined
        0x000063a8:    00000000    ....    DCI      0x00000000 ; ? Undefined
        0x000063ac:    00000000    ....    DCI      0x00000000 ; ? Undefined
        0x000063b0:    00000000    ....    DCI      0x00000000 ; ? Undefined
        0x000063b4:    00000000    ....    DCI      0x00000000 ; ? Undefined
        0x000063b8:    00000000    ....    DCI      0x00000000 ; ? Undefined
        0x000063bc:    00000000    ....    DCI      0x00000000 ; ? Undefined
        0x000063c0:    00000000    ....    DCI      0x00000000 ; ? Undefined
        0x000063c4:    00000000    ....    DCI      0x00000000 ; ? Undefined
        0x000063c8:    00000000    ....    DCI      0x00000000 ; ? Undefined
        0x000063cc:    00000000    ....    DCI      0x00000000 ; ? Undefined
        0x000063d0:    00000000    ....    DCI      0x00000000 ; ? Undefined
        0x000063d4:    00000000    ....    DCI      0x00000000 ; ? Undefined
        0x000063d8:    00000000    ....    DCI      0x00000000 ; ? Undefined
        0x000063dc:    00000000    ....    DCI      0x00000000 ; ? Undefined
        0x000063e0:    00000000    ....    DCI      0x00000000 ; ? Undefined
        0x000063e4:    00000000    ....    DCI      0x00000000 ; ? Undefined
        0x000063e8:    00000000    ....    DCI      0x00000000 ; ? Undefined
        0x000063ec:    00000000    ....    DCI      0x00000000 ; ? Undefined
        0x000063f0:    00000000    ....    DCI      0x00000000 ; ? Undefined
        0x000063f4:    00000000    ....    DCI      0x00000000 ; ? Undefined
        0x000063f8:    00000000    ....    DCI      0x00000000 ; ? Undefined
        0x000063fc:    00000000    ....    DCI      0x00000000 ; ? Undefined
        0x00006400:    00000000    ....    DCI      0x00000000 ; ? Undefined
        0x00006404:    00000000    ....    DCI      0x00000000 ; ? Undefined
        0x00006408:    00000000    ....    DCI      0x00000000 ; ? Undefined
        0x0000640c:    00000000    ....    DCI      0x00000000 ; ? Undefined
        0x00006410:    00000000    ....    DCI      0x00000000 ; ? Undefined
        0x00006414:    00000000    ....    DCI      0x00000000 ; ? Undefined
        0x00006418:    00000000    ....    DCI      0x00000000 ; ? Undefined
        0x0000641c:    00000000    ....    DCI      0x00000000 ; ? Undefined
        0x00006420:    00000000    ....    DCI      0x00000000 ; ? Undefined
        0x00006424:    00000000    ....    DCI      0x00000000 ; ? Undefined
        0x00006428:    00000000    ....    DCI      0x00000000 ; ? Undefined
        0x0000642c:    00000000    ....    DCI      0x00000000 ; ? Undefined
        0x00006430:    00000000    ....    DCI      0x00000000 ; ? Undefined
        0x00006434:    00000000    ....    DCI      0x00000000 ; ? Undefined
        0x00006438:    00000000    ....    DCI      0x00000000 ; ? Undefined
        0x0000643c:    00000000    ....    DCI      0x00000000 ; ? Undefined
        0x00006440:    00000000    ....    DCI      0x00000000 ; ? Undefined
        0x00006444:    00000000    ....    DCI      0x00000000 ; ? Undefined
        0x00006448:    00000000    ....    DCI      0x00000000 ; ? Undefined
        0x0000644c:    00000000    ....    DCI      0x00000000 ; ? Undefined
        0x00006450:    00000000    ....    DCI      0x00000000 ; ? Undefined
        0x00006454:    00000000    ....    DCI      0x00000000 ; ? Undefined
        0x00006458:    00000000    ....    DCI      0x00000000 ; ? Undefined
        0x0000645c:    00000000    ....    DCI      0x00000000 ; ? Undefined
        0x00006460:    00000000    ....    DCI      0x00000000 ; ? Undefined
        0x00006464:    00000000    ....    DCI      0x00000000 ; ? Undefined
        0x00006468:    00000000    ....    DCI      0x00000000 ; ? Undefined
        0x0000646c:    00000000    ....    DCI      0x00000000 ; ? Undefined
        0x00006470:    00000000    ....    DCI      0x00000000 ; ? Undefined
        0x00006474:    00000000    ....    DCI      0x00000000 ; ? Undefined
        0x00006478:    00000000    ....    DCI      0x00000000 ; ? Undefined
        0x0000647c:    00000000    ....    DCI      0x00000000 ; ? Undefined
        0x00006480:    00000000    ....    DCI      0x00000000 ; ? Undefined
        0x00006484:    00000000    ....    DCI      0x00000000 ; ? Undefined
        0x00006488:    00000000    ....    DCI      0x00000000 ; ? Undefined
        0x0000648c:    00000000    ....    DCI      0x00000000 ; ? Undefined
        0x00006490:    00000000    ....    DCI      0x00000000 ; ? Undefined
        0x00006494:    00000000    ....    DCI      0x00000000 ; ? Undefined
        0x00006498:    00000000    ....    DCI      0x00000000 ; ? Undefined
        0x0000649c:    00000000    ....    DCI      0x00000000 ; ? Undefined
        0x000064a0:    00000000    ....    DCI      0x00000000 ; ? Undefined
        0x000064a4:    00000000    ....    DCI      0x00000000 ; ? Undefined
        0x000064a8:    00000000    ....    DCI      0x00000000 ; ? Undefined
        0x000064ac:    00000000    ....    DCI      0x00000000 ; ? Undefined
        0x000064b0:    00000000    ....    DCI      0x00000000 ; ? Undefined
        0x000064b4:    00000000    ....    DCI      0x00000000 ; ? Undefined
        0x000064b8:    00000000    ....    DCI      0x00000000 ; ? Undefined
        0x000064bc:    00000000    ....    DCI      0x00000000 ; ? Undefined
        0x000064c0:    00000000    ....    DCI      0x00000000 ; ? Undefined
        0x000064c4:    00000000    ....    DCI      0x00000000 ; ? Undefined
        0x000064c8:    00000000    ....    DCI      0x00000000 ; ? Undefined
        0x000064cc:    00000000    ....    DCI      0x00000000 ; ? Undefined
        0x000064d0:    00000000    ....    DCI      0x00000000 ; ? Undefined
        0x000064d4:    00000000    ....    DCI      0x00000000 ; ? Undefined
        0x000064d8:    00000000    ....    DCI      0x00000000 ; ? Undefined
        0x000064dc:    00000000    ....    DCI      0x00000000 ; ? Undefined
        0x000064e0:    00000000    ....    DCI      0x00000000 ; ? Undefined
        0x000064e4:    00000000    ....    DCI      0x00000000 ; ? Undefined
        0x000064e8:    00000000    ....    DCI      0x00000000 ; ? Undefined
        0x000064ec:    00000000    ....    DCI      0x00000000 ; ? Undefined
        0x000064f0:    00000000    ....    DCI      0x00000000 ; ? Undefined
        0x000064f4:    00000000    ....    DCI      0x00000000 ; ? Undefined
        0x000064f8:    00000000    ....    DCI      0x00000000 ; ? Undefined
        0x000064fc:    00000000    ....    DCI      0x00000000 ; ? Undefined
        0x00006500:    00000000    ....    DCI      0x00000000 ; ? Undefined
        0x00006504:    00000000    ....    DCI      0x00000000 ; ? Undefined
        0x00006508:    00000000    ....    DCI      0x00000000 ; ? Undefined
        0x0000650c:    00000000    ....    DCI      0x00000000 ; ? Undefined
        0x00006510:    00000000    ....    DCI      0x00000000 ; ? Undefined
        0x00006514:    00000000    ....    DCI      0x00000000 ; ? Undefined
        0x00006518:    00000000    ....    DCI      0x00000000 ; ? Undefined
        0x0000651c:    00000000    ....    DCI      0x00000000 ; ? Undefined
        0x00006520:    00000000    ....    DCI      0x00000000 ; ? Undefined
        0x00006524:    00000000    ....    DCI      0x00000000 ; ? Undefined
        0x00006528:    00000000    ....    DCI      0x00000000 ; ? Undefined
        0x0000652c:    00000000    ....    DCI      0x00000000 ; ? Undefined
        0x00006530:    00000000    ....    DCI      0x00000000 ; ? Undefined
        0x00006534:    00000000    ....    DCI      0x00000000 ; ? Undefined
        0x00006538:    00000000    ....    DCI      0x00000000 ; ? Undefined
        0x0000653c:    00000000    ....    DCI      0x00000000 ; ? Undefined
        0x00006540:    00000000    ....    DCI      0x00000000 ; ? Undefined
        0x00006544:    00000000    ....    DCI      0x00000000 ; ? Undefined
        0x00006548:    00000000    ....    DCI      0x00000000 ; ? Undefined
        0x0000654c:    00000000    ....    DCI      0x00000000 ; ? Undefined
        0x00006550:    00000000    ....    DCI      0x00000000 ; ? Undefined
        0x00006554:    00000000    ....    DCI      0x00000000 ; ? Undefined
        0x00006558:    00000000    ....    DCI      0x00000000 ; ? Undefined
        0x0000655c:    00000000    ....    DCI      0x00000000 ; ? Undefined
        0x00006560:    00000000    ....    DCI      0x00000000 ; ? Undefined
        0x00006564:    00000000    ....    DCI      0x00000000 ; ? Undefined
        0x00006568:    00000000    ....    DCI      0x00000000 ; ? Undefined
        0x0000656c:    00000000    ....    DCI      0x00000000 ; ? Undefined
        0x00006570:    00000000    ....    DCI      0x00000000 ; ? Undefined
        0x00006574:    00000000    ....    DCI      0x00000000 ; ? Undefined
        0x00006578:    00000000    ....    DCI      0x00000000 ; ? Undefined
        0x0000657c:    00000000    ....    DCI      0x00000000 ; ? Undefined
        0x00006580:    00000000    ....    DCI      0x00000000 ; ? Undefined
        0x00006584:    00000000    ....    DCI      0x00000000 ; ? Undefined
        0x00006588:    00000000    ....    DCI      0x00000000 ; ? Undefined
        0x0000658c:    00000000    ....    DCI      0x00000000 ; ? Undefined
        0x00006590:    00000000    ....    DCI      0x00000000 ; ? Undefined
        0x00006594:    00000000    ....    DCI      0x00000000 ; ? Undefined
        0x00006598:    00000000    ....    DCI      0x00000000 ; ? Undefined
        0x0000659c:    00000000    ....    DCI      0x00000000 ; ? Undefined
        0x000065a0:    00000000    ....    DCI      0x00000000 ; ? Undefined
        0x000065a4:    00000000    ....    DCI      0x00000000 ; ? Undefined
        0x000065a8:    00000000    ....    DCI      0x00000000 ; ? Undefined
        0x000065ac:    00000000    ....    DCI      0x00000000 ; ? Undefined
        0x000065b0:    00000000    ....    DCI      0x00000000 ; ? Undefined
        0x000065b4:    00000000    ....    DCI      0x00000000 ; ? Undefined
        0x000065b8:    00000000    ....    DCI      0x00000000 ; ? Undefined
        0x000065bc:    00000000    ....    DCI      0x00000000 ; ? Undefined
        0x000065c0:    00000000    ....    DCI      0x00000000 ; ? Undefined
        0x000065c4:    00000000    ....    DCI      0x00000000 ; ? Undefined
        0x000065c8:    00000000    ....    DCI      0x00000000 ; ? Undefined
        0x000065cc:    00000000    ....    DCI      0x00000000 ; ? Undefined
        0x000065d0:    00000000    ....    DCI      0x00000000 ; ? Undefined
        0x000065d4:    00000000    ....    DCI      0x00000000 ; ? Undefined
        0x000065d8:    00000000    ....    DCI      0x00000000 ; ? Undefined
        0x000065dc:    00000000    ....    DCI      0x00000000 ; ? Undefined
        0x000065e0:    00000000    ....    DCI      0x00000000 ; ? Undefined
        0x000065e4:    00000000    ....    DCI      0x00000000 ; ? Undefined
        0x000065e8:    00000000    ....    DCI      0x00000000 ; ? Undefined
        0x000065ec:    00000000    ....    DCI      0x00000000 ; ? Undefined
        0x000065f0:    00000000    ....    DCI      0x00000000 ; ? Undefined
        0x000065f4:    00000000    ....    DCI      0x00000000 ; ? Undefined
        0x000065f8:    00000000    ....    DCI      0x00000000 ; ? Undefined
        0x000065fc:    00000000    ....    DCI      0x00000000 ; ? Undefined
        0x00006600:    00000000    ....    DCI      0x00000000 ; ? Undefined
        0x00006604:    00000000    ....    DCI      0x00000000 ; ? Undefined
        0x00006608:    00000000    ....    DCI      0x00000000 ; ? Undefined
        0x0000660c:    00000000    ....    DCI      0x00000000 ; ? Undefined
        0x00006610:    00000000    ....    DCI      0x00000000 ; ? Undefined
        0x00006614:    00000000    ....    DCI      0x00000000 ; ? Undefined
        0x00006618:    00000000    ....    DCI      0x00000000 ; ? Undefined
        0x0000661c:    00000000    ....    DCI      0x00000000 ; ? Undefined
        0x00006620:    00000000    ....    DCI      0x00000000 ; ? Undefined
        0x00006624:    00000000    ....    DCI      0x00000000 ; ? Undefined
        0x00006628:    00000000    ....    DCI      0x00000000 ; ? Undefined
        0x0000662c:    00000000    ....    DCI      0x00000000 ; ? Undefined
        0x00006630:    00000000    ....    DCI      0x00000000 ; ? Undefined
        0x00006634:    00000000    ....    DCI      0x00000000 ; ? Undefined
        0x00006638:    00000000    ....    DCI      0x00000000 ; ? Undefined
        0x0000663c:    00000000    ....    DCI      0x00000000 ; ? Undefined
        0x00006640:    00000000    ....    DCI      0x00000000 ; ? Undefined
        0x00006644:    00000000    ....    DCI      0x00000000 ; ? Undefined
        0x00006648:    00000000    ....    DCI      0x00000000 ; ? Undefined
        0x0000664c:    00000000    ....    DCI      0x00000000 ; ? Undefined
        0x00006650:    00000000    ....    DCI      0x00000000 ; ? Undefined
        0x00006654:    00000000    ....    DCI      0x00000000 ; ? Undefined
        0x00006658:    00000000    ....    DCI      0x00000000 ; ? Undefined
        0x0000665c:    00000000    ....    DCI      0x00000000 ; ? Undefined
        0x00006660:    00000000    ....    DCI      0x00000000 ; ? Undefined
        0x00006664:    00000000    ....    DCI      0x00000000 ; ? Undefined
        0x00006668:    00000000    ....    DCI      0x00000000 ; ? Undefined
        0x0000666c:    00000000    ....    DCI      0x00000000 ; ? Undefined
        0x00006670:    00000000    ....    DCI      0x00000000 ; ? Undefined
        0x00006674:    00000000    ....    DCI      0x00000000 ; ? Undefined
        0x00006678:    00000000    ....    DCI      0x00000000 ; ? Undefined
        0x0000667c:    00000000    ....    DCI      0x00000000 ; ? Undefined
        0x00006680:    00000000    ....    DCI      0x00000000 ; ? Undefined
        0x00006684:    00000000    ....    DCI      0x00000000 ; ? Undefined
        0x00006688:    00000000    ....    DCI      0x00000000 ; ? Undefined
        0x0000668c:    00000000    ....    DCI      0x00000000 ; ? Undefined
        0x00006690:    00000000    ....    DCI      0x00000000 ; ? Undefined
        0x00006694:    00000000    ....    DCI      0x00000000 ; ? Undefined
        0x00006698:    00000000    ....    DCI      0x00000000 ; ? Undefined
        0x0000669c:    00000000    ....    DCI      0x00000000 ; ? Undefined
        0x000066a0:    00000000    ....    DCI      0x00000000 ; ? Undefined
        0x000066a4:    00000000    ....    DCI      0x00000000 ; ? Undefined
        0x000066a8:    00000000    ....    DCI      0x00000000 ; ? Undefined
        0x000066ac:    00000000    ....    DCI      0x00000000 ; ? Undefined
        0x000066b0:    00000000    ....    DCI      0x00000000 ; ? Undefined
        0x000066b4:    00000000    ....    DCI      0x00000000 ; ? Undefined
        0x000066b8:    00000000    ....    DCI      0x00000000 ; ? Undefined
        0x000066bc:    00000000    ....    DCI      0x00000000 ; ? Undefined
        0x000066c0:    00000000    ....    DCI      0x00000000 ; ? Undefined
        0x000066c4:    00000000    ....    DCI      0x00000000 ; ? Undefined
        0x000066c8:    00000000    ....    DCI      0x00000000 ; ? Undefined
        0x000066cc:    00000000    ....    DCI      0x00000000 ; ? Undefined
        0x000066d0:    00000000    ....    DCI      0x00000000 ; ? Undefined
        0x000066d4:    00000000    ....    DCI      0x00000000 ; ? Undefined
        0x000066d8:    00000000    ....    DCI      0x00000000 ; ? Undefined
        0x000066dc:    00000000    ....    DCI      0x00000000 ; ? Undefined
        0x000066e0:    00000000    ....    DCI      0x00000000 ; ? Undefined
        0x000066e4:    00000000    ....    DCI      0x00000000 ; ? Undefined
        0x000066e8:    00000000    ....    DCI      0x00000000 ; ? Undefined
        0x000066ec:    00000000    ....    DCI      0x00000000 ; ? Undefined
        0x000066f0:    00000000    ....    DCI      0x00000000 ; ? Undefined
        0x000066f4:    00000000    ....    DCI      0x00000000 ; ? Undefined
        0x000066f8:    00000000    ....    DCI      0x00000000 ; ? Undefined
        0x000066fc:    00000000    ....    DCI      0x00000000 ; ? Undefined
        0x00006700:    00000000    ....    DCI      0x00000000 ; ? Undefined
        0x00006704:    00000000    ....    DCI      0x00000000 ; ? Undefined
        0x00006708:    00000000    ....    DCI      0x00000000 ; ? Undefined
        0x0000670c:    00000000    ....    DCI      0x00000000 ; ? Undefined
        0x00006710:    00000000    ....    DCI      0x00000000 ; ? Undefined
        0x00006714:    00000000    ....    DCI      0x00000000 ; ? Undefined
        0x00006718:    00000000    ....    DCI      0x00000000 ; ? Undefined
        0x0000671c:    00000000    ....    DCI      0x00000000 ; ? Undefined
        0x00006720:    00000000    ....    DCI      0x00000000 ; ? Undefined
        0x00006724:    00000000    ....    DCI      0x00000000 ; ? Undefined
        0x00006728:    00000000    ....    DCI      0x00000000 ; ? Undefined
        0x0000672c:    00000000    ....    DCI      0x00000000 ; ? Undefined
        0x00006730:    00000000    ....    DCI      0x00000000 ; ? Undefined
        0x00006734:    00000000    ....    DCI      0x00000000 ; ? Undefined
        0x00006738:    00000000    ....    DCI      0x00000000 ; ? Undefined
        0x0000673c:    00000000    ....    DCI      0x00000000 ; ? Undefined
        0x00006740:    00000000    ....    DCI      0x00000000 ; ? Undefined
        0x00006744:    00000000    ....    DCI      0x00000000 ; ? Undefined
        0x00006748:    00000000    ....    DCI      0x00000000 ; ? Undefined
        0x0000674c:    00000000    ....    DCI      0x00000000 ; ? Undefined
        0x00006750:    00000000    ....    DCI      0x00000000 ; ? Undefined
        0x00006754:    00000000    ....    DCI      0x00000000 ; ? Undefined
        0x00006758:    00000000    ....    DCI      0x00000000 ; ? Undefined
        0x0000675c:    00000000    ....    DCI      0x00000000 ; ? Undefined
        0x00006760:    00000000    ....    DCI      0x00000000 ; ? Undefined
        0x00006764:    00000000    ....    DCI      0x00000000 ; ? Undefined
        0x00006768:    00000000    ....    DCI      0x00000000 ; ? Undefined
        0x0000676c:    00000000    ....    DCI      0x00000000 ; ? Undefined
        0x00006770:    00000000    ....    DCI      0x00000000 ; ? Undefined
        0x00006774:    00000000    ....    DCI      0x00000000 ; ? Undefined
        0x00006778:    00000000    ....    DCI      0x00000000 ; ? Undefined
        0x0000677c:    00000000    ....    DCI      0x00000000 ; ? Undefined
        0x00006780:    00000000    ....    DCI      0x00000000 ; ? Undefined
        0x00006784:    00000000    ....    DCI      0x00000000 ; ? Undefined
        0x00006788:    00000000    ....    DCI      0x00000000 ; ? Undefined
        0x0000678c:    00000000    ....    DCI      0x00000000 ; ? Undefined
        0x00006790:    00000000    ....    DCI      0x00000000 ; ? Undefined
        0x00006794:    00000000    ....    DCI      0x00000000 ; ? Undefined
        0x00006798:    00000000    ....    DCI      0x00000000 ; ? Undefined
        0x0000679c:    00000000    ....    DCI      0x00000000 ; ? Undefined
        0x000067a0:    00000000    ....    DCI      0x00000000 ; ? Undefined
        0x000067a4:    00000000    ....    DCI      0x00000000 ; ? Undefined
        0x000067a8:    00000000    ....    DCI      0x00000000 ; ? Undefined
        0x000067ac:    00000000    ....    DCI      0x00000000 ; ? Undefined
        0x000067b0:    00000000    ....    DCI      0x00000000 ; ? Undefined
        0x000067b4:    00000000    ....    DCI      0x00000000 ; ? Undefined
        0x000067b8:    00000000    ....    DCI      0x00000000 ; ? Undefined
        0x000067bc:    00000000    ....    DCI      0x00000000 ; ? Undefined
        0x000067c0:    00000000    ....    DCI      0x00000000 ; ? Undefined
        0x000067c4:    00000000    ....    DCI      0x00000000 ; ? Undefined
        0x000067c8:    00000000    ....    DCI      0x00000000 ; ? Undefined
        0x000067cc:    00000000    ....    DCI      0x00000000 ; ? Undefined
        0x000067d0:    00000000    ....    DCI      0x00000000 ; ? Undefined
        0x000067d4:    00000000    ....    DCI      0x00000000 ; ? Undefined
        0x000067d8:    00000000    ....    DCI      0x00000000 ; ? Undefined
        0x000067dc:    00000000    ....    DCI      0x00000000 ; ? Undefined
        0x000067e0:    00000000    ....    DCI      0x00000000 ; ? Undefined
        0x000067e4:    00000000    ....    DCI      0x00000000 ; ? Undefined
        0x000067e8:    00000000    ....    DCI      0x00000000 ; ? Undefined
        0x000067ec:    00000000    ....    DCI      0x00000000 ; ? Undefined
        0x000067f0:    00000000    ....    DCI      0x00000000 ; ? Undefined
        0x000067f4:    00000000    ....    DCI      0x00000000 ; ? Undefined
        0x000067f8:    00000000    ....    DCI      0x00000000 ; ? Undefined
        0x000067fc:    00000000    ....    DCI      0x00000000 ; ? Undefined
        0x00006800:    00000000    ....    DCI      0x00000000 ; ? Undefined
        0x00006804:    00000000    ....    DCI      0x00000000 ; ? Undefined
        0x00006808:    00000000    ....    DCI      0x00000000 ; ? Undefined
        0x0000680c:    00000000    ....    DCI      0x00000000 ; ? Undefined
        0x00006810:    00000000    ....    DCI      0x00000000 ; ? Undefined
        0x00006814:    00000000    ....    DCI      0x00000000 ; ? Undefined
        0x00006818:    00000000    ....    DCI      0x00000000 ; ? Undefined
        0x0000681c:    00000000    ....    DCI      0x00000000 ; ? Undefined
        0x00006820:    00000000    ....    DCI      0x00000000 ; ? Undefined
        0x00006824:    00000000    ....    DCI      0x00000000 ; ? Undefined
        0x00006828:    00000000    ....    DCI      0x00000000 ; ? Undefined
        0x0000682c:    00000000    ....    DCI      0x00000000 ; ? Undefined
        0x00006830:    00000000    ....    DCI      0x00000000 ; ? Undefined
        0x00006834:    00000000    ....    DCI      0x00000000 ; ? Undefined
        0x00006838:    00000000    ....    DCI      0x00000000 ; ? Undefined
        0x0000683c:    00000000    ....    DCI      0x00000000 ; ? Undefined
        0x00006840:    00000000    ....    DCI      0x00000000 ; ? Undefined
        0x00006844:    00000000    ....    DCI      0x00000000 ; ? Undefined
        0x00006848:    00000000    ....    DCI      0x00000000 ; ? Undefined
        0x0000684c:    00000000    ....    DCI      0x00000000 ; ? Undefined
        0x00006850:    00000000    ....    DCI      0x00000000 ; ? Undefined
        0x00006854:    00000000    ....    DCI      0x00000000 ; ? Undefined
        0x00006858:    00000000    ....    DCI      0x00000000 ; ? Undefined
        0x0000685c:    00000000    ....    DCI      0x00000000 ; ? Undefined
        0x00006860:    00000000    ....    DCI      0x00000000 ; ? Undefined
        0x00006864:    00000000    ....    DCI      0x00000000 ; ? Undefined
        0x00006868:    00000000    ....    DCI      0x00000000 ; ? Undefined
        0x0000686c:    00000000    ....    DCI      0x00000000 ; ? Undefined
        0x00006870:    00000000    ....    DCI      0x00000000 ; ? Undefined
        0x00006874:    00000000    ....    DCI      0x00000000 ; ? Undefined
        0x00006878:    00000000    ....    DCI      0x00000000 ; ? Undefined
        0x0000687c:    00000000    ....    DCI      0x00000000 ; ? Undefined
        0x00006880:    00000000    ....    DCI      0x00000000 ; ? Undefined
        0x00006884:    00000000    ....    DCI      0x00000000 ; ? Undefined
        0x00006888:    00000000    ....    DCI      0x00000000 ; ? Undefined
        0x0000688c:    00000000    ....    DCI      0x00000000 ; ? Undefined
        0x00006890:    00000000    ....    DCI      0x00000000 ; ? Undefined
        0x00006894:    00000000    ....    DCI      0x00000000 ; ? Undefined
        0x00006898:    00000000    ....    DCI      0x00000000 ; ? Undefined
        0x0000689c:    00000000    ....    DCI      0x00000000 ; ? Undefined
        0x000068a0:    00000000    ....    DCI      0x00000000 ; ? Undefined
        0x000068a4:    00000000    ....    DCI      0x00000000 ; ? Undefined
        0x000068a8:    00000000    ....    DCI      0x00000000 ; ? Undefined
        0x000068ac:    00000000    ....    DCI      0x00000000 ; ? Undefined
        0x000068b0:    00000000    ....    DCI      0x00000000 ; ? Undefined
        0x000068b4:    00000000    ....    DCI      0x00000000 ; ? Undefined
        0x000068b8:    00000000    ....    DCI      0x00000000 ; ? Undefined
        0x000068bc:    00000000    ....    DCI      0x00000000 ; ? Undefined
        0x000068c0:    00000000    ....    DCI      0x00000000 ; ? Undefined
        0x000068c4:    00000000    ....    DCI      0x00000000 ; ? Undefined
        0x000068c8:    00000000    ....    DCI      0x00000000 ; ? Undefined
        0x000068cc:    00000000    ....    DCI      0x00000000 ; ? Undefined
        0x000068d0:    00000000    ....    DCI      0x00000000 ; ? Undefined
        0x000068d4:    00000000    ....    DCI      0x00000000 ; ? Undefined
        0x000068d8:    00000000    ....    DCI      0x00000000 ; ? Undefined
        0x000068dc:    00000000    ....    DCI      0x00000000 ; ? Undefined
        0x000068e0:    00000000    ....    DCI      0x00000000 ; ? Undefined
        0x000068e4:    00000000    ....    DCI      0x00000000 ; ? Undefined
        0x000068e8:    00000000    ....    DCI      0x00000000 ; ? Undefined
        0x000068ec:    00000000    ....    DCI      0x00000000 ; ? Undefined
        0x000068f0:    00000000    ....    DCI      0x00000000 ; ? Undefined
        0x000068f4:    00000000    ....    DCI      0x00000000 ; ? Undefined
        0x000068f8:    00000000    ....    DCI      0x00000000 ; ? Undefined
        0x000068fc:    00000000    ....    DCI      0x00000000 ; ? Undefined
        0x00006900:    00000000    ....    DCI      0x00000000 ; ? Undefined
        0x00006904:    00000000    ....    DCI      0x00000000 ; ? Undefined
        0x00006908:    00000000    ....    DCI      0x00000000 ; ? Undefined
        0x0000690c:    00000000    ....    DCI      0x00000000 ; ? Undefined
        0x00006910:    00000000    ....    DCI      0x00000000 ; ? Undefined
        0x00006914:    00000000    ....    DCI      0x00000000 ; ? Undefined
        0x00006918:    00000000    ....    DCI      0x00000000 ; ? Undefined
        0x0000691c:    00000000    ....    DCI      0x00000000 ; ? Undefined
        0x00006920:    00000000    ....    DCI      0x00000000 ; ? Undefined
        0x00006924:    00000000    ....    DCI      0x00000000 ; ? Undefined
        0x00006928:    00000000    ....    DCI      0x00000000 ; ? Undefined
        0x0000692c:    00000000    ....    DCI      0x00000000 ; ? Undefined
        0x00006930:    00000000    ....    DCI      0x00000000 ; ? Undefined
        0x00006934:    00000000    ....    DCI      0x00000000 ; ? Undefined
        0x00006938:    00000000    ....    DCI      0x00000000 ; ? Undefined
        0x0000693c:    00000000    ....    DCI      0x00000000 ; ? Undefined
        0x00006940:    00000000    ....    DCI      0x00000000 ; ? Undefined
        0x00006944:    00000000    ....    DCI      0x00000000 ; ? Undefined
        0x00006948:    00000000    ....    DCI      0x00000000 ; ? Undefined
        0x0000694c:    00000000    ....    DCI      0x00000000 ; ? Undefined
        0x00006950:    00000000    ....    DCI      0x00000000 ; ? Undefined
        0x00006954:    00000000    ....    DCI      0x00000000 ; ? Undefined
        0x00006958:    00000000    ....    DCI      0x00000000 ; ? Undefined
        0x0000695c:    00000000    ....    DCI      0x00000000 ; ? Undefined
        0x00006960:    00000000    ....    DCI      0x00000000 ; ? Undefined
        0x00006964:    00000000    ....    DCI      0x00000000 ; ? Undefined
        0x00006968:    00000000    ....    DCI      0x00000000 ; ? Undefined
        0x0000696c:    00000000    ....    DCI      0x00000000 ; ? Undefined
        0x00006970:    00000000    ....    DCI      0x00000000 ; ? Undefined
        0x00006974:    00000000    ....    DCI      0x00000000 ; ? Undefined
        0x00006978:    00000000    ....    DCI      0x00000000 ; ? Undefined
        0x0000697c:    00000000    ....    DCI      0x00000000 ; ? Undefined
        0x00006980:    00000000    ....    DCI      0x00000000 ; ? Undefined
        0x00006984:    00000000    ....    DCI      0x00000000 ; ? Undefined
        0x00006988:    00000000    ....    DCI      0x00000000 ; ? Undefined
        0x0000698c:    00000000    ....    DCI      0x00000000 ; ? Undefined
        0x00006990:    00000000    ....    DCI      0x00000000 ; ? Undefined
        0x00006994:    00000000    ....    DCI      0x00000000 ; ? Undefined
        0x00006998:    00000000    ....    DCI      0x00000000 ; ? Undefined
        0x0000699c:    00000000    ....    DCI      0x00000000 ; ? Undefined
        0x000069a0:    00000000    ....    DCI      0x00000000 ; ? Undefined
        0x000069a4:    00000000    ....    DCI      0x00000000 ; ? Undefined
        0x000069a8:    00000000    ....    DCI      0x00000000 ; ? Undefined
        0x000069ac:    00000000    ....    DCI      0x00000000 ; ? Undefined
        0x000069b0:    00000000    ....    DCI      0x00000000 ; ? Undefined
        0x000069b4:    00000000    ....    DCI      0x00000000 ; ? Undefined
        0x000069b8:    00000000    ....    DCI      0x00000000 ; ? Undefined
        0x000069bc:    00000000    ....    DCI      0x00000000 ; ? Undefined
        0x000069c0:    00000000    ....    DCI      0x00000000 ; ? Undefined
        0x000069c4:    00000000    ....    DCI      0x00000000 ; ? Undefined
        0x000069c8:    00000000    ....    DCI      0x00000000 ; ? Undefined
        0x000069cc:    00000000    ....    DCI      0x00000000 ; ? Undefined
        0x000069d0:    00000000    ....    DCI      0x00000000 ; ? Undefined
        0x000069d4:    00000000    ....    DCI      0x00000000 ; ? Undefined
        0x000069d8:    00000000    ....    DCI      0x00000000 ; ? Undefined
        0x000069dc:    00000000    ....    DCI      0x00000000 ; ? Undefined
        0x000069e0:    00000000    ....    DCI      0x00000000 ; ? Undefined
        0x000069e4:    00000000    ....    DCI      0x00000000 ; ? Undefined
        0x000069e8:    00000000    ....    DCI      0x00000000 ; ? Undefined
        0x000069ec:    00000000    ....    DCI      0x00000000 ; ? Undefined
        0x000069f0:    00000000    ....    DCI      0x00000000 ; ? Undefined
        0x000069f4:    00000000    ....    DCI      0x00000000 ; ? Undefined
        0x000069f8:    00000000    ....    DCI      0x00000000 ; ? Undefined
        0x000069fc:    00000000    ....    DCI      0x00000000 ; ? Undefined
        0x00006a00:    00000000    ....    DCI      0x00000000 ; ? Undefined
        0x00006a04:    00000000    ....    DCI      0x00000000 ; ? Undefined
        0x00006a08:    00000000    ....    DCI      0x00000000 ; ? Undefined
        0x00006a0c:    00000000    ....    DCI      0x00000000 ; ? Undefined
        0x00006a10:    00000000    ....    DCI      0x00000000 ; ? Undefined
        0x00006a14:    00000000    ....    DCI      0x00000000 ; ? Undefined
        0x00006a18:    00000000    ....    DCI      0x00000000 ; ? Undefined
        0x00006a1c:    00000000    ....    DCI      0x00000000 ; ? Undefined
        0x00006a20:    00000000    ....    DCI      0x00000000 ; ? Undefined
        0x00006a24:    00000000    ....    DCI      0x00000000 ; ? Undefined
        0x00006a28:    00000000    ....    DCI      0x00000000 ; ? Undefined
        0x00006a2c:    00000000    ....    DCI      0x00000000 ; ? Undefined
        0x00006a30:    00000000    ....    DCI      0x00000000 ; ? Undefined
        0x00006a34:    00000000    ....    DCI      0x00000000 ; ? Undefined
        0x00006a38:    00000000    ....    DCI      0x00000000 ; ? Undefined
        0x00006a3c:    00000000    ....    DCI      0x00000000 ; ? Undefined
        0x00006a40:    00000000    ....    DCI      0x00000000 ; ? Undefined
        0x00006a44:    00000000    ....    DCI      0x00000000 ; ? Undefined
        0x00006a48:    00000000    ....    DCI      0x00000000 ; ? Undefined
        0x00006a4c:    00000000    ....    DCI      0x00000000 ; ? Undefined
        0x00006a50:    00000000    ....    DCI      0x00000000 ; ? Undefined
        0x00006a54:    00000000    ....    DCI      0x00000000 ; ? Undefined
        0x00006a58:    00000000    ....    DCI      0x00000000 ; ? Undefined
        0x00006a5c:    00000000    ....    DCI      0x00000000 ; ? Undefined
        0x00006a60:    00000000    ....    DCI      0x00000000 ; ? Undefined
        0x00006a64:    00000000    ....    DCI      0x00000000 ; ? Undefined
        0x00006a68:    00000000    ....    DCI      0x00000000 ; ? Undefined
        0x00006a6c:    00000000    ....    DCI      0x00000000 ; ? Undefined
        0x00006a70:    00000000    ....    DCI      0x00000000 ; ? Undefined
        0x00006a74:    00000000    ....    DCI      0x00000000 ; ? Undefined
        0x00006a78:    00000000    ....    DCI      0x00000000 ; ? Undefined
        0x00006a7c:    00000000    ....    DCI      0x00000000 ; ? Undefined
        0x00006a80:    00000000    ....    DCI      0x00000000 ; ? Undefined
        0x00006a84:    00000000    ....    DCI      0x00000000 ; ? Undefined
        0x00006a88:    00000000    ....    DCI      0x00000000 ; ? Undefined
        0x00006a8c:    00000000    ....    DCI      0x00000000 ; ? Undefined
        0x00006a90:    00000000    ....    DCI      0x00000000 ; ? Undefined
        0x00006a94:    00000000    ....    DCI      0x00000000 ; ? Undefined
        0x00006a98:    00000000    ....    DCI      0x00000000 ; ? Undefined
        0x00006a9c:    00000000    ....    DCI      0x00000000 ; ? Undefined
        0x00006aa0:    00000000    ....    DCI      0x00000000 ; ? Undefined
        0x00006aa4:    00000000    ....    DCI      0x00000000 ; ? Undefined
        0x00006aa8:    00000000    ....    DCI      0x00000000 ; ? Undefined
        0x00006aac:    00000000    ....    DCI      0x00000000 ; ? Undefined
        0x00006ab0:    00000000    ....    DCI      0x00000000 ; ? Undefined
        0x00006ab4:    00000000    ....    DCI      0x00000000 ; ? Undefined
        0x00006ab8:    00000000    ....    DCI      0x00000000 ; ? Undefined
        0x00006abc:    00000000    ....    DCI      0x00000000 ; ? Undefined
        0x00006ac0:    00000000    ....    DCI      0x00000000 ; ? Undefined
        0x00006ac4:    00000000    ....    DCI      0x00000000 ; ? Undefined
        0x00006ac8:    00000000    ....    DCI      0x00000000 ; ? Undefined
        0x00006acc:    00000000    ....    DCI      0x00000000 ; ? Undefined
        0x00006ad0:    00000000    ....    DCI      0x00000000 ; ? Undefined
        0x00006ad4:    00000000    ....    DCI      0x00000000 ; ? Undefined
        0x00006ad8:    00000000    ....    DCI      0x00000000 ; ? Undefined
        0x00006adc:    00000000    ....    DCI      0x00000000 ; ? Undefined
        0x00006ae0:    00000000    ....    DCI      0x00000000 ; ? Undefined
        0x00006ae4:    00000000    ....    DCI      0x00000000 ; ? Undefined
        0x00006ae8:    00000000    ....    DCI      0x00000000 ; ? Undefined
        0x00006aec:    00000000    ....    DCI      0x00000000 ; ? Undefined
        0x00006af0:    00000000    ....    DCI      0x00000000 ; ? Undefined
        0x00006af4:    00000000    ....    DCI      0x00000000 ; ? Undefined
        0x00006af8:    00000000    ....    DCI      0x00000000 ; ? Undefined
        0x00006afc:    00000000    ....    DCI      0x00000000 ; ? Undefined
        0x00006b00:    00000000    ....    DCI      0x00000000 ; ? Undefined
        0x00006b04:    00000000    ....    DCI      0x00000000 ; ? Undefined
        0x00006b08:    00000000    ....    DCI      0x00000000 ; ? Undefined
        0x00006b0c:    00000000    ....    DCI      0x00000000 ; ? Undefined
        0x00006b10:    00000000    ....    DCI      0x00000000 ; ? Undefined
        0x00006b14:    00000000    ....    DCI      0x00000000 ; ? Undefined
        0x00006b18:    00000000    ....    DCI      0x00000000 ; ? Undefined
        0x00006b1c:    00000000    ....    DCI      0x00000000 ; ? Undefined
        0x00006b20:    00000000    ....    DCI      0x00000000 ; ? Undefined
        0x00006b24:    00000000    ....    DCI      0x00000000 ; ? Undefined
        0x00006b28:    00000000    ....    DCI      0x00000000 ; ? Undefined
        0x00006b2c:    00000000    ....    DCI      0x00000000 ; ? Undefined
        0x00006b30:    00000000    ....    DCI      0x00000000 ; ? Undefined
        0x00006b34:    00000000    ....    DCI      0x00000000 ; ? Undefined
        0x00006b38:    00000000    ....    DCI      0x00000000 ; ? Undefined
        0x00006b3c:    00000000    ....    DCI      0x00000000 ; ? Undefined
        0x00006b40:    00000000    ....    DCI      0x00000000 ; ? Undefined
        0x00006b44:    00000000    ....    DCI      0x00000000 ; ? Undefined
        0x00006b48:    00000000    ....    DCI      0x00000000 ; ? Undefined
        0x00006b4c:    00000000    ....    DCI      0x00000000 ; ? Undefined
        0x00006b50:    00000000    ....    DCI      0x00000000 ; ? Undefined
        0x00006b54:    00000000    ....    DCI      0x00000000 ; ? Undefined
        0x00006b58:    00000000    ....    DCI      0x00000000 ; ? Undefined
        0x00006b5c:    00000000    ....    DCI      0x00000000 ; ? Undefined
        0x00006b60:    00000000    ....    DCI      0x00000000 ; ? Undefined
        0x00006b64:    00000000    ....    DCI      0x00000000 ; ? Undefined
        0x00006b68:    00000000    ....    DCI      0x00000000 ; ? Undefined
        0x00006b6c:    00000000    ....    DCI      0x00000000 ; ? Undefined
        0x00006b70:    00000000    ....    DCI      0x00000000 ; ? Undefined
        0x00006b74:    00000000    ....    DCI      0x00000000 ; ? Undefined
        0x00006b78:    00000000    ....    DCI      0x00000000 ; ? Undefined
        0x00006b7c:    00000000    ....    DCI      0x00000000 ; ? Undefined
        0x00006b80:    00000000    ....    DCI      0x00000000 ; ? Undefined
        0x00006b84:    00000000    ....    DCI      0x00000000 ; ? Undefined
        0x00006b88:    00000000    ....    DCI      0x00000000 ; ? Undefined
        0x00006b8c:    00000000    ....    DCI      0x00000000 ; ? Undefined
        0x00006b90:    00000000    ....    DCI      0x00000000 ; ? Undefined
        0x00006b94:    00000000    ....    DCI      0x00000000 ; ? Undefined
        0x00006b98:    00000000    ....    DCI      0x00000000 ; ? Undefined
        0x00006b9c:    00000000    ....    DCI      0x00000000 ; ? Undefined
        0x00006ba0:    00000000    ....    DCI      0x00000000 ; ? Undefined
        0x00006ba4:    00000000    ....    DCI      0x00000000 ; ? Undefined
        0x00006ba8:    00000000    ....    DCI      0x00000000 ; ? Undefined
        0x00006bac:    00000000    ....    DCI      0x00000000 ; ? Undefined
        0x00006bb0:    00000000    ....    DCI      0x00000000 ; ? Undefined
        0x00006bb4:    00000000    ....    DCI      0x00000000 ; ? Undefined
        0x00006bb8:    00000000    ....    DCI      0x00000000 ; ? Undefined
        0x00006bbc:    00000000    ....    DCI      0x00000000 ; ? Undefined
        0x00006bc0:    00000000    ....    DCI      0x00000000 ; ? Undefined
        0x00006bc4:    00000000    ....    DCI      0x00000000 ; ? Undefined
        0x00006bc8:    00000000    ....    DCI      0x00000000 ; ? Undefined
        0x00006bcc:    00000000    ....    DCI      0x00000000 ; ? Undefined
        0x00006bd0:    00000000    ....    DCI      0x00000000 ; ? Undefined
        0x00006bd4:    00000000    ....    DCI      0x00000000 ; ? Undefined
        0x00006bd8:    00000000    ....    DCI      0x00000000 ; ? Undefined
        0x00006bdc:    00000000    ....    DCI      0x00000000 ; ? Undefined
        0x00006be0:    00000000    ....    DCI      0x00000000 ; ? Undefined
        0x00006be4:    00000000    ....    DCI      0x00000000 ; ? Undefined
        0x00006be8:    00000000    ....    DCI      0x00000000 ; ? Undefined
        0x00006bec:    00000000    ....    DCI      0x00000000 ; ? Undefined
        0x00006bf0:    00000000    ....    DCI      0x00000000 ; ? Undefined
        0x00006bf4:    00000000    ....    DCI      0x00000000 ; ? Undefined
        0x00006bf8:    00000000    ....    DCI      0x00000000 ; ? Undefined
        0x00006bfc:    00000000    ....    DCI      0x00000000 ; ? Undefined
        0x00006c00:    00000000    ....    DCI      0x00000000 ; ? Undefined
        0x00006c04:    00000000    ....    DCI      0x00000000 ; ? Undefined
        0x00006c08:    00000000    ....    DCI      0x00000000 ; ? Undefined
        0x00006c0c:    00000000    ....    DCI      0x00000000 ; ? Undefined
        0x00006c10:    00000000    ....    DCI      0x00000000 ; ? Undefined
        0x00006c14:    00000000    ....    DCI      0x00000000 ; ? Undefined
        0x00006c18:    00000000    ....    DCI      0x00000000 ; ? Undefined
        0x00006c1c:    00000000    ....    DCI      0x00000000 ; ? Undefined
        0x00006c20:    00000000    ....    DCI      0x00000000 ; ? Undefined
        0x00006c24:    00000000    ....    DCI      0x00000000 ; ? Undefined
        0x00006c28:    00000000    ....    DCI      0x00000000 ; ? Undefined
        0x00006c2c:    00000000    ....    DCI      0x00000000 ; ? Undefined
        0x00006c30:    00000000    ....    DCI      0x00000000 ; ? Undefined
        0x00006c34:    00000000    ....    DCI      0x00000000 ; ? Undefined
        0x00006c38:    00000000    ....    DCI      0x00000000 ; ? Undefined
        0x00006c3c:    00000000    ....    DCI      0x00000000 ; ? Undefined
        0x00006c40:    00000000    ....    DCI      0x00000000 ; ? Undefined
        0x00006c44:    00000000    ....    DCI      0x00000000 ; ? Undefined
        0x00006c48:    00000000    ....    DCI      0x00000000 ; ? Undefined
        0x00006c4c:    00000000    ....    DCI      0x00000000 ; ? Undefined
        0x00006c50:    00000000    ....    DCI      0x00000000 ; ? Undefined
        0x00006c54:    00000000    ....    DCI      0x00000000 ; ? Undefined
        0x00006c58:    00000000    ....    DCI      0x00000000 ; ? Undefined
        0x00006c5c:    00000000    ....    DCI      0x00000000 ; ? Undefined
        0x00006c60:    00000000    ....    DCI      0x00000000 ; ? Undefined
        0x00006c64:    00000000    ....    DCI      0x00000000 ; ? Undefined
        0x00006c68:    00000000    ....    DCI      0x00000000 ; ? Undefined
        0x00006c6c:    00000000    ....    DCI      0x00000000 ; ? Undefined
        0x00006c70:    00000000    ....    DCI      0x00000000 ; ? Undefined
        0x00006c74:    00000000    ....    DCI      0x00000000 ; ? Undefined
        0x00006c78:    00000000    ....    DCI      0x00000000 ; ? Undefined
        0x00006c7c:    00000000    ....    DCI      0x00000000 ; ? Undefined
        0x00006c80:    00000000    ....    DCI      0x00000000 ; ? Undefined
        0x00006c84:    00000000    ....    DCI      0x00000000 ; ? Undefined
        0x00006c88:    00000000    ....    DCI      0x00000000 ; ? Undefined
        0x00006c8c:    00000000    ....    DCI      0x00000000 ; ? Undefined
        0x00006c90:    00000000    ....    DCI      0x00000000 ; ? Undefined
        0x00006c94:    00000000    ....    DCI      0x00000000 ; ? Undefined
        0x00006c98:    00000000    ....    DCI      0x00000000 ; ? Undefined
        0x00006c9c:    00000000    ....    DCI      0x00000000 ; ? Undefined
        0x00006ca0:    00000000    ....    DCI      0x00000000 ; ? Undefined
        0x00006ca4:    00000000    ....    DCI      0x00000000 ; ? Undefined
        0x00006ca8:    00000000    ....    DCI      0x00000000 ; ? Undefined
        0x00006cac:    00000000    ....    DCI      0x00000000 ; ? Undefined
        0x00006cb0:    00000000    ....    DCI      0x00000000 ; ? Undefined
        0x00006cb4:    00000000    ....    DCI      0x00000000 ; ? Undefined
        0x00006cb8:    00000000    ....    DCI      0x00000000 ; ? Undefined
        0x00006cbc:    00000000    ....    DCI      0x00000000 ; ? Undefined
        0x00006cc0:    00000000    ....    DCI      0x00000000 ; ? Undefined
        0x00006cc4:    00000000    ....    DCI      0x00000000 ; ? Undefined
        0x00006cc8:    00000000    ....    DCI      0x00000000 ; ? Undefined
        0x00006ccc:    00000000    ....    DCI      0x00000000 ; ? Undefined
        0x00006cd0:    00000000    ....    DCI      0x00000000 ; ? Undefined
        0x00006cd4:    00000000    ....    DCI      0x00000000 ; ? Undefined
        0x00006cd8:    00000000    ....    DCI      0x00000000 ; ? Undefined
        0x00006cdc:    00000000    ....    DCI      0x00000000 ; ? Undefined
        0x00006ce0:    00000000    ....    DCI      0x00000000 ; ? Undefined
        0x00006ce4:    00000000    ....    DCI      0x00000000 ; ? Undefined
        0x00006ce8:    00000000    ....    DCI      0x00000000 ; ? Undefined
        0x00006cec:    00000000    ....    DCI      0x00000000 ; ? Undefined
        0x00006cf0:    00000000    ....    DCI      0x00000000 ; ? Undefined
        0x00006cf4:    00000000    ....    DCI      0x00000000 ; ? Undefined
        0x00006cf8:    00000000    ....    DCI      0x00000000 ; ? Undefined
        0x00006cfc:    00000000    ....    DCI      0x00000000 ; ? Undefined
        0x00006d00:    00000000    ....    DCI      0x00000000 ; ? Undefined
        0x00006d04:    00000000    ....    DCI      0x00000000 ; ? Undefined
        0x00006d08:    00000000    ....    DCI      0x00000000 ; ? Undefined
        0x00006d0c:    00000000    ....    DCI      0x00000000 ; ? Undefined
        0x00006d10:    00000000    ....    DCI      0x00000000 ; ? Undefined
        0x00006d14:    00000000    ....    DCI      0x00000000 ; ? Undefined
        0x00006d18:    00000000    ....    DCI      0x00000000 ; ? Undefined
        0x00006d1c:    00000000    ....    DCI      0x00000000 ; ? Undefined
        0x00006d20:    00000000    ....    DCI      0x00000000 ; ? Undefined
        0x00006d24:    00000000    ....    DCI      0x00000000 ; ? Undefined
        0x00006d28:    00000000    ....    DCI      0x00000000 ; ? Undefined
        0x00006d2c:    00000000    ....    DCI      0x00000000 ; ? Undefined
        0x00006d30:    00000000    ....    DCI      0x00000000 ; ? Undefined
        0x00006d34:    00000000    ....    DCI      0x00000000 ; ? Undefined
        0x00006d38:    00000000    ....    DCI      0x00000000 ; ? Undefined
        0x00006d3c:    00000000    ....    DCI      0x00000000 ; ? Undefined
        0x00006d40:    00000000    ....    DCI      0x00000000 ; ? Undefined
        0x00006d44:    00000000    ....    DCI      0x00000000 ; ? Undefined
        0x00006d48:    00000000    ....    DCI      0x00000000 ; ? Undefined
        0x00006d4c:    00000000    ....    DCI      0x00000000 ; ? Undefined
        0x00006d50:    00000000    ....    DCI      0x00000000 ; ? Undefined
        0x00006d54:    00000000    ....    DCI      0x00000000 ; ? Undefined
        0x00006d58:    00000000    ....    DCI      0x00000000 ; ? Undefined
        0x00006d5c:    00000000    ....    DCI      0x00000000 ; ? Undefined
        0x00006d60:    00000000    ....    DCI      0x00000000 ; ? Undefined
        0x00006d64:    00000000    ....    DCI      0x00000000 ; ? Undefined
        0x00006d68:    00000000    ....    DCI      0x00000000 ; ? Undefined
        0x00006d6c:    00000000    ....    DCI      0x00000000 ; ? Undefined
        0x00006d70:    00000000    ....    DCI      0x00000000 ; ? Undefined
        0x00006d74:    00000000    ....    DCI      0x00000000 ; ? Undefined
        0x00006d78:    00000000    ....    DCI      0x00000000 ; ? Undefined
        0x00006d7c:    00000000    ....    DCI      0x00000000 ; ? Undefined
        0x00006d80:    00000000    ....    DCI      0x00000000 ; ? Undefined
        0x00006d84:    00000000    ....    DCI      0x00000000 ; ? Undefined
        0x00006d88:    00000000    ....    DCI      0x00000000 ; ? Undefined
        0x00006d8c:    00000000    ....    DCI      0x00000000 ; ? Undefined
        0x00006d90:    00000000    ....    DCI      0x00000000 ; ? Undefined
        0x00006d94:    00000000    ....    DCI      0x00000000 ; ? Undefined
        0x00006d98:    00000000    ....    DCI      0x00000000 ; ? Undefined
        0x00006d9c:    00000000    ....    DCI      0x00000000 ; ? Undefined
        0x00006da0:    00000000    ....    DCI      0x00000000 ; ? Undefined
        0x00006da4:    00000000    ....    DCI      0x00000000 ; ? Undefined
        0x00006da8:    00000000    ....    DCI      0x00000000 ; ? Undefined
        0x00006dac:    00000000    ....    DCI      0x00000000 ; ? Undefined
        0x00006db0:    00000000    ....    DCI      0x00000000 ; ? Undefined
        0x00006db4:    00000000    ....    DCI      0x00000000 ; ? Undefined
        0x00006db8:    00000000    ....    DCI      0x00000000 ; ? Undefined
        0x00006dbc:    00000000    ....    DCI      0x00000000 ; ? Undefined
        0x00006dc0:    00000000    ....    DCI      0x00000000 ; ? Undefined
        0x00006dc4:    00000000    ....    DCI      0x00000000 ; ? Undefined
        0x00006dc8:    00000000    ....    DCI      0x00000000 ; ? Undefined
        0x00006dcc:    00000000    ....    DCI      0x00000000 ; ? Undefined
        0x00006dd0:    00000000    ....    DCI      0x00000000 ; ? Undefined
        0x00006dd4:    00000000    ....    DCI      0x00000000 ; ? Undefined
        0x00006dd8:    00000000    ....    DCI      0x00000000 ; ? Undefined
        0x00006ddc:    00000000    ....    DCI      0x00000000 ; ? Undefined
        0x00006de0:    00000000    ....    DCI      0x00000000 ; ? Undefined
        0x00006de4:    00000000    ....    DCI      0x00000000 ; ? Undefined
        0x00006de8:    00000000    ....    DCI      0x00000000 ; ? Undefined
        0x00006dec:    00000000    ....    DCI      0x00000000 ; ? Undefined
        0x00006df0:    00000000    ....    DCI      0x00000000 ; ? Undefined
        0x00006df4:    00000000    ....    DCI      0x00000000 ; ? Undefined
        0x00006df8:    00000000    ....    DCI      0x00000000 ; ? Undefined
        0x00006dfc:    00000000    ....    DCI      0x00000000 ; ? Undefined
        0x00006e00:    00000000    ....    DCI      0x00000000 ; ? Undefined
        0x00006e04:    00000000    ....    DCI      0x00000000 ; ? Undefined
        0x00006e08:    00000000    ....    DCI      0x00000000 ; ? Undefined
        0x00006e0c:    00000000    ....    DCI      0x00000000 ; ? Undefined
        0x00006e10:    00000000    ....    DCI      0x00000000 ; ? Undefined
        0x00006e14:    00000000    ....    DCI      0x00000000 ; ? Undefined
        0x00006e18:    00000000    ....    DCI      0x00000000 ; ? Undefined
        0x00006e1c:    00000000    ....    DCI      0x00000000 ; ? Undefined
        0x00006e20:    00000000    ....    DCI      0x00000000 ; ? Undefined
        0x00006e24:    00000000    ....    DCI      0x00000000 ; ? Undefined
        0x00006e28:    00000000    ....    DCI      0x00000000 ; ? Undefined
        0x00006e2c:    00000000    ....    DCI      0x00000000 ; ? Undefined
        0x00006e30:    00000000    ....    DCI      0x00000000 ; ? Undefined
        0x00006e34:    00000000    ....    DCI      0x00000000 ; ? Undefined
        0x00006e38:    00000000    ....    DCI      0x00000000 ; ? Undefined
        0x00006e3c:    00000000    ....    DCI      0x00000000 ; ? Undefined
        0x00006e40:    00000000    ....    DCI      0x00000000 ; ? Undefined
        0x00006e44:    00000000    ....    DCI      0x00000000 ; ? Undefined
        0x00006e48:    00000000    ....    DCI      0x00000000 ; ? Undefined
        0x00006e4c:    00000000    ....    DCI      0x00000000 ; ? Undefined
        0x00006e50:    00000000    ....    DCI      0x00000000 ; ? Undefined
        0x00006e54:    00000000    ....    DCI      0x00000000 ; ? Undefined
        0x00006e58:    00000000    ....    DCI      0x00000000 ; ? Undefined
        0x00006e5c:    00000000    ....    DCI      0x00000000 ; ? Undefined
        0x00006e60:    00000000    ....    DCI      0x00000000 ; ? Undefined
        0x00006e64:    00000000    ....    DCI      0x00000000 ; ? Undefined
        0x00006e68:    00000000    ....    DCI      0x00000000 ; ? Undefined
        0x00006e6c:    00000000    ....    DCI      0x00000000 ; ? Undefined
        0x00006e70:    00000000    ....    DCI      0x00000000 ; ? Undefined
        0x00006e74:    00000000    ....    DCI      0x00000000 ; ? Undefined
        0x00006e78:    00000000    ....    DCI      0x00000000 ; ? Undefined
        0x00006e7c:    00000000    ....    DCI      0x00000000 ; ? Undefined
        0x00006e80:    00000000    ....    DCI      0x00000000 ; ? Undefined
        0x00006e84:    00000000    ....    DCI      0x00000000 ; ? Undefined
        0x00006e88:    00000000    ....    DCI      0x00000000 ; ? Undefined
        0x00006e8c:    00000000    ....    DCI      0x00000000 ; ? Undefined
        0x00006e90:    00000000    ....    DCI      0x00000000 ; ? Undefined
        0x00006e94:    00000000    ....    DCI      0x00000000 ; ? Undefined
        0x00006e98:    00000000    ....    DCI      0x00000000 ; ? Undefined
        0x00006e9c:    00000000    ....    DCI      0x00000000 ; ? Undefined
        0x00006ea0:    00000000    ....    DCI      0x00000000 ; ? Undefined
        0x00006ea4:    00000000    ....    DCI      0x00000000 ; ? Undefined
        0x00006ea8:    00000000    ....    DCI      0x00000000 ; ? Undefined
        0x00006eac:    00000000    ....    DCI      0x00000000 ; ? Undefined
        0x00006eb0:    00000000    ....    DCI      0x00000000 ; ? Undefined
        0x00006eb4:    00000000    ....    DCI      0x00000000 ; ? Undefined
        0x00006eb8:    00000000    ....    DCI      0x00000000 ; ? Undefined
        0x00006ebc:    00000000    ....    DCI      0x00000000 ; ? Undefined
        0x00006ec0:    00000000    ....    DCI      0x00000000 ; ? Undefined
        0x00006ec4:    00000000    ....    DCI      0x00000000 ; ? Undefined
        0x00006ec8:    00000000    ....    DCI      0x00000000 ; ? Undefined
        0x00006ecc:    00000000    ....    DCI      0x00000000 ; ? Undefined
        0x00006ed0:    00000000    ....    DCI      0x00000000 ; ? Undefined
        0x00006ed4:    00000000    ....    DCI      0x00000000 ; ? Undefined
        0x00006ed8:    00000000    ....    DCI      0x00000000 ; ? Undefined
        0x00006edc:    00000000    ....    DCI      0x00000000 ; ? Undefined
        0x00006ee0:    00000000    ....    DCI      0x00000000 ; ? Undefined
        0x00006ee4:    00000000    ....    DCI      0x00000000 ; ? Undefined
        0x00006ee8:    00000000    ....    DCI      0x00000000 ; ? Undefined
        0x00006eec:    00000000    ....    DCI      0x00000000 ; ? Undefined
        0x00006ef0:    00000000    ....    DCI      0x00000000 ; ? Undefined
        0x00006ef4:    00000000    ....    DCI      0x00000000 ; ? Undefined
        0x00006ef8:    00000000    ....    DCI      0x00000000 ; ? Undefined
        0x00006efc:    00000000    ....    DCI      0x00000000 ; ? Undefined
        0x00006f00:    00000000    ....    DCI      0x00000000 ; ? Undefined
        0x00006f04:    00000000    ....    DCI      0x00000000 ; ? Undefined
        0x00006f08:    00000000    ....    DCI      0x00000000 ; ? Undefined
        0x00006f0c:    00000000    ....    DCI      0x00000000 ; ? Undefined
        0x00006f10:    00000000    ....    DCI      0x00000000 ; ? Undefined
        0x00006f14:    00000000    ....    DCI      0x00000000 ; ? Undefined
        0x00006f18:    00000000    ....    DCI      0x00000000 ; ? Undefined
        0x00006f1c:    00000000    ....    DCI      0x00000000 ; ? Undefined
        0x00006f20:    00000000    ....    DCI      0x00000000 ; ? Undefined
        0x00006f24:    00000000    ....    DCI      0x00000000 ; ? Undefined
        0x00006f28:    00000000    ....    DCI      0x00000000 ; ? Undefined
        0x00006f2c:    00000000    ....    DCI      0x00000000 ; ? Undefined
        0x00006f30:    00000000    ....    DCI      0x00000000 ; ? Undefined
        0x00006f34:    00000000    ....    DCI      0x00000000 ; ? Undefined
        0x00006f38:    00000000    ....    DCI      0x00000000 ; ? Undefined
        0x00006f3c:    00000000    ....    DCI      0x00000000 ; ? Undefined
        0x00006f40:    00000000    ....    DCI      0x00000000 ; ? Undefined
        0x00006f44:    00000000    ....    DCI      0x00000000 ; ? Undefined
        0x00006f48:    00000000    ....    DCI      0x00000000 ; ? Undefined
        0x00006f4c:    00000000    ....    DCI      0x00000000 ; ? Undefined
        0x00006f50:    00000000    ....    DCI      0x00000000 ; ? Undefined
        0x00006f54:    00000000    ....    DCI      0x00000000 ; ? Undefined
        0x00006f58:    00000000    ....    DCI      0x00000000 ; ? Undefined
        0x00006f5c:    00000000    ....    DCI      0x00000000 ; ? Undefined
        0x00006f60:    00000000    ....    DCI      0x00000000 ; ? Undefined
        0x00006f64:    00000000    ....    DCI      0x00000000 ; ? Undefined
        0x00006f68:    00000000    ....    DCI      0x00000000 ; ? Undefined
        0x00006f6c:    00000000    ....    DCI      0x00000000 ; ? Undefined
        0x00006f70:    00000000    ....    DCI      0x00000000 ; ? Undefined
        0x00006f74:    00000000    ....    DCI      0x00000000 ; ? Undefined
        0x00006f78:    00000000    ....    DCI      0x00000000 ; ? Undefined
        0x00006f7c:    00000000    ....    DCI      0x00000000 ; ? Undefined
        0x00006f80:    00000000    ....    DCI      0x00000000 ; ? Undefined
        0x00006f84:    00000000    ....    DCI      0x00000000 ; ? Undefined
        0x00006f88:    00000000    ....    DCI      0x00000000 ; ? Undefined
        0x00006f8c:    00000000    ....    DCI      0x00000000 ; ? Undefined
        0x00006f90:    00000000    ....    DCI      0x00000000 ; ? Undefined
        0x00006f94:    00000000    ....    DCI      0x00000000 ; ? Undefined
        0x00006f98:    00000000    ....    DCI      0x00000000 ; ? Undefined
        0x00006f9c:    00000000    ....    DCI      0x00000000 ; ? Undefined
        0x00006fa0:    00000000    ....    DCI      0x00000000 ; ? Undefined
        0x00006fa4:    00000000    ....    DCI      0x00000000 ; ? Undefined
        0x00006fa8:    00000000    ....    DCI      0x00000000 ; ? Undefined
        0x00006fac:    00000000    ....    DCI      0x00000000 ; ? Undefined
        0x00006fb0:    00000000    ....    DCI      0x00000000 ; ? Undefined
        0x00006fb4:    00000000    ....    DCI      0x00000000 ; ? Undefined
        0x00006fb8:    00000000    ....    DCI      0x00000000 ; ? Undefined
        0x00006fbc:    00000000    ....    DCI      0x00000000 ; ? Undefined
        0x00006fc0:    00000000    ....    DCI      0x00000000 ; ? Undefined
        0x00006fc4:    00000000    ....    DCI      0x00000000 ; ? Undefined
        0x00006fc8:    00000000    ....    DCI      0x00000000 ; ? Undefined
        0x00006fcc:    00000000    ....    DCI      0x00000000 ; ? Undefined
        0x00006fd0:    00000000    ....    DCI      0x00000000 ; ? Undefined
        0x00006fd4:    00000000    ....    DCI      0x00000000 ; ? Undefined
        0x00006fd8:    00000000    ....    DCI      0x00000000 ; ? Undefined
        0x00006fdc:    00000000    ....    DCI      0x00000000 ; ? Undefined
        0x00006fe0:    00000000    ....    DCI      0x00000000 ; ? Undefined
        0x00006fe4:    00000000    ....    DCI      0x00000000 ; ? Undefined
        0x00006fe8:    00000000    ....    DCI      0x00000000 ; ? Undefined
        0x00006fec:    00000000    ....    DCI      0x00000000 ; ? Undefined
        0x00006ff0:    00000000    ....    DCI      0x00000000 ; ? Undefined
        0x00006ff4:    00000000    ....    DCI      0x00000000 ; ? Undefined
        0x00006ff8:    00000000    ....    DCI      0x00000000 ; ? Undefined
        0x00006ffc:    00000000    ....    DCI      0x00000000 ; ? Undefined
    sync_current_el_sp0
    el3_vectors
        0x00007000:    14000000    ....    B        0x7000 ; 0x7000
        0x00007004:    d503201f    . ..    NOP      
        0x00007008:    d503201f    . ..    NOP      
        0x0000700c:    d503201f    . ..    NOP      
        0x00007010:    d503201f    . ..    NOP      
        0x00007014:    d503201f    . ..    NOP      
        0x00007018:    d503201f    . ..    NOP      
        0x0000701c:    d503201f    . ..    NOP      
        0x00007020:    d503201f    . ..    NOP      
        0x00007024:    d503201f    . ..    NOP      
        0x00007028:    d503201f    . ..    NOP      
        0x0000702c:    d503201f    . ..    NOP      
        0x00007030:    d503201f    . ..    NOP      
        0x00007034:    d503201f    . ..    NOP      
        0x00007038:    d503201f    . ..    NOP      
        0x0000703c:    d503201f    . ..    NOP      
        0x00007040:    d503201f    . ..    NOP      
        0x00007044:    d503201f    . ..    NOP      
        0x00007048:    d503201f    . ..    NOP      
        0x0000704c:    d503201f    . ..    NOP      
        0x00007050:    d503201f    . ..    NOP      
        0x00007054:    d503201f    . ..    NOP      
        0x00007058:    d503201f    . ..    NOP      
        0x0000705c:    d503201f    . ..    NOP      
        0x00007060:    d503201f    . ..    NOP      
        0x00007064:    d503201f    . ..    NOP      
        0x00007068:    d503201f    . ..    NOP      
        0x0000706c:    d503201f    . ..    NOP      
        0x00007070:    d503201f    . ..    NOP      
        0x00007074:    d503201f    . ..    NOP      
        0x00007078:    d503201f    . ..    NOP      
        0x0000707c:    d503201f    . ..    NOP      
    irq_current_el_sp0
        0x00007080:    14000000    ....    B        0x7080 ; 0x7080
        0x00007084:    d503201f    . ..    NOP      
        0x00007088:    d503201f    . ..    NOP      
        0x0000708c:    d503201f    . ..    NOP      
        0x00007090:    d503201f    . ..    NOP      
        0x00007094:    d503201f    . ..    NOP      
        0x00007098:    d503201f    . ..    NOP      
        0x0000709c:    d503201f    . ..    NOP      
        0x000070a0:    d503201f    . ..    NOP      
        0x000070a4:    d503201f    . ..    NOP      
        0x000070a8:    d503201f    . ..    NOP      
        0x000070ac:    d503201f    . ..    NOP      
        0x000070b0:    d503201f    . ..    NOP      
        0x000070b4:    d503201f    . ..    NOP      
        0x000070b8:    d503201f    . ..    NOP      
        0x000070bc:    d503201f    . ..    NOP      
        0x000070c0:    d503201f    . ..    NOP      
        0x000070c4:    d503201f    . ..    NOP      
        0x000070c8:    d503201f    . ..    NOP      
        0x000070cc:    d503201f    . ..    NOP      
        0x000070d0:    d503201f    . ..    NOP      
        0x000070d4:    d503201f    . ..    NOP      
        0x000070d8:    d503201f    . ..    NOP      
        0x000070dc:    d503201f    . ..    NOP      
        0x000070e0:    d503201f    . ..    NOP      
        0x000070e4:    d503201f    . ..    NOP      
        0x000070e8:    d503201f    . ..    NOP      
        0x000070ec:    d503201f    . ..    NOP      
        0x000070f0:    d503201f    . ..    NOP      
        0x000070f4:    d503201f    . ..    NOP      
        0x000070f8:    d503201f    . ..    NOP      
        0x000070fc:    d503201f    . ..    NOP      
    fiq_current_el_sp0
        0x00007100:    140001a1    ....    B        0x7784 ; 0x7784
        0x00007104:    d503201f    . ..    NOP      
        0x00007108:    d503201f    . ..    NOP      
        0x0000710c:    d503201f    . ..    NOP      
        0x00007110:    d503201f    . ..    NOP      
        0x00007114:    d503201f    . ..    NOP      
        0x00007118:    d503201f    . ..    NOP      
        0x0000711c:    d503201f    . ..    NOP      
        0x00007120:    d503201f    . ..    NOP      
        0x00007124:    d503201f    . ..    NOP      
        0x00007128:    d503201f    . ..    NOP      
        0x0000712c:    d503201f    . ..    NOP      
        0x00007130:    d503201f    . ..    NOP      
        0x00007134:    d503201f    . ..    NOP      
        0x00007138:    d503201f    . ..    NOP      
        0x0000713c:    d503201f    . ..    NOP      
        0x00007140:    d503201f    . ..    NOP      
        0x00007144:    d503201f    . ..    NOP      
        0x00007148:    d503201f    . ..    NOP      
        0x0000714c:    d503201f    . ..    NOP      
        0x00007150:    d503201f    . ..    NOP      
        0x00007154:    d503201f    . ..    NOP      
        0x00007158:    d503201f    . ..    NOP      
        0x0000715c:    d503201f    . ..    NOP      
        0x00007160:    d503201f    . ..    NOP      
        0x00007164:    d503201f    . ..    NOP      
        0x00007168:    d503201f    . ..    NOP      
        0x0000716c:    d503201f    . ..    NOP      
        0x00007170:    d503201f    . ..    NOP      
        0x00007174:    d503201f    . ..    NOP      
        0x00007178:    d503201f    . ..    NOP      
        0x0000717c:    d503201f    . ..    NOP      
    serror_current_el_sp0
        0x00007180:    14000000    ....    B        0x7180 ; 0x7180
        0x00007184:    d503201f    . ..    NOP      
        0x00007188:    d503201f    . ..    NOP      
        0x0000718c:    d503201f    . ..    NOP      
        0x00007190:    d503201f    . ..    NOP      
        0x00007194:    d503201f    . ..    NOP      
        0x00007198:    d503201f    . ..    NOP      
        0x0000719c:    d503201f    . ..    NOP      
        0x000071a0:    d503201f    . ..    NOP      
        0x000071a4:    d503201f    . ..    NOP      
        0x000071a8:    d503201f    . ..    NOP      
        0x000071ac:    d503201f    . ..    NOP      
        0x000071b0:    d503201f    . ..    NOP      
        0x000071b4:    d503201f    . ..    NOP      
        0x000071b8:    d503201f    . ..    NOP      
        0x000071bc:    d503201f    . ..    NOP      
        0x000071c0:    d503201f    . ..    NOP      
        0x000071c4:    d503201f    . ..    NOP      
        0x000071c8:    d503201f    . ..    NOP      
        0x000071cc:    d503201f    . ..    NOP      
        0x000071d0:    d503201f    . ..    NOP      
        0x000071d4:    d503201f    . ..    NOP      
        0x000071d8:    d503201f    . ..    NOP      
        0x000071dc:    d503201f    . ..    NOP      
        0x000071e0:    d503201f    . ..    NOP      
        0x000071e4:    d503201f    . ..    NOP      
        0x000071e8:    d503201f    . ..    NOP      
        0x000071ec:    d503201f    . ..    NOP      
        0x000071f0:    d503201f    . ..    NOP      
        0x000071f4:    d503201f    . ..    NOP      
        0x000071f8:    d503201f    . ..    NOP      
        0x000071fc:    d503201f    . ..    NOP      
    sync_current_el_spx
        0x00007200:    14000000    ....    B        0x7200 ; 0x7200
        0x00007204:    d503201f    . ..    NOP      
        0x00007208:    d503201f    . ..    NOP      
        0x0000720c:    d503201f    . ..    NOP      
        0x00007210:    d503201f    . ..    NOP      
        0x00007214:    d503201f    . ..    NOP      
        0x00007218:    d503201f    . ..    NOP      
        0x0000721c:    d503201f    . ..    NOP      
        0x00007220:    d503201f    . ..    NOP      
        0x00007224:    d503201f    . ..    NOP      
        0x00007228:    d503201f    . ..    NOP      
        0x0000722c:    d503201f    . ..    NOP      
        0x00007230:    d503201f    . ..    NOP      
        0x00007234:    d503201f    . ..    NOP      
        0x00007238:    d503201f    . ..    NOP      
        0x0000723c:    d503201f    . ..    NOP      
        0x00007240:    d503201f    . ..    NOP      
        0x00007244:    d503201f    . ..    NOP      
        0x00007248:    d503201f    . ..    NOP      
        0x0000724c:    d503201f    . ..    NOP      
        0x00007250:    d503201f    . ..    NOP      
        0x00007254:    d503201f    . ..    NOP      
        0x00007258:    d503201f    . ..    NOP      
        0x0000725c:    d503201f    . ..    NOP      
        0x00007260:    d503201f    . ..    NOP      
        0x00007264:    d503201f    . ..    NOP      
        0x00007268:    d503201f    . ..    NOP      
        0x0000726c:    d503201f    . ..    NOP      
        0x00007270:    d503201f    . ..    NOP      
        0x00007274:    d503201f    . ..    NOP      
        0x00007278:    d503201f    . ..    NOP      
        0x0000727c:    d503201f    . ..    NOP      
    irq_current_el_spx
        0x00007280:    14000000    ....    B        0x7280 ; 0x7280
        0x00007284:    d503201f    . ..    NOP      
        0x00007288:    d503201f    . ..    NOP      
        0x0000728c:    d503201f    . ..    NOP      
        0x00007290:    d503201f    . ..    NOP      
        0x00007294:    d503201f    . ..    NOP      
        0x00007298:    d503201f    . ..    NOP      
        0x0000729c:    d503201f    . ..    NOP      
        0x000072a0:    d503201f    . ..    NOP      
        0x000072a4:    d503201f    . ..    NOP      
        0x000072a8:    d503201f    . ..    NOP      
        0x000072ac:    d503201f    . ..    NOP      
        0x000072b0:    d503201f    . ..    NOP      
        0x000072b4:    d503201f    . ..    NOP      
        0x000072b8:    d503201f    . ..    NOP      
        0x000072bc:    d503201f    . ..    NOP      
        0x000072c0:    d503201f    . ..    NOP      
        0x000072c4:    d503201f    . ..    NOP      
        0x000072c8:    d503201f    . ..    NOP      
        0x000072cc:    d503201f    . ..    NOP      
        0x000072d0:    d503201f    . ..    NOP      
        0x000072d4:    d503201f    . ..    NOP      
        0x000072d8:    d503201f    . ..    NOP      
        0x000072dc:    d503201f    . ..    NOP      
        0x000072e0:    d503201f    . ..    NOP      
        0x000072e4:    d503201f    . ..    NOP      
        0x000072e8:    d503201f    . ..    NOP      
        0x000072ec:    d503201f    . ..    NOP      
        0x000072f0:    d503201f    . ..    NOP      
        0x000072f4:    d503201f    . ..    NOP      
        0x000072f8:    d503201f    . ..    NOP      
        0x000072fc:    d503201f    . ..    NOP      
    fiq_current_el_spx
        0x00007300:    14000121    !...    B        0x7784 ; 0x7784
        0x00007304:    d503201f    . ..    NOP      
        0x00007308:    d503201f    . ..    NOP      
        0x0000730c:    d503201f    . ..    NOP      
        0x00007310:    d503201f    . ..    NOP      
        0x00007314:    d503201f    . ..    NOP      
        0x00007318:    d503201f    . ..    NOP      
        0x0000731c:    d503201f    . ..    NOP      
        0x00007320:    d503201f    . ..    NOP      
        0x00007324:    d503201f    . ..    NOP      
        0x00007328:    d503201f    . ..    NOP      
        0x0000732c:    d503201f    . ..    NOP      
        0x00007330:    d503201f    . ..    NOP      
        0x00007334:    d503201f    . ..    NOP      
        0x00007338:    d503201f    . ..    NOP      
        0x0000733c:    d503201f    . ..    NOP      
        0x00007340:    d503201f    . ..    NOP      
        0x00007344:    d503201f    . ..    NOP      
        0x00007348:    d503201f    . ..    NOP      
        0x0000734c:    d503201f    . ..    NOP      
        0x00007350:    d503201f    . ..    NOP      
        0x00007354:    d503201f    . ..    NOP      
        0x00007358:    d503201f    . ..    NOP      
        0x0000735c:    d503201f    . ..    NOP      
        0x00007360:    d503201f    . ..    NOP      
        0x00007364:    d503201f    . ..    NOP      
        0x00007368:    d503201f    . ..    NOP      
        0x0000736c:    d503201f    . ..    NOP      
        0x00007370:    d503201f    . ..    NOP      
        0x00007374:    d503201f    . ..    NOP      
        0x00007378:    d503201f    . ..    NOP      
        0x0000737c:    d503201f    . ..    NOP      
    serror_current_el_spx
        0x00007380:    14000000    ....    B        0x7380 ; 0x7380
        0x00007384:    d503201f    . ..    NOP      
        0x00007388:    d503201f    . ..    NOP      
        0x0000738c:    d503201f    . ..    NOP      
        0x00007390:    d503201f    . ..    NOP      
        0x00007394:    d503201f    . ..    NOP      
        0x00007398:    d503201f    . ..    NOP      
        0x0000739c:    d503201f    . ..    NOP      
        0x000073a0:    d503201f    . ..    NOP      
        0x000073a4:    d503201f    . ..    NOP      
        0x000073a8:    d503201f    . ..    NOP      
        0x000073ac:    d503201f    . ..    NOP      
        0x000073b0:    d503201f    . ..    NOP      
        0x000073b4:    d503201f    . ..    NOP      
        0x000073b8:    d503201f    . ..    NOP      
        0x000073bc:    d503201f    . ..    NOP      
        0x000073c0:    d503201f    . ..    NOP      
        0x000073c4:    d503201f    . ..    NOP      
        0x000073c8:    d503201f    . ..    NOP      
        0x000073cc:    d503201f    . ..    NOP      
        0x000073d0:    d503201f    . ..    NOP      
        0x000073d4:    d503201f    . ..    NOP      
        0x000073d8:    d503201f    . ..    NOP      
        0x000073dc:    d503201f    . ..    NOP      
        0x000073e0:    d503201f    . ..    NOP      
        0x000073e4:    d503201f    . ..    NOP      
        0x000073e8:    d503201f    . ..    NOP      
        0x000073ec:    d503201f    . ..    NOP      
        0x000073f0:    d503201f    . ..    NOP      
        0x000073f4:    d503201f    . ..    NOP      
        0x000073f8:    d503201f    . ..    NOP      
        0x000073fc:    d503201f    . ..    NOP      
    sync_lower_el_aarch64
        0x00007400:    14000000    ....    B        0x7400 ; 0x7400
        0x00007404:    d503201f    . ..    NOP      
        0x00007408:    d503201f    . ..    NOP      
        0x0000740c:    d503201f    . ..    NOP      
        0x00007410:    d503201f    . ..    NOP      
        0x00007414:    d503201f    . ..    NOP      
        0x00007418:    d503201f    . ..    NOP      
        0x0000741c:    d503201f    . ..    NOP      
        0x00007420:    d503201f    . ..    NOP      
        0x00007424:    d503201f    . ..    NOP      
        0x00007428:    d503201f    . ..    NOP      
        0x0000742c:    d503201f    . ..    NOP      
        0x00007430:    d503201f    . ..    NOP      
        0x00007434:    d503201f    . ..    NOP      
        0x00007438:    d503201f    . ..    NOP      
        0x0000743c:    d503201f    . ..    NOP      
        0x00007440:    d503201f    . ..    NOP      
        0x00007444:    d503201f    . ..    NOP      
        0x00007448:    d503201f    . ..    NOP      
        0x0000744c:    d503201f    . ..    NOP      
        0x00007450:    d503201f    . ..    NOP      
        0x00007454:    d503201f    . ..    NOP      
        0x00007458:    d503201f    . ..    NOP      
        0x0000745c:    d503201f    . ..    NOP      
        0x00007460:    d503201f    . ..    NOP      
        0x00007464:    d503201f    . ..    NOP      
        0x00007468:    d503201f    . ..    NOP      
        0x0000746c:    d503201f    . ..    NOP      
        0x00007470:    d503201f    . ..    NOP      
        0x00007474:    d503201f    . ..    NOP      
        0x00007478:    d503201f    . ..    NOP      
        0x0000747c:    d503201f    . ..    NOP      
    irq_lower_el_aarch64
        0x00007480:    14000000    ....    B        0x7480 ; 0x7480
        0x00007484:    d503201f    . ..    NOP      
        0x00007488:    d503201f    . ..    NOP      
        0x0000748c:    d503201f    . ..    NOP      
        0x00007490:    d503201f    . ..    NOP      
        0x00007494:    d503201f    . ..    NOP      
        0x00007498:    d503201f    . ..    NOP      
        0x0000749c:    d503201f    . ..    NOP      
        0x000074a0:    d503201f    . ..    NOP      
        0x000074a4:    d503201f    . ..    NOP      
        0x000074a8:    d503201f    . ..    NOP      
        0x000074ac:    d503201f    . ..    NOP      
        0x000074b0:    d503201f    . ..    NOP      
        0x000074b4:    d503201f    . ..    NOP      
        0x000074b8:    d503201f    . ..    NOP      
        0x000074bc:    d503201f    . ..    NOP      
        0x000074c0:    d503201f    . ..    NOP      
        0x000074c4:    d503201f    . ..    NOP      
        0x000074c8:    d503201f    . ..    NOP      
        0x000074cc:    d503201f    . ..    NOP      
        0x000074d0:    d503201f    . ..    NOP      
        0x000074d4:    d503201f    . ..    NOP      
        0x000074d8:    d503201f    . ..    NOP      
        0x000074dc:    d503201f    . ..    NOP      
        0x000074e0:    d503201f    . ..    NOP      
        0x000074e4:    d503201f    . ..    NOP      
        0x000074e8:    d503201f    . ..    NOP      
        0x000074ec:    d503201f    . ..    NOP      
        0x000074f0:    d503201f    . ..    NOP      
        0x000074f4:    d503201f    . ..    NOP      
        0x000074f8:    d503201f    . ..    NOP      
        0x000074fc:    d503201f    . ..    NOP      
    fiq_lower_el_aarch64
        0x00007500:    140000a1    ....    B        0x7784 ; 0x7784
        0x00007504:    d503201f    . ..    NOP      
        0x00007508:    d503201f    . ..    NOP      
        0x0000750c:    d503201f    . ..    NOP      
        0x00007510:    d503201f    . ..    NOP      
        0x00007514:    d503201f    . ..    NOP      
        0x00007518:    d503201f    . ..    NOP      
        0x0000751c:    d503201f    . ..    NOP      
        0x00007520:    d503201f    . ..    NOP      
        0x00007524:    d503201f    . ..    NOP      
        0x00007528:    d503201f    . ..    NOP      
        0x0000752c:    d503201f    . ..    NOP      
        0x00007530:    d503201f    . ..    NOP      
        0x00007534:    d503201f    . ..    NOP      
        0x00007538:    d503201f    . ..    NOP      
        0x0000753c:    d503201f    . ..    NOP      
        0x00007540:    d503201f    . ..    NOP      
        0x00007544:    d503201f    . ..    NOP      
        0x00007548:    d503201f    . ..    NOP      
        0x0000754c:    d503201f    . ..    NOP      
        0x00007550:    d503201f    . ..    NOP      
        0x00007554:    d503201f    . ..    NOP      
        0x00007558:    d503201f    . ..    NOP      
        0x0000755c:    d503201f    . ..    NOP      
        0x00007560:    d503201f    . ..    NOP      
        0x00007564:    d503201f    . ..    NOP      
        0x00007568:    d503201f    . ..    NOP      
        0x0000756c:    d503201f    . ..    NOP      
        0x00007570:    d503201f    . ..    NOP      
        0x00007574:    d503201f    . ..    NOP      
        0x00007578:    d503201f    . ..    NOP      
        0x0000757c:    d503201f    . ..    NOP      
    serror_lower_el_aarch64
        0x00007580:    14000000    ....    B        0x7580 ; 0x7580
        0x00007584:    d503201f    . ..    NOP      
        0x00007588:    d503201f    . ..    NOP      
        0x0000758c:    d503201f    . ..    NOP      
        0x00007590:    d503201f    . ..    NOP      
        0x00007594:    d503201f    . ..    NOP      
        0x00007598:    d503201f    . ..    NOP      
        0x0000759c:    d503201f    . ..    NOP      
        0x000075a0:    d503201f    . ..    NOP      
        0x000075a4:    d503201f    . ..    NOP      
        0x000075a8:    d503201f    . ..    NOP      
        0x000075ac:    d503201f    . ..    NOP      
        0x000075b0:    d503201f    . ..    NOP      
        0x000075b4:    d503201f    . ..    NOP      
        0x000075b8:    d503201f    . ..    NOP      
        0x000075bc:    d503201f    . ..    NOP      
        0x000075c0:    d503201f    . ..    NOP      
        0x000075c4:    d503201f    . ..    NOP      
        0x000075c8:    d503201f    . ..    NOP      
        0x000075cc:    d503201f    . ..    NOP      
        0x000075d0:    d503201f    . ..    NOP      
        0x000075d4:    d503201f    . ..    NOP      
        0x000075d8:    d503201f    . ..    NOP      
        0x000075dc:    d503201f    . ..    NOP      
        0x000075e0:    d503201f    . ..    NOP      
        0x000075e4:    d503201f    . ..    NOP      
        0x000075e8:    d503201f    . ..    NOP      
        0x000075ec:    d503201f    . ..    NOP      
        0x000075f0:    d503201f    . ..    NOP      
        0x000075f4:    d503201f    . ..    NOP      
        0x000075f8:    d503201f    . ..    NOP      
        0x000075fc:    d503201f    . ..    NOP      
    sync_lower_el_aarch32
        0x00007600:    14000000    ....    B        0x7600 ; 0x7600
        0x00007604:    d503201f    . ..    NOP      
        0x00007608:    d503201f    . ..    NOP      
        0x0000760c:    d503201f    . ..    NOP      
        0x00007610:    d503201f    . ..    NOP      
        0x00007614:    d503201f    . ..    NOP      
        0x00007618:    d503201f    . ..    NOP      
        0x0000761c:    d503201f    . ..    NOP      
        0x00007620:    d503201f    . ..    NOP      
        0x00007624:    d503201f    . ..    NOP      
        0x00007628:    d503201f    . ..    NOP      
        0x0000762c:    d503201f    . ..    NOP      
        0x00007630:    d503201f    . ..    NOP      
        0x00007634:    d503201f    . ..    NOP      
        0x00007638:    d503201f    . ..    NOP      
        0x0000763c:    d503201f    . ..    NOP      
        0x00007640:    d503201f    . ..    NOP      
        0x00007644:    d503201f    . ..    NOP      
        0x00007648:    d503201f    . ..    NOP      
        0x0000764c:    d503201f    . ..    NOP      
        0x00007650:    d503201f    . ..    NOP      
        0x00007654:    d503201f    . ..    NOP      
        0x00007658:    d503201f    . ..    NOP      
        0x0000765c:    d503201f    . ..    NOP      
        0x00007660:    d503201f    . ..    NOP      
        0x00007664:    d503201f    . ..    NOP      
        0x00007668:    d503201f    . ..    NOP      
        0x0000766c:    d503201f    . ..    NOP      
        0x00007670:    d503201f    . ..    NOP      
        0x00007674:    d503201f    . ..    NOP      
        0x00007678:    d503201f    . ..    NOP      
        0x0000767c:    d503201f    . ..    NOP      
    irq_lower_el_aarch32
        0x00007680:    14000000    ....    B        0x7680 ; 0x7680
        0x00007684:    d503201f    . ..    NOP      
        0x00007688:    d503201f    . ..    NOP      
        0x0000768c:    d503201f    . ..    NOP      
        0x00007690:    d503201f    . ..    NOP      
        0x00007694:    d503201f    . ..    NOP      
        0x00007698:    d503201f    . ..    NOP      
        0x0000769c:    d503201f    . ..    NOP      
        0x000076a0:    d503201f    . ..    NOP      
        0x000076a4:    d503201f    . ..    NOP      
        0x000076a8:    d503201f    . ..    NOP      
        0x000076ac:    d503201f    . ..    NOP      
        0x000076b0:    d503201f    . ..    NOP      
        0x000076b4:    d503201f    . ..    NOP      
        0x000076b8:    d503201f    . ..    NOP      
        0x000076bc:    d503201f    . ..    NOP      
        0x000076c0:    d503201f    . ..    NOP      
        0x000076c4:    d503201f    . ..    NOP      
        0x000076c8:    d503201f    . ..    NOP      
        0x000076cc:    d503201f    . ..    NOP      
        0x000076d0:    d503201f    . ..    NOP      
        0x000076d4:    d503201f    . ..    NOP      
        0x000076d8:    d503201f    . ..    NOP      
        0x000076dc:    d503201f    . ..    NOP      
        0x000076e0:    d503201f    . ..    NOP      
        0x000076e4:    d503201f    . ..    NOP      
        0x000076e8:    d503201f    . ..    NOP      
        0x000076ec:    d503201f    . ..    NOP      
        0x000076f0:    d503201f    . ..    NOP      
        0x000076f4:    d503201f    . ..    NOP      
        0x000076f8:    d503201f    . ..    NOP      
        0x000076fc:    d503201f    . ..    NOP      
    fiq_lower_el_aarch32
        0x00007700:    14000021    !...    B        0x7784 ; 0x7784
        0x00007704:    d503201f    . ..    NOP      
        0x00007708:    d503201f    . ..    NOP      
        0x0000770c:    d503201f    . ..    NOP      
        0x00007710:    d503201f    . ..    NOP      
        0x00007714:    d503201f    . ..    NOP      
        0x00007718:    d503201f    . ..    NOP      
        0x0000771c:    d503201f    . ..    NOP      
        0x00007720:    d503201f    . ..    NOP      
        0x00007724:    d503201f    . ..    NOP      
        0x00007728:    d503201f    . ..    NOP      
        0x0000772c:    d503201f    . ..    NOP      
        0x00007730:    d503201f    . ..    NOP      
        0x00007734:    d503201f    . ..    NOP      
        0x00007738:    d503201f    . ..    NOP      
        0x0000773c:    d503201f    . ..    NOP      
        0x00007740:    d503201f    . ..    NOP      
        0x00007744:    d503201f    . ..    NOP      
        0x00007748:    d503201f    . ..    NOP      
        0x0000774c:    d503201f    . ..    NOP      
        0x00007750:    d503201f    . ..    NOP      
        0x00007754:    d503201f    . ..    NOP      
        0x00007758:    d503201f    . ..    NOP      
        0x0000775c:    d503201f    . ..    NOP      
        0x00007760:    d503201f    . ..    NOP      
        0x00007764:    d503201f    . ..    NOP      
        0x00007768:    d503201f    . ..    NOP      
        0x0000776c:    d503201f    . ..    NOP      
        0x00007770:    d503201f    . ..    NOP      
        0x00007774:    d503201f    . ..    NOP      
        0x00007778:    d503201f    . ..    NOP      
        0x0000777c:    d503201f    . ..    NOP      
    serror_lower_el_aarch32
        0x00007780:    14000000    ....    B        0x7780 ; 0x7780
    fiqFirstLevelHandler
        0x00007784:    a9bf7bfd    .{..    STP      x29,x30,[sp,#-0x10]!
        0x00007788:    a9bf4ff2    .O..    STP      x18,x19,[sp,#-0x10]!
        0x0000778c:    a9bf47f0    .G..    STP      x16,x17,[sp,#-0x10]!
        0x00007790:    a9bf3fee    .?..    STP      x14,x15,[sp,#-0x10]!
        0x00007794:    a9bf37ec    .7..    STP      x12,x13,[sp,#-0x10]!
        0x00007798:    a9bf2fea    ./..    STP      x10,x11,[sp,#-0x10]!
        0x0000779c:    a9bf27e8    .'..    STP      x8,x9,[sp,#-0x10]!
        0x000077a0:    a9bf1fe6    ....    STP      x6,x7,[sp,#-0x10]!
        0x000077a4:    a9bf17e4    ....    STP      x4,x5,[sp,#-0x10]!
        0x000077a8:    a9bf0fe2    ....    STP      x2,x3,[sp,#-0x10]!
        0x000077ac:    a9bf07e0    ....    STP      x0,x1,[sp,#-0x10]!
        0x000077b0:    97fff535    5...    BL       fiqHandler ; 0x4c84
        0x000077b4:    a8c107e0    ....    LDP      x0,x1,[sp],#0x10
        0x000077b8:    a8c10fe2    ....    LDP      x2,x3,[sp],#0x10
        0x000077bc:    a8c117e4    ....    LDP      x4,x5,[sp],#0x10
        0x000077c0:    a8c11fe6    ....    LDP      x6,x7,[sp],#0x10
        0x000077c4:    a8c127e8    .'..    LDP      x8,x9,[sp],#0x10
        0x000077c8:    a8c12fea    ./..    LDP      x10,x11,[sp],#0x10
        0x000077cc:    a8c137ec    .7..    LDP      x12,x13,[sp],#0x10
        0x000077d0:    a8c13fee    .?..    LDP      x14,x15,[sp],#0x10
        0x000077d4:    a8c147f0    .G..    LDP      x16,x17,[sp],#0x10
        0x000077d8:    a8c14ff2    .O..    LDP      x18,x19,[sp],#0x10
        0x000077dc:    a8c17bfd    .{..    LDP      x29,x30,[sp],#0x10
        0x000077e0:    d69f03e0    ....    ERET     
    $x
    i.__ARM_fpclassify
    __ARM_fpclassify
        0x000077e4:    d10043ff    .C..    SUB      sp,sp,#0x10
        0x000077e8:    fd0003e0    ....    STR      d0,[sp,#0]
        0x000077ec:    b94007e0    ..@.    LDR      w0,[sp,#4]
        0x000077f0:    531f7801    .x.S    LSL      w1,w0,#1
        0x000077f4:    b94003e0    ..@.    LDR      w0,[sp,#0]
        0x000077f8:    2a012c00    .,.*    ORR      w0,w0,w1,LSL #11
        0x000077fc:    7100001f    ...q    CMP      w0,#0
        0x00007800:    54000040    @..T    B.EQ     0x7808 ; __ARM_fpclassify + 36
        0x00007804:    52800080    ...R    MOV      w0,#4
        0x00007808:    53157c22    "|.S    LSR      w2,w1,#21
        0x0000780c:    7100005f    _..q    CMP      w2,#0
        0x00007810:    54000040    @..T    B.EQ     0x7818 ; __ARM_fpclassify + 52
        0x00007814:    32000000    ...2    ORR      w0,w0,#1
        0x00007818:    52bffc02    ...R    MOV      w2,#0xffe00000
        0x0000781c:    0a210041    A.!.    BIC      w1,w2,w1
        0x00007820:    7100003f    ?..q    CMP      w1,#0
        0x00007824:    54000041    A..T    B.NE     0x782c ; __ARM_fpclassify + 72
        0x00007828:    321f0000    ...2    ORR      w0,w0,#2
        0x0000782c:    7100041f    ...q    CMP      w0,#1
        0x00007830:    54000041    A..T    B.NE     0x7838 ; __ARM_fpclassify + 84
        0x00007834:    528000a0    ...R    MOV      w0,#5
        0x00007838:    910043ff    .C..    ADD      sp,sp,#0x10
        0x0000783c:    d65f03c0    .._.    RET      
    i._is_digit
    _is_digit
        0x00007840:    5100c000    ...Q    SUB      w0,w0,#0x30
        0x00007844:    7100281f    .(.q    CMP      w0,#0xa
        0x00007848:    1a9f27e0    .'..    CSET     w0,CC
        0x0000784c:    d65f03c0    .._.    RET      
    i.fputc
    fputc
        0x00007850:    b9401022    ".@.    LDR      w2,[x1,#0x10]
        0x00007854:    7100005f    _..q    CMP      w2,#0
        0x00007858:    5400004c    L..T    B.GT     0x7860 ; fputc + 16
        0x0000785c:    17ffeede    ....    B        __flsbuf ; 0x33d4
        0x00007860:    51000442    B..Q    SUB      w2,w2,#1
        0x00007864:    b9001022    "...    STR      w2,[x1,#0x10]
        0x00007868:    12001c00    ....    AND      w0,w0,#0xff
        0x0000786c:    f9400422    ".@.    LDR      x2,[x1,#8]
        0x00007870:    aa0203e3    ....    MOV      x3,x2
        0x00007874:    91000463    c...    ADD      x3,x3,#1
        0x00007878:    f9000423    #...    STR      x3,[x1,#8]
        0x0000787c:    39000040    @..9    STRB     w0,[x2,#0]
        0x00007880:    d65f03c0    .._.    RET      
    locale$$code
    _get_lc_numeric
        0x00007884:    a9bf7bf5    .{..    STP      x21,x30,[sp,#-0x10]!
        0x00007888:    b4000141    A...    CBZ      x1,0x78b0 ; _get_lc_numeric + 44
        0x0000788c:    39400020     .@9    LDRB     w0,[x1,#0]
        0x00007890:    34000100    ...4    CBZ      w0,0x78b0 ; _get_lc_numeric + 44
        0x00007894:    90000000    ....    ADRP     x0,{pc} ; 0x7894
        0x00007898:    91383000    .08.    ADD      x0,x0,#0xe0c
        0x0000789c:    97fff2b5    ....    BL       strcmp ; 0x4370
        0x000078a0:    34000080    ...4    CBZ      w0,0x78b0 ; _get_lc_numeric + 44
        0x000078a4:    d2800000    ....    MOV      x0,#0
        0x000078a8:    a8c17bf5    .{..    LDP      x21,x30,[sp],#0x10
        0x000078ac:    d65f03c0    .._.    RET      
        0x000078b0:    90000000    ....    ADRP     x0,{pc} ; 0x78b0
        0x000078b4:    91385000    .P8.    ADD      x0,x0,#0xe14
        0x000078b8:    a8c17bf5    .{..    LDP      x21,x30,[sp],#0x10
        0x000078bc:    d65f03c0    .._.    RET      
    locale$$code
    _get_lc_ctype
        0x000078c0:    a9bf7bf5    .{..    STP      x21,x30,[sp,#-0x10]!
        0x000078c4:    b4000141    A...    CBZ      x1,0x78ec ; _get_lc_ctype + 44
        0x000078c8:    39400020     .@9    LDRB     w0,[x1,#0]
        0x000078cc:    34000100    ...4    CBZ      w0,0x78ec ; _get_lc_ctype + 44
        0x000078d0:    90000000    ....    ADRP     x0,{pc} ; 0x78d0
        0x000078d4:    9138a000    ..8.    ADD      x0,x0,#0xe28
        0x000078d8:    97fff2a6    ....    BL       strcmp ; 0x4370
        0x000078dc:    34000080    ...4    CBZ      w0,0x78ec ; _get_lc_ctype + 44
        0x000078e0:    d2800000    ....    MOV      x0,#0
        0x000078e4:    a8c17bf5    .{..    LDP      x21,x30,[sp],#0x10
        0x000078e8:    d65f03c0    .._.    RET      
        0x000078ec:    90000000    ....    ADRP     x0,{pc} ; 0x78ec
        0x000078f0:    9138c000    ..8.    ADD      x0,x0,#0xe30
        0x000078f4:    a8c17bf5    .{..    LDP      x21,x30,[sp],#0x10
        0x000078f8:    d65f03c0    .._.    RET      
    $x.0
    setICC_SRE_EL1
        0x000078fc:    d518cca0    ....    MSR      S3_0_C12_C12_5,x0
        0x00007900:    d5033fdf    .?..    ISB      
        0x00007904:    d65f03c0    .._.    RET      
    getICC_SRE_EL1
        0x00007908:    d538cca0    ..8.    MRS      x0,S3_0_C12_C12_5
        0x0000790c:    d65f03c0    .._.    RET      
    setICC_SRE_EL2
        0x00007910:    d51cc9a0    ....    MSR      S3_4_C12_C9_5,x0
        0x00007914:    d5033fdf    .?..    ISB      
        0x00007918:    d65f03c0    .._.    RET      
    getICC_SRE_EL2
        0x0000791c:    d53cc9a0    ..<.    MRS      x0,S3_4_C12_C9_5
        0x00007920:    d65f03c0    .._.    RET      
    setICC_SRE_EL3
        0x00007924:    d51ecca0    ....    MSR      S3_6_C12_C12_5,x0
        0x00007928:    d5033fdf    .?..    ISB      
        0x0000792c:    d65f03c0    .._.    RET      
    getICC_SRE_EL3
        0x00007930:    d53ecca0    ..>.    MRS      x0,S3_6_C12_C12_5
        0x00007934:    d65f03c0    .._.    RET      
    enableGroup0Ints
        0x00007938:    52800020     ..R    MOV      w0,#1
        0x0000793c:    d518ccc0    ....    MSR      S3_0_C12_C12_6,x0
        0x00007940:    d5033fdf    .?..    ISB      
        0x00007944:    d65f03c0    .._.    RET      
    disableGroup0Ints
        0x00007948:    52800000    ...R    MOV      w0,#0
        0x0000794c:    d518ccc0    ....    MSR      S3_0_C12_C12_6,x0
        0x00007950:    d5033fdf    .?..    ISB      
        0x00007954:    d65f03c0    .._.    RET      
    enableGroup1Ints
        0x00007958:    d538cce0    ..8.    MRS      x0,S3_0_C12_C12_7
        0x0000795c:    32000000    ...2    ORR      w0,w0,#1
        0x00007960:    d518cce0    ....    MSR      S3_0_C12_C12_7,x0
        0x00007964:    d5033fdf    .?..    ISB      
        0x00007968:    d65f03c0    .._.    RET      
    disableGroup1Ints
        0x0000796c:    52800021    !..R    MOV      w1,#1
        0x00007970:    d538cce0    ..8.    MRS      x0,S3_0_C12_C12_7
        0x00007974:    8a210000    ..!.    BIC      x0,x0,x1
        0x00007978:    d518cce0    ....    MSR      S3_0_C12_C12_7,x0
        0x0000797c:    d5033fdf    .?..    ISB      
        0x00007980:    d65f03c0    .._.    RET      
    enableNSGroup1Ints
        0x00007984:    d53ecce0    ..>.    MRS      x0,S3_6_C12_C12_7
        0x00007988:    32000000    ...2    ORR      w0,w0,#1
        0x0000798c:    d51ecce0    ....    MSR      S3_6_C12_C12_7,x0
        0x00007990:    d5033fdf    .?..    ISB      
        0x00007994:    d65f03c0    .._.    RET      
    disableNSGroup1Ints
        0x00007998:    52800021    !..R    MOV      w1,#1
        0x0000799c:    d53ecce0    ..>.    MRS      x0,S3_6_C12_C12_7
        0x000079a0:    8a210000    ..!.    BIC      x0,x0,x1
        0x000079a4:    d51ecce0    ....    MSR      S3_6_C12_C12_7,x0
        0x000079a8:    d5033fdf    .?..    ISB      
        0x000079ac:    d65f03c0    .._.    RET      
    getICC_CTLR_EL3
        0x000079b0:    d53ecc80    ..>.    MRS      x0,S3_6_C12_C12_4
        0x000079b4:    d65f03c0    .._.    RET      
    setICC_CTLR_EL3
        0x000079b8:    d51ecc80    ....    MSR      S3_6_C12_C12_4,x0
        0x000079bc:    d5033fdf    .?..    ISB      
        0x000079c0:    d65f03c0    .._.    RET      
    getICC_CTLR_EL1
        0x000079c4:    d538cc80    ..8.    MRS      x0,S3_0_C12_C12_4
        0x000079c8:    d65f03c0    .._.    RET      
    setICC_CTLR_EL1
        0x000079cc:    d518cc80    ....    MSR      S3_0_C12_C12_4,x0
        0x000079d0:    d5033fdf    .?..    ISB      
        0x000079d4:    d65f03c0    .._.    RET      
    readIARGrp0
        0x000079d8:    d538c800    ..8.    MRS      x0,S3_0_C12_C8_0
        0x000079dc:    d65f03c0    .._.    RET      
    writeEOIGrp0
        0x000079e0:    d518c820     ...    MSR      S3_0_C12_C8_1,x0
        0x000079e4:    d5033fdf    .?..    ISB      
        0x000079e8:    d65f03c0    .._.    RET      
    writeDIR
        0x000079ec:    d518cb20     ...    MSR      S3_0_C12_C11_1,x0
        0x000079f0:    d5033fdf    .?..    ISB      
        0x000079f4:    d65f03c0    .._.    RET      
    readIARGrp1
        0x000079f8:    d538cc00    ..8.    MRS      x0,S3_0_C12_C12_0
        0x000079fc:    d65f03c0    .._.    RET      
    writeEOIGrp1
        0x00007a00:    d518cc20     ...    MSR      S3_0_C12_C12_1,x0
        0x00007a04:    d5033f9f    .?..    DSB      SY
        0x00007a08:    d65f03c0    .._.    RET      
    setPriorityMask
        0x00007a0c:    d5184600    .F..    MSR      S3_0_C4_C6_0,x0
        0x00007a10:    d65f03c0    .._.    RET      
    getBPR0
        0x00007a14:    d538c860    `.8.    MRS      x0,S3_0_C12_C8_3
        0x00007a18:    d65f03c0    .._.    RET      
    setBPR0
        0x00007a1c:    d518c860    `...    MSR      S3_0_C12_C8_3,x0
        0x00007a20:    d5033fdf    .?..    ISB      
        0x00007a24:    d65f03c0    .._.    RET      
    getBPR1
        0x00007a28:    d538cc60    `.8.    MRS      x0,S3_0_C12_C12_3
        0x00007a2c:    d65f03c0    .._.    RET      
    setBPR1
        0x00007a30:    d518cc60    `...    MSR      S3_0_C12_C12_3,x0
        0x00007a34:    d5033fdf    .?..    ISB      
        0x00007a38:    d65f03c0    .._.    RET      
    getRunningPriority
        0x00007a3c:    d538cb60    `.8.    MRS      x0,S3_0_C12_C11_3
        0x00007a40:    d65f03c0    .._.    RET      
    sendGroup0SGI
        0x00007a44:    aa010000    ....    ORR      x0,x0,x1
        0x00007a48:    aa020000    ....    ORR      x0,x0,x2
        0x00007a4c:    d518cbe0    ....    MSR      S3_0_C12_C11_7,x0
        0x00007a50:    d65f03c0    .._.    RET      
    sendGroup1SGI
        0x00007a54:    aa010000    ....    ORR      x0,x0,x1
        0x00007a58:    aa020000    ....    ORR      x0,x0,x2
        0x00007a5c:    d518cba0    ....    MSR      S3_0_C12_C11_5,x0
        0x00007a60:    d65f03c0    .._.    RET      
    sendOtherGroup1SGI
        0x00007a64:    aa010000    ....    ORR      x0,x0,x1
        0x00007a68:    aa020000    ....    ORR      x0,x0,x2
        0x00007a6c:    d518cbc0    ....    MSR      S3_0_C12_C11_6,x0
        0x00007a70:    d65f03c0    .._.    RET      
    $x
    x$fpl$printf1
    _printf_fp_dec
        0x00007a74:    17ffe70f    ....    B        _printf_fp_dec_real ; 0x16b0
    x$fpl$printf2
    _printf_fp_hex
        0x00007a78:    17ffe828    (...    B        _printf_fp_hex_real ; 0x1b18
    $d.realdata
    .constdata
    initial_mbstate
    x$fpl$usenofp
    __I$use$fp
        0x00007a7c:    00000000    ....    DCD    0
        0x00007a80:    00000000    ....    DCD    0
    .constdata
    uc_hextab
        0x00007a84:    33323130    0123    DCD    858927408
        0x00007a88:    37363534    4567    DCD    926299444
        0x00007a8c:    42413938    89AB    DCD    1111570744
        0x00007a90:    46454443    CDEF    DCD    1178944579
        0x00007a94:    00583040    @0X.    DCD    5779520
    lc_hextab
        0x00007a98:    33323130    0123    DCD    858927408
        0x00007a9c:    37363534    4567    DCD    926299444
        0x00007aa0:    62613938    89ab    DCD    1650538808
        0x00007aa4:    66656463    cdef    DCD    1717920867
        0x00007aa8:    00783040    @0x.    DCD    7876672
    .constdata
    maptable
        0x00007aac:    08000004    ....    DCD    134217732
        0x00007ab0:    00000000    ....    DCD    0
        0x00007ab4:    02000000    ....    DCD    33554432
        0x00007ab8:    00000100    ....    DCD    256
        0x00007abc:    10          .       DCB    16
    .constdata
    lc_hextab
        0x00007abd:    303132      012     DCB    48,49,50
        0x00007ac0:    36353433    3456    DCD    909456435
        0x00007ac4:    61393837    789a    DCD    1631139895
        0x00007ac8:    65646362    bcde    DCD    1701077858
        0x00007acc:    00707866    fxp.    DCD    7370854
    uc_hextab
        0x00007ad0:    33323130    0123    DCD    858927408
        0x00007ad4:    37363534    4567    DCD    926299444
        0x00007ad8:    42413938    89AB    DCD    1111570744
        0x00007adc:    46454443    CDEF    DCD    1178944579
        0x00007ae0:    5058        XP      DCW    20568
        0x00007ae2:    00          .       DCB    0
    .constdata
    __stdin_name
        0x00007ae3:    3a          :       DCB    58
        0x00007ae4:    7474        tt      DCW    29812
        0x00007ae6:    00          .       DCB    0
    .constdata
    __stdout_name
        0x00007ae7:    3a          :       DCB    58
        0x00007ae8:    7474        tt      DCW    29812
        0x00007aea:    00          .       DCB    0
    .constdata
    __stderr_name
        0x00007aeb:    3a          :       DCB    58
        0x00007aec:    00007474    tt..    DCD    29812
    .constdata
    tenpwrs_x
        0x00007af0:    00004002    .@..    DCD    16386
        0x00007af4:    00000000    ....    DCD    0
        0x00007af8:    a0000000    ....    DCD    2684354560
        0x00007afc:    00000000    ....    DCD    0
        0x00007b00:    00000000    ....    DCD    0
        0x00007b04:    00000000    ....    DCD    0
        0x00007b08:    00004005    .@..    DCD    16389
        0x00007b0c:    00000000    ....    DCD    0
        0x00007b10:    c8000000    ....    DCD    3355443200
        0x00007b14:    00000000    ....    DCD    0
        0x00007b18:    00000000    ....    DCD    0
        0x00007b1c:    00000000    ....    DCD    0
        0x00007b20:    0000400c    .@..    DCD    16396
        0x00007b24:    00000000    ....    DCD    0
        0x00007b28:    9c400000    ..@.    DCD    2621440000
        0x00007b2c:    00000000    ....    DCD    0
        0x00007b30:    00000000    ....    DCD    0
        0x00007b34:    00000000    ....    DCD    0
        0x00007b38:    00004019    .@..    DCD    16409
        0x00007b3c:    00000000    ....    DCD    0
        0x00007b40:    bebc2000    . ..    DCD    3200000000
        0x00007b44:    00000000    ....    DCD    0
        0x00007b48:    00000000    ....    DCD    0
        0x00007b4c:    00000000    ....    DCD    0
        0x00007b50:    00004034    4@..    DCD    16436
        0x00007b54:    00000000    ....    DCD    0
        0x00007b58:    8e1bc9bf    ....    DCD    2384185791
        0x00007b5c:    00000000    ....    DCD    0
        0x00007b60:    04000000    ....    DCD    67108864
        0x00007b64:    00000000    ....    DCD    0
    tenpwrs_i
        0x00007b68:    000040b5    .@..    DCD    16565
        0x00007b6c:    00000000    ....    DCD    0
        0x00007b70:    d0cf4b50    PK..    DCD    3503246160
        0x00007b74:    00000000    ....    DCD    0
        0x00007b78:    cfe20766    f...    DCD    3487696742
        0x00007b7c:    00000000    ....    DCD    0
        0x00007b80:    00000001    ....    DCD    1
        0x00007b84:    00000000    ....    DCD    0
        0x00007b88:    0000416c    lA..    DCD    16748
        0x00007b8c:    00000000    ....    DCD    0
        0x00007b90:    aa51823e    >.Q.    DCD    2857468478
        0x00007b94:    00000000    ....    DCD    0
        0x00007b98:    34a7eedf    ...4    DCD    883420895
        0x00007b9c:    00000000    ....    DCD    0
        0x00007ba0:    00000001    ....    DCD    1
        0x00007ba4:    00000000    ....    DCD    0
        0x00007ba8:    000042d9    .B..    DCD    17113
        0x00007bac:    00000000    ....    DCD    0
        0x00007bb0:    e2a0b5dc    ....    DCD    3802183132
        0x00007bb4:    00000000    ....    DCD    0
        0x00007bb8:    971f303a    :0..    DCD    2535403578
        0x00007bbc:    00000000    ....    DCD    0
        0x00007bc0:    ffffffff    ....    DCD    4294967295
        0x00007bc4:    00000000    ....    DCD    0
        0x00007bc8:    000045b4    .E..    DCD    17844
        0x00007bcc:    00000000    ....    DCD    0
        0x00007bd0:    c8a025fd    .%..    DCD    3365938685
        0x00007bd4:    00000000    ....    DCD    0
        0x00007bd8:    4fc1a3e9    ...O    DCD    1338090473
        0x00007bdc:    00000000    ....    DCD    0
        0x00007be0:    ffffffff    ....    DCD    4294967295
        0x00007be4:    00000000    ....    DCD    0
        0x00007be8:    00003fff    .?..    DCD    16383
        0x00007bec:    00000000    ....    DCD    0
        0x00007bf0:    80000000    ....    DCD    2147483648
        0x00007bf4:    00000000    ....    DCD    0
        0x00007bf8:    00000000    ....    DCD    0
        0x00007bfc:    00000000    ....    DCD    0
        0x00007c00:    00003fff    .?..    DCD    16383
        0x00007c04:    00000000    ....    DCD    0
        0x00007c08:    80000000    ....    DCD    2147483648
        0x00007c0c:    00000000    ....    DCD    0
        0x00007c10:    00000000    ....    DCD    0
        0x00007c14:    00000000    ....    DCD    0
        0x00007c18:    6e69616d    main    DCD    1852399981
        0x00007c1c:    2d202928    () -    DCD    757082408
        0x00007c20:    54494720     GIT    DCD    1414088480
        0x00007c24:    41425f53    S_BA    DCD    1094868819
        0x00007c28:    30524553    SER0    DCD    810698067
        0x00007c2c:    746f6e20     not    DCD    1953459744
        0x00007c30:    70786520     exp    DCD    1886938400
        0x00007c34:    65746365    ecte    DCD    1702126437
        0x00007c38:    61762064    d va    DCD    1635131492
        0x00007c3c:    2065756c    lue     DCD    543520108
        0x00007c40:    65657328    (see    DCD    1701147432
        0x00007c44:    20676e69    ing     DCD    543649385
        0x00007c48:    78257830    0x%x    DCD    2015721520
        0x00007c4c:    7865202c    , ex    DCD    2019893292
        0x00007c50:    74636570    pect    DCD    1952671088
        0x00007c54:    30206465    ed 0    DCD    807429221
        0x00007c58:    29782578    x%x)    DCD    695739768
        0x00007c5c:    200a202e    . .     DCD    537534510
        0x00007c60:    20202020            DCD    538976288
        0x00007c64:    20202020            DCD    538976288
        0x00007c68:    65646f4d    Mode    DCD    1701080909
        0x00007c6c:    696d206c    l mi    DCD    1768759404
        0x00007c70:    6e6f6373    scon    DCD    1852793715
        0x00007c74:    75676966    figu    DCD    1969711462
        0x00007c78:    2e646572    red.    DCD    778331506
        0x00007c7c:    616d000a    ..ma    DCD    1634533386
        0x00007c80:    29286e69    in()    DCD    690515561
        0x00007c84:    47202d20     - G    DCD    1193291040
        0x00007c88:    5f535449    ITS_    DCD    1599296585
        0x00007c8c:    45534142    BASE    DCD    1163084098
        0x00007c90:    6e203152    R1 n    DCD    1847603538
        0x00007c94:    6520746f    ot e    DCD    1696625775
        0x00007c98:    63657078    xpec    DCD    1667592312
        0x00007c9c:    20646574    ted     DCD    543450484
        0x00007ca0:    756c6176    valu    DCD    1970037110
        0x00007ca4:    73282065    e (s    DCD    1932009573
        0x00007ca8:    6e696565    eein    DCD    1852400997
        0x00007cac:    78302067    g 0x    DCD    2016419943
        0x00007cb0:    202c7825    %x,     DCD    539785253
        0x00007cb4:    65707865    expe    DCD    1701869669
        0x00007cb8:    64657463    cted    DCD    1684370531
        0x00007cbc:    25783020     0x%    DCD    628633632
        0x00007cc0:    202e2978    x).     DCD    539896184
        0x00007cc4:    2020200a    .       DCD    538976266
        0x00007cc8:    20202020            DCD    538976288
        0x00007ccc:    6f4d2020      Mo    DCD    1867325472
        0x00007cd0:    206c6564    del     DCD    543974756
        0x00007cd4:    6373696d    misc    DCD    1668508013
        0x00007cd8:    69666e6f    onfi    DCD    1768320623
        0x00007cdc:    65727567    gure    DCD    1701999975
        0x00007ce0:    000a2e64    d...    DCD    667236
        0x00007ce4:    6e69616d    main    DCD    1852399981
        0x00007ce8:    203a2928    ():     DCD    540682536
        0x00007cec:    6e69616d    main    DCD    1852399981
        0x00007cf0:    2d202928    () -    DCD    757082408
        0x00007cf4:    54494720     GIT    DCD    1414088480
        0x00007cf8:    59545f53    S_TY    DCD    1498701651
        0x00007cfc:    2e524550    PER.    DCD    777143632
        0x00007d00:    3d415450    PTA=    DCD    1027691600
        0x00007d04:    202c313d    =1,     DCD    539767101
        0x00007d08:    73696874    this    DCD    1936287860
        0x00007d0c:    61786520     exa    DCD    1635280160
        0x00007d10:    656c706d    mple    DCD    1701605485
        0x00007d14:    70786520     exp    DCD    1886938400
        0x00007d18:    73746365    ects    DCD    1937007461
        0x00007d1c:    41545020     PTA    DCD    1096044576
        0x00007d20:    0a303d3d    ==0.    DCD    170933565
        0x00007d24:    69616d00    .mai    DCD    1767992576
        0x00007d28:    3a29286e    n():    DCD    975775854
        0x00007d2c:    6e655320     Sen    DCD    1852134176
        0x00007d30:    676e6964    ding    DCD    1735289188
        0x00007d34:    49504c20     LPI    DCD    1229999136
        0x00007d38:    39313820     819    DCD    959526944
        0x00007d3c:    46000a33    3..F    DCD    1174407731
        0x00007d40:    203a5149    IQ:     DCD    540692809
        0x00007d44:    696e6150    Pani    DCD    1768841552
        0x00007d48:    75202c63    c, u    DCD    1965042787
        0x00007d4c:    7078656e    nexp    DCD    1886938478
        0x00007d50:    65746365    ecte    DCD    1702126437
        0x00007d54:    4e492064    d IN    DCD    1313415268
        0x00007d58:    0a444954    TID.    DCD    172247380
        0x00007d5c:    51494600    .FIQ    DCD    1363756544
        0x00007d60:    6552203a    : Re    DCD    1699881018
        0x00007d64:    76696563    ceiv    DCD    1986618723
        0x00007d68:    61206465    ed a    DCD    1629512805
        0x00007d6c:    504c206e    n LP    DCD    1347166318
        0x00007d70:    72662049    I fr    DCD    1919295561
        0x00007d74:    74206d6f    om t    DCD    1948282223
        0x00007d78:    49206568    he I    DCD    1226859880
        0x00007d7c:    000a5354    TS..    DCD    676692
        0x00007d80:    3a514946    FIQ:    DCD    978405702
        0x00007d84:    63655220     Rec    DCD    1667584544
        0x00007d88:    65766965    eive    DCD    1702259045
        0x00007d8c:    4e492064    d IN    DCD    1313415268
        0x00007d90:    20444954    TID     DCD    541346132
        0x00007d94:    000a6425    %d..    DCD    680997
        0x00007d98:    6e69614d    Main    DCD    1852399949
        0x00007d9c:    203a2928    ():     DCD    540682536
        0x00007da0:    74736554    Test    DCD    1953719636
        0x00007da4:    646e6520     end    DCD    1684956448
        0x00007da8:    4946000a    ..FI    DCD    1229324298
        0x00007dac:    49203a51    Q: I    DCD    1226848849
        0x00007db0:    7265746e    nter    DCD    1919251566
        0x00007db4:    74707572    rupt    DCD    1953527154
        0x00007db8:    73617720     was    DCD    1935767328
        0x00007dbc:    75707320     spu    DCD    1970303776
        0x00007dc0:    756f6972    riou    DCD    1970235762
        0x00007dc4:    00000a73    s...    DCD    2675
    Region$$Table$$Base
        0x00007dc8:    00007f38    8...    DCD    32568
        0x00007dcc:    00000000    ....    DCD    0
        0x00007dd0:    04000000    ....    DCD    67108864
        0x00007dd4:    00000000    ....    DCD    0
        0x00007dd8:    00000020     ...    DCD    32
        0x00007ddc:    00000000    ....    DCD    0
        0x00007de0:    00004a98    .J..    DCD    19096
        0x00007de4:    00000000    ....    DCD    0
        0x00007de8:    00007f58    X...    DCD    32600
        0x00007dec:    00000000    ....    DCD    0
        0x00007df0:    04000020     ...    DCD    67108896
        0x00007df4:    00000000    ....    DCD    0
        0x00007df8:    00000200    ....    DCD    512
        0x00007dfc:    00000000    ....    DCD    0
        0x00007e00:    00004ab4    .J..    DCD    19124
        0x00007e04:    00000000    ....    DCD    0
    locale$$data
    Region$$Table$$Limit
        0x00007e08:    0000001c    ....    DCD    28
    __lcnum_c_name
        0x00007e0c:    00000043    C...    DCD    67
        0x00007e10:    fffffff8    ....    DCD    4294967288
    __lcnum_c_start
        0x00007e14:    0000000c    ....    DCD    12
        0x00007e18:    0000000e    ....    DCD    14
        0x00007e1c:    0000000f    ....    DCD    15
    __lcnum_c_point
        0x00007e20:    002e        ..      DCW    46
    __lcnum_c_thousands
        0x00007e22:    00          .       DCB    0
    __lcnum_c_grouping
        0x00007e23:    00          .       DCB    0
    __lcnum_c_end
    locale$$data
        0x00007e24:    00000110    ....    DCD    272
    __lcctype_c_name
        0x00007e28:    00000043    C...    DCD    67
        0x00007e2c:    fffffff8    ....    DCD    4294967288
    __lcctype_c_start
        0x00007e30:    00          .       DCB    0
    __ctype
        0x00007e31:    404040      @@@     DCB    64,64,64
        0x00007e34:    40404040    @@@@    DCD    1077952576
        0x00007e38:    41414040    @@AA    DCD    1094795328
        0x00007e3c:    40414141    AAA@    DCD    1078018369
        0x00007e40:    40404040    @@@@    DCD    1077952576
        0x00007e44:    40404040    @@@@    DCD    1077952576
        0x00007e48:    40404040    @@@@    DCD    1077952576
        0x00007e4c:    40404040    @@@@    DCD    1077952576
        0x00007e50:    02020540    @...    DCD    33686848
        0x00007e54:    02020202    ....    DCD    33686018
        0x00007e58:    02020202    ....    DCD    33686018
        0x00007e5c:    02020202    ....    DCD    33686018
        0x00007e60:    20202002    .       DCD    538976258
        0x00007e64:    20202020            DCD    538976288
        0x00007e68:    02202020       .    DCD    35659808
        0x00007e6c:    02020202    ....    DCD    33686018
        0x00007e70:    90900202    ....    DCD    2425356802
        0x00007e74:    90909090    ....    DCD    2425393296
        0x00007e78:    10101010    ....    DCD    269488144
        0x00007e7c:    10101010    ....    DCD    269488144
        0x00007e80:    10101010    ....    DCD    269488144
        0x00007e84:    10101010    ....    DCD    269488144
        0x00007e88:    10101010    ....    DCD    269488144
        0x00007e8c:    02020202    ....    DCD    33686018
        0x00007e90:    88880202    ....    DCD    2290614786
        0x00007e94:    88888888    ....    DCD    2290649224
        0x00007e98:    08080808    ....    DCD    134744072
        0x00007e9c:    08080808    ....    DCD    134744072
        0x00007ea0:    08080808    ....    DCD    134744072
        0x00007ea4:    08080808    ....    DCD    134744072
        0x00007ea8:    08080808    ....    DCD    134744072
        0x00007eac:    02020202    ....    DCD    33686018
        0x00007eb0:    00000040    @...    DCD    64
        0x00007eb4:    00000000    ....    DCD    0
        0x00007eb8:    00000000    ....    DCD    0
        0x00007ebc:    00000000    ....    DCD    0
        0x00007ec0:    00000000    ....    DCD    0
        0x00007ec4:    00000000    ....    DCD    0
        0x00007ec8:    00000000    ....    DCD    0
        0x00007ecc:    00000000    ....    DCD    0
        0x00007ed0:    00000000    ....    DCD    0
        0x00007ed4:    00000000    ....    DCD    0
        0x00007ed8:    00000000    ....    DCD    0
        0x00007edc:    00000000    ....    DCD    0
        0x00007ee0:    00000000    ....    DCD    0
        0x00007ee4:    00000000    ....    DCD    0
        0x00007ee8:    00000000    ....    DCD    0
        0x00007eec:    00000000    ....    DCD    0
        0x00007ef0:    00000000    ....    DCD    0
        0x00007ef4:    00000000    ....    DCD    0
        0x00007ef8:    00000000    ....    DCD    0
        0x00007efc:    00000000    ....    DCD    0
        0x00007f00:    00000000    ....    DCD    0
        0x00007f04:    00000000    ....    DCD    0
        0x00007f08:    00000000    ....    DCD    0
        0x00007f0c:    00000000    ....    DCD    0
        0x00007f10:    00000000    ....    DCD    0
        0x00007f14:    00000000    ....    DCD    0
        0x00007f18:    00000000    ....    DCD    0
        0x00007f1c:    00000000    ....    DCD    0
        0x00007f20:    00000000    ....    DCD    0
        0x00007f24:    00000000    ....    DCD    0
        0x00007f28:    00000000    ....    DCD    0
        0x00007f2c:    00000000    ....    DCD    0
        0x00007f30:    00000000    ....    DCD    0
    __lcctype_c_end

** Section #2 'RAM' (SHT_PROGBITS) [SHF_ALLOC + SHF_WRITE]
    Size   : 32 bytes (alignment 8)
    Address: 0x04000000


** Section #3 'RAM' (SHT_NOBITS) [SHF_ALLOC + SHF_WRITE]
    Size   : 512 bytes (alignment 8)
    Address: 0x04000020


** Section #4 'ARM_LIB_STACKHEAP' (SHT_NOBITS) [SHF_ALLOC + SHF_WRITE]
    Size   : 32768 bytes
    Address: 0x04008000


** Section #5 '.debug_abbrev' (SHT_PROGBITS)
    Size   : 1018 bytes


** Section #6 '.debug_aranges' (SHT_PROGBITS)
    Size   : 144 bytes


** Section #7 '.debug_frame' (SHT_PROGBITS)
    Size   : 14768 bytes


** Section #8 '.debug_info' (SHT_PROGBITS)
    Size   : 7593 bytes


** Section #9 '.debug_line' (SHT_PROGBITS)
    Size   : 6814 bytes


** Section #10 '.debug_pubnames' (SHT_PROGBITS)
    Size   : 743 bytes


** Section #11 '.debug_pubtypes' (SHT_PROGBITS)
    Size   : 445 bytes


** Section #12 '.debug_str' (SHT_PROGBITS)
    Size   : 2597 bytes


** Section #13 '.debug_ranges' (SHT_PROGBITS)
    Size   : 640 bytes


** Section #14 '.comment' (SHT_PROGBITS)
    Size   : 956 bytes


** Section #15 '.symtab' (SHT_SYMTAB)
    Size   : 18432 bytes (alignment 4)
    String table #17 '.strtab'
    Last local symbol no. 482


** Section #16 '.shstrtab' (SHT_STRTAB)
    Size   : 185 bytes


** Section #17 '.strtab' (SHT_STRTAB)
    Size   : 8861 bytes


